10025		12027	SANDOZ CANADA INCORPORATED	DIN OWNER	Y	Y	Y			145 JULES-LÉGER STREET	BOUCHERVILLE	QUEBEC	CANADA	J4B 7K8	
10991		16411	PRESTIGE PHARMA INC	DIN OWNER	Y	Y	Y			6565 DUNCAN STREET	MONTREAL	QUEBEC	CANADA	H4B 1E8	
10992		16411	PRESTIGE PHARMA INC	DIN OWNER	Y	Y	Y			6565 DUNCAN STREET	MONTREAL	QUEBEC	CANADA	H4B 1E8	
10993		16411	PRESTIGE PHARMA INC	DIN OWNER	Y	Y	Y			6565 DUNCAN STREET	MONTREAL	QUEBEC	CANADA	H4B 1E8	
2030		16807	HEXIM PHARMACEUTICALS INC	DIN OWNER	Y	Y	Y			"600 MEADOWLANDS PARKWAY, SUITE 149"	SECAUCUS	NEW JERSEY	UNITED STATES	7094	
2049		16419	ASPRI PHARMA CANADA INC	DIN OWNER	Y	Y	Y			"665 MILLWAY AVENUE, SUITE 31 B"	CONCORD	ONTARIO	CANADA	L4K 3T8	
21854	LZI95	6236	LONZA INC.	DIN OWNER	Y	Y	N	N		90 BOROLINE ROAD	ALLENDALE	NEW JERSEY	UNITED STATES	7401	
21855	LZI95	6236	LONZA INC.	DIN OWNER	Y	Y	N	N		90 BOROLINE ROAD	ALLENDALE	NEW JERSEY	UNITED STATES	7401	
22567	BGM08	3744	BIO AGRI MIX LP	DIN OWNER	Y	Y	Y	N		11 ELLENS STREET	MITCHELL	ONTARIO	CANADA	N0K 1N0	399
2390		11642	HOSPIRA HEALTHCARE CORPORATION	DIN OWNER	Y	Y	Y			17300 TRANS-CANADA HIGHWAY	KIRKLAND	QUEBEC	CANADA	H9J 2M5	
25876	LZI95	6236	LONZA INC.	DIN OWNER	Y	Y	N	N		90 BOROLINE ROAD	ALLENDALE	NEW JERSEY	UNITED STATES	7401	
25882	LZI95	6236	LONZA INC.	DIN OWNER	Y	Y	N	N		90 BOROLINE ROAD	ALLENDALE	NEW JERSEY	UNITED STATES	7401	
2780		16419	ASPRI PHARMA CANADA INC	DIN OWNER	Y	Y	Y			"665 MILLWAY AVENUE, SUITE 31 B"	CONCORD	ONTARIO	CANADA	L4K 3T8	
35657	PHH07	4917	PHARMEL INC	DIN OWNER	Y	Y	Y	N		"6111, AVENUE ROYALMOUNT, SUITE 100"	MONTREAL	QUEBEC	CANADA	H4P 2T4	
36233		12545	SUPPLEMENTS AROMATIK INC.	DIN OWNER	Y	Y	Y			"2334, BOUL. MARIE-VICTORIN"	VARENNES	QUEBEC	CANADA	J3X 1R4	87
36818	PMS07	3550	PHARMASCIENCE INC	DIN OWNER	Y	Y	Y	N	100	"6111, ROYALMOUNT AVENUE"	MONTREAL	QUEBEC	CANADA	H4P 2T4	
37495		16555	FRESENIUS KABI CANADA LTD	DIN OWNER	Y	Y	Y			"165 GALAXY BLVD, SUITE 100"	TORONTO	ONTARIO	CANADA	M9W 0C8	
42924		11642	HOSPIRA HEALTHCARE CORPORATION	DIN OWNER	Y	Y	Y			17300 TRANS-CANADA HIGHWAY	KIRKLAND	QUEBEC	CANADA	H9J 2M5	
42925		11642	HOSPIRA HEALTHCARE CORPORATION	DIN OWNER	Y	Y	Y			17300 TRANS-CANADA HIGHWAY	KIRKLAND	QUEBEC	CANADA	H9J 2M5	
42929		15139	GRIFOLS THERAPEUTICS INC	DIN OWNER	Y	N	Y			8368 US 70 BUSINESS HWY. WEST	CLAYTON	NORTH CAROLINA	UNITED STATES	27520-9464	
42941		11642	HOSPIRA HEALTHCARE CORPORATION	DIN OWNER	Y	Y	Y			17300 TRANS-CANADA HIGHWAY	KIRKLAND	QUEBEC	CANADA	H9J 2M5	
42942		11642	HOSPIRA HEALTHCARE CORPORATION	DIN OWNER	Y	Y	Y			17300 TRANS-CANADA HIGHWAY	KIRKLAND	QUEBEC	CANADA	H9J 2M5	
42972	ALC08	3594	ALCON CANADA INC	DIN OWNER	Y	Y	Y	N		2665 MEADOWPINE BLVD	MISSISSAUGA	ONTARIO	CANADA	L5N 8C7	
42973	ALC08	3594	ALCON CANADA INC	DIN OWNER	Y	Y	Y	N		2665 MEADOWPINE BLVD	MISSISSAUGA	ONTARIO	CANADA	L5N 8C7	
43007		12538	SANOFI-AVENTIS CANADA INC	DIN OWNER	Y	N	Y			2905 PLACE LOUIS-R. RENAUD	LAVAL	QUEBEC	CANADA	H7V 0A3	
43008		12538	SANOFI-AVENTIS CANADA INC	DIN OWNER	Y	N	Y			2905 PLACE LOUIS-R. RENAUD	LAVAL	QUEBEC	CANADA	H7V 0A3	
43064	PFI07	4908	PFIZER CANADA INC	DIN OWNER	Y	Y	Y	N		17300 TRANS-CANADA HIGHWAY	KIRKLAND	QUEBEC	CANADA	H9J 2M5	
43065	PFI07	4908	PFIZER CANADA INC	DIN OWNER	Y	Y	Y	N		17300 TRANS-CANADA HIGHWAY	KIRKLAND	QUEBEC	CANADA	H9J 2M5	
43066	PFI07	4908	PFIZER CANADA INC	DIN OWNER	Y	Y	Y	N		17300 TRANS-CANADA HIGHWAY	KIRKLAND	QUEBEC	CANADA	H9J 2M5	
43255	AZC08	9307	ASTRAZENECA CANADA INC	DIN OWNER	Y	N	Y	N		"1004 MIDDLEGATE ROAD, SUITE 5000"	MISSISSAUGA	ONTARIO	CANADA	L4Y 1M4	
43256	AZC08	9307	ASTRAZENECA CANADA INC	DIN OWNER	Y	N	Y	N		"1004 MIDDLEGATE ROAD, SUITE 5000"	MISSISSAUGA	ONTARIO	CANADA	L4Y 1M4	
43342	PFI07	4908	PFIZER CANADA INC	DIN OWNER	Y	Y	Y	N		17300 TRANS-CANADA HIGHWAY	KIRKLAND	QUEBEC	CANADA	H9J 2M5	
43379		15139	GRIFOLS THERAPEUTICS INC	DIN OWNER	Y	N	Y			8368 US 70 BUSINESS HWY. WEST	CLAYTON	NORTH CAROLINA	UNITED STATES	27520-9464	
43380		15139	GRIFOLS THERAPEUTICS INC	DIN OWNER	Y	N	Y			8368 US 70 BUSINESS HWY. WEST	CLAYTON	NORTH CAROLINA	UNITED STATES	27520-9464	
43397		13260	NYCOMED GMBH	DIN OWNER	Y	N	N			BYK-GULDEN-STRASSE 2	KONSTANZ	SAONE ET LOIRE	GERMANY	78467	
43603		8287	TYCO HEALTHCARE	DIN OWNER	Y	Y	Y			7500 TRANS CANADA HIGHWAY	POINTE-CLAIRE	QUEBEC	CANADA	H9R 5H8	
43612	PFI07	4908	PFIZER CANADA INC	DIN OWNER	Y	Y	Y	N		17300 TRANS-CANADA HIGHWAY	KIRKLAND	QUEBEC	CANADA	H9J 2M5	
43679	AVP07	9522	AVENTIS PHARMA INC	DIN OWNER	Y	N	N	N		2150 BOUL. ST-ELZEAR OUEST	LAVAL	QUEBEC	CANADA	H7L 4A8	
43680	AVP07	9522	AVENTIS PHARMA INC	DIN OWNER	Y	N	N	N		2150 BOUL. ST-ELZEAR OUEST	LAVAL	QUEBEC	CANADA	H7L 4A8	
43681	AVP07	9522	AVENTIS PHARMA INC	DIN OWNER	Y	N	N	N		2150 BOUL. ST-ELZEAR OUEST	LAVAL	QUEBEC	CANADA	H7L 4A8	
43757	BGM08	3744	BIO AGRI MIX LP	DIN OWNER	Y	Y	Y	N		11 ELLENS STREET	MITCHELL	ONTARIO	CANADA	N0K 1N0	399
43922	NFG08	4398	INTERVET CANADA CORP	DIN OWNER	Y	Y	Y	N		16750 ROUTE TRANSCANADIENNE	KIRKLAND	QUEBEC	CANADA	H9H 4M7	
43968	NVR07	7277	NOVARTIS PHARMACEUTICALS CANADA INC	DIN OWNER	Y	Y	Y	N		385 BOUCHARD BLVD	DORVAL	QUEBEC	CANADA	H9S 1A9	
44028	AVP07	9522	AVENTIS PHARMA INC	DIN OWNER	Y	N	N	N		2150 BOUL. ST-ELZEAR OUEST	LAVAL	QUEBEC	CANADA	H7L 4A8	
44037	HLR07	4328	HOFFMANN-LA ROCHE LIMITED	DIN OWNER	Y	Y	Y	N		7070 MISSISSAUGA ROAD	MISSISSAUGA	ONTARIO	CANADA	L5N 5M8	
44038	HLR07	4328	HOFFMANN-LA ROCHE LIMITED	DIN OWNER	Y	Y	Y	N		7070 MISSISSAUGA ROAD	MISSISSAUGA	ONTARIO	CANADA	L5N 5M8	
44097		12934	GRACEWAY PHARMACEUTICALS	DIN OWNER	Y	Y	N		302	252 PALL MALL STREET	LONDON	ONTARIO	CANADA	N6A 5P6	
44174	NVR07	7277	NOVARTIS PHARMACEUTICALS CANADA INC	DIN OWNER	Y	Y	Y	N		385 BOUCHARD BLVD	DORVAL	QUEBEC	CANADA	H9S 1A9	
47228	PFR08	7054	PURDUE PHARMA	DIN OWNER	Y	Y	Y	N		575 GRANITE COURT	PICKERING	ONTARIO	CANADA	L1W 3W8	
47256	VZP07	6769	VIVIER MEDICAL INC.	DIN OWNER	Y	N	N	N		2689 CARRIAGE WAY	ST.LAZARE	QUEBEC	CANADA	J7T 2B1	
47356	SVY08	5219	"SOLVAY ANIMAL HEALTH, INC."	DIN OWNER	Y	N	N	N		400 MICHENER RD	GUELPH	ONTARIO	CANADA	N1K 1E4	
47436	AOF10	5536	AHMED'S SUNFORCE INTERNATIONAL PRODUCTS INC.	DIN OWNER	Y	Y	Y	N	34	4847-219TH ST	LANGLEY	BRITISH COLUMBIA	CANADA	V5A 8C1	
47471	TLI07	5266	LABORATOIRES TRIANON INC	DIN OWNER	Y	Y	N	N		660 BOULEVARD INDUSTRIEL	BLAINVILLE	QUEBEC	CANADA	J7C 3V4	
47472	TLI07	5266	LABORATOIRES TRIANON INC	DIN OWNER	Y	Y	N	N		660 BOULEVARD INDUSTRIEL	BLAINVILLE	QUEBEC	CANADA	J7C 3V4	
47473	TLI07	5266	LABORATOIRES TRIANON INC	DIN OWNER	Y	Y	N	N		660 BOULEVARD INDUSTRIEL	BLAINVILLE	QUEBEC	CANADA	J7C 3V4	
47474	TLI07	5266	LABORATOIRES TRIANON INC	DIN OWNER	Y	Y	N	N		660 BOULEVARD INDUSTRIEL	BLAINVILLE	QUEBEC	CANADA	J7C 3V4	
47494	AOF10	5536	AHMED'S SUNFORCE INTERNATIONAL PRODUCTS INC.	DIN OWNER	Y	Y	Y	N	34	4847-219TH ST	LANGLEY	BRITISH COLUMBIA	CANADA	V5A 8C1	
47505		7066	PENTAPHARM LTD.	DIN OWNER	Y	Y	Y	N		3 GLENDINNING AVE.	TORONTO	ONTARIO	CANADA	M1W 3E2	
47506		7066	PENTAPHARM LTD.	DIN OWNER	Y	Y	Y	N		3 GLENDINNING AVE.	TORONTO	ONTARIO	CANADA	M1W 3E2	
47507		7066	PENTAPHARM LTD.	DIN OWNER	Y	Y	Y	N		3 GLENDINNING AVE.	TORONTO	ONTARIO	CANADA	M1W 3E2	
47508		7066	PENTAPHARM LTD.	DIN OWNER	Y	Y	Y	N		3 GLENDINNING AVE.	TORONTO	ONTARIO	CANADA	M1W 3E2	
47509		7066	PENTAPHARM LTD.	DIN OWNER	Y	Y	Y	N		3 GLENDINNING AVE.	TORONTO	ONTARIO	CANADA	M1W 3E2	
47516		7066	PENTAPHARM LTD.	DIN OWNER	Y	Y	Y	N		3 GLENDINNING AVE.	TORONTO	ONTARIO	CANADA	M1W 3E2	
47517		7066	PENTAPHARM LTD.	DIN OWNER	Y	Y	Y	N		3 GLENDINNING AVE.	TORONTO	ONTARIO	CANADA	M1W 3E2	
47529		7066	PENTAPHARM LTD.	DIN OWNER	Y	Y	Y	N		3 GLENDINNING AVE.	TORONTO	ONTARIO	CANADA	M1W 3E2	
47539	SIL07	5123	SABEX INC	DIN OWNER	Y	N	N	N		145 RUE JULES-LEGER	BOUCHERVILLE	QUEBEC	CANADA	J4B 7K8	
47545		7072	PHARMACAPS INC.	DIN OWNER	Y	Y	Y	N		1111 JEFFERSON AVENUE	ELIZABETH	NEW JERSEY	UNITED STATES	7207	
47555	ZBI08	7038	ASHBURY RESEARCH CORPORATION	DIN OWNER	Y	Y	Y	N		349 WILDCAT ROAD	TORONTO	ONTARIO	CANADA	M3J 2S3	
47751	BOW95	3782	BODY WISE INTERNATIONAL LLC	DIN OWNER	Y	N	N	N	SUITE 101	17101 ARMSTRONG AVE	IRVINE	CALIFORNIA	UNITED STATES	92614	
47760	BOW95	3782	BODY WISE INTERNATIONAL LLC	DIN OWNER	Y	N	N	N	SUITE 101	17101 ARMSTRONG AVE	IRVINE	CALIFORNIA	UNITED STATES	92614	
47861	ZBI08	7038	ASHBURY RESEARCH CORPORATION	DIN OWNER	Y	Y	Y	N		349 WILDCAT ROAD	TORONTO	ONTARIO	CANADA	M3J 2S3	
48025		7168	CHEMICAL INDUSTRIES (ALBERTA)	DIN OWNER	Y	N	N	N	105	1530-27 AVENUE N.E.	CALGARY	ALBERTA	CANADA	T2E 7S6	
48052	ABH08	3528	ABJ CUSTOM PACKAGING	DIN OWNER	Y	Y	Y	N		1379 COLBORNE STREET EAST	BRANTFORD	ONTARIO	CANADA	N3T 5M1	1748
48058		7135	MEYER ZALL LABORATORIES PTY LTD.	DIN OWNER	Y	N	N	N		PO BOX 1457	GEORGE	SAONE ET LOIRE	SOUTH AFRICA	6530	
48112	LCO07	4475	LABORATOIRE LALCO INC.	DIN OWNER	Y	N	N	N		1540-42 RUE NATIONALE	TERREBONNE	QUEBEC	CANADA	J6W 6M1	
48118		7140	INTERNATIONAL DIOXCIDE INC.	DIN OWNER	Y	Y	Y	N		136 CENTRAL AVENUE	CLARK	NEW JERSEY	UNITED STATES	7066	
48119	BOW95	3782	BODY WISE INTERNATIONAL LLC	DIN OWNER	Y	N	N	N	SUITE 101	17101 ARMSTRONG AVE	IRVINE	CALIFORNIA	UNITED STATES	92614	
48120	BOW95	3782	BODY WISE INTERNATIONAL LLC	DIN OWNER	Y	N	N	N	SUITE 101	17101 ARMSTRONG AVE	IRVINE	CALIFORNIA	UNITED STATES	92614	
48121	BOW95	3782	BODY WISE INTERNATIONAL LLC	DIN OWNER	Y	N	N	N	SUITE 101	17101 ARMSTRONG AVE	IRVINE	CALIFORNIA	UNITED STATES	92614	
48173		7066	PENTAPHARM LTD.	DIN OWNER	Y	Y	Y	N		3 GLENDINNING AVE.	TORONTO	ONTARIO	CANADA	M1W 3E2	
48174		7066	PENTAPHARM LTD.	DIN OWNER	Y	Y	Y	N		3 GLENDINNING AVE.	TORONTO	ONTARIO	CANADA	M1W 3E2	
48204		7150	CHEMTECH INTERNATIONAL INC.	DIN OWNER	Y	Y	Y	N		100-14351 BURROWS RD	RICHMOND	BRITISH COLUMBIA	CANADA	V6V 1K9	
48225	BTD08	3812	BECTON DICKINSON	DIN OWNER	Y	N	N	N		1 BECTON DRIVE	FRANKLIN LAKES	NEW JERSEY	UNITED STATES	7417	
48228		7156	RATITE PRODUCTS CANADA	DIN OWNER	Y	N	N	N		6244 SCOLLOS PL.	NANAIMO	BRITISH COLUMBIA	CANADA	V9V 1K9	
48328	LSW07	4532	LES LABORATOIRES SWISSE INC.	DIN OWNER	Y	Y	N	N		3560 RUE ISABELLE	BROSSARD	QUEBEC	CANADA	J4Y 2R3	
48332	XHF95	6823	LEINER HEALTH PRODUCTS INC.	DIN OWNER	Y	Y	Y	N		901 E. 233RD STREET	CARSON	CALIFORNIA	UNITED STATES	90745	
48347	SDR10	5088	"STANLEY PHARMACEUTICALS, A DIVISION OF VITA HEALTH PRODUCTS INC."	DIN OWNER	Y	N	N	N		150 BEGHIN AVENUE	WINNIPEG	MANITOBA	CANADA	R2J 3W2	
48398		7164	BEST SANITIZERS INC	DIN OWNER	Y	N	N	N		PO BOX 1360	PENN VALLEY	CALIFORNIA	UNITED STATES	95946	
48416	TCH07	3633	TECHNILAB PHARMA INC.	DIN OWNER	Y	N	N	N		17800 RUE LAPOINTE	MIRABEL	QUEBEC	CANADA	J7J 1P3	
48420	CQV95	5778	"CREATIVE LABS, INC. L.A. TAN SUNCARE PRODUCTS"	DIN OWNER	Y	Y	Y	N		1325 EAGANDALE COURT	EAGAN	MINNESOTA	UNITED STATES	55121	
48422		7167	HOPE PHARMACEUTICALS	DIN OWNER	Y	Y	Y	N	104	8260 EAST GELDING DRIVE	SCOTTSDALE	ARIZONA	UNITED STATES	85260	
48620	BPB60	3784	BEAPHAR B.V.	DIN OWNER	Y	Y	Y	N		DROSTENKAMP 3	8101 BX RAALTE	SAONE ET LOIRE	NETHERLANDS	8100 AA	7
48632		7174	NEW VISION NUTRITIONALS COMPANY	DIN OWNER	Y	N	N	N	1	3140 14TH AVE. N.E.	CALGARY	ALBERTA	CANADA	T2A 6J4	
48633		7174	NEW VISION NUTRITIONALS COMPANY	DIN OWNER	Y	N	N	N	1	3140 14TH AVE. N.E.	CALGARY	ALBERTA	CANADA	T2A 6J4	
48703		7178	"APOTEX INC., PRIVATE LABEL DIVISION"	DIN OWNER	Y	Y	Y	N		4100 WESTON ROAD	WESTON	ONTARIO	CANADA	M9L 2Y6	
48706		7178	"APOTEX INC., PRIVATE LABEL DIVISION"	DIN OWNER	Y	Y	Y	N		4100 WESTON ROAD	WESTON	ONTARIO	CANADA	M9L 2Y6	
48709		7178	"APOTEX INC., PRIVATE LABEL DIVISION"	DIN OWNER	Y	Y	Y	N		4100 WESTON ROAD	WESTON	ONTARIO	CANADA	M9L 2Y6	
48731	ZBE10	7037	WING QUON ENTERPRISES LTD.	DIN OWNER	Y	Y	N	N	105-115	6660 GRAYBAR ROAD	RICHMOND	BRITISH COLUMBIA	CANADA	V6W 1H9	
48840		7192	CHAMPION NUTRITION	DIN OWNER	Y	Y	Y	N		2615 STANWELL DRIVE	CONCORD	CALIFORNIA	UNITED STATES	94520	
48849	XFY10	6818	INTERNATIONAL LABORATORIES (CANADA) LTD.	DIN OWNER	Y	Y	Y	N		63 SKYLINE CR. NE	CALGARY	ALBERTA	CANADA	T2K 5X2	
48874	TPF07	5282	THERAPEUTIC FOODS CO.	DIN OWNER	Y	Y	Y	N		1212 LOUVAIN OUEST	MONTREAL	QUEBEC	CANADA	H4N 1G5	
48894	BAK08	3695	BAKER CUMMINS INC	DIN OWNER	Y	N	N	N	3900	1 PLACE VILLE-MARIE	MONTRÉAL	QUEBEC	CANADA	H3B 4M7	
48905		7195	"SIMONE PROTECTIVE PHARMACEUTICALS, INC."	DIN OWNER	Y	Y	Y	N		"123 FRANKLIN CORNER, ROAD #108"	LAWRENCEVILLE	NEW JERSEY	UNITED STATES	8648	
48906		7195	"SIMONE PROTECTIVE PHARMACEUTICALS, INC."	DIN OWNER	Y	Y	Y	N		"123 FRANKLIN CORNER, ROAD #108"	LAWRENCEVILLE	NEW JERSEY	UNITED STATES	8648	
48908		7195	"SIMONE PROTECTIVE PHARMACEUTICALS, INC."	DIN OWNER	Y	Y	Y	N		"123 FRANKLIN CORNER, ROAD #108"	LAWRENCEVILLE	NEW JERSEY	UNITED STATES	8648	
48927		7193	NUTRITION ZONE PRODUCTS INC.	DIN OWNER	Y	Y	Y	N		1383 LYNN VALLEY ROAD	NORTH VANCOUVER	BRITISH COLUMBIA	CANADA	V7J 2A7	
48928	ZBE10	7037	WING QUON ENTERPRISES LTD.	DIN OWNER	Y	Y	N	N	105-115	6660 GRAYBAR ROAD	RICHMOND	BRITISH COLUMBIA	CANADA	V6W 1H9	
48946		7201	MORTER HEALTHSYSTEM	DIN OWNER	Y	Y	Y	N		215 WEST POPLAR	ROGERS	ARKANSAS	UNITED STATES	72756	
48962	UCH95	5308	U S CHEMICAL CORPORATION	DIN OWNER	Y	N	N	N		316 HART STREET	WATERTOWN	WISCONSIN	UNITED STATES	53094	
48965	BOW95	3782	BODY WISE INTERNATIONAL LLC	DIN OWNER	Y	N	N	N	SUITE 101	17101 ARMSTRONG AVE	IRVINE	CALIFORNIA	UNITED STATES	92614	
48992		7209	KAMINS DERMATOLOGICS INC	DIN OWNER	Y	Y	Y	N		325 STILLVIEW AVENUE	POINTE CLAIRE	QUEBEC	CANADA	H9R 2Y6	
48993		7209	KAMINS DERMATOLOGICS INC	DIN OWNER	Y	Y	Y	N		325 STILLVIEW AVENUE	POINTE CLAIRE	QUEBEC	CANADA	H9R 2Y6	
49008		12428	SANOFI PASTEUR LIMITED	DIN OWNER	Y	Y	Y			1755 STEELES AVENUE WEST	TORONTO	ONTARIO	CANADA	M2R 3T4	
49052	JAA08	4401	JAAPHARM CANADA INC.	DIN OWNER	Y	Y	Y	N	BLDG B	510 ROWNTREE DAIRY RD.	WOODBRIDGE	ONTARIO	CANADA	L4L 8H2	
49053	CEU08	3872	CENTAUR PHARMACEUTICALS INC.	DIN OWNER	Y	Y	N	N		2-367 MICHENER ROAD	GUELPH	ONTARIO	CANADA	N1K 1E8	
49054	CEU08	3872	CENTAUR PHARMACEUTICALS INC.	DIN OWNER	Y	Y	N	N		2-367 MICHENER ROAD	GUELPH	ONTARIO	CANADA	N1K 1E8	
49071	XHF95	6823	LEINER HEALTH PRODUCTS INC.	DIN OWNER	Y	Y	Y	N		901 E. 233RD STREET	CARSON	CALIFORNIA	UNITED STATES	90745	
49072	XHF95	6823	LEINER HEALTH PRODUCTS INC.	DIN OWNER	Y	Y	Y	N		901 E. 233RD STREET	CARSON	CALIFORNIA	UNITED STATES	90745	
49073	XHF95	6823	LEINER HEALTH PRODUCTS INC.	DIN OWNER	Y	Y	Y	N		901 E. 233RD STREET	CARSON	CALIFORNIA	UNITED STATES	90745	
49074	XHF95	6823	LEINER HEALTH PRODUCTS INC.	DIN OWNER	Y	Y	Y	N		901 E. 233RD STREET	CARSON	CALIFORNIA	UNITED STATES	90745	
49077	XHF95	6823	LEINER HEALTH PRODUCTS INC.	DIN OWNER	Y	Y	Y	N		901 E. 233RD STREET	CARSON	CALIFORNIA	UNITED STATES	90745	
49078	XHF95	6823	LEINER HEALTH PRODUCTS INC.	DIN OWNER	Y	Y	Y	N		901 E. 233RD STREET	CARSON	CALIFORNIA	UNITED STATES	90745	
49081	XHF95	6823	LEINER HEALTH PRODUCTS INC.	DIN OWNER	Y	Y	Y	N		901 E. 233RD STREET	CARSON	CALIFORNIA	UNITED STATES	90745	
49083	XHF95	6823	LEINER HEALTH PRODUCTS INC.	DIN OWNER	Y	Y	Y	N		901 E. 233RD STREET	CARSON	CALIFORNIA	UNITED STATES	90745	
49119	SIL07	5123	SABEX INC	DIN OWNER	Y	N	N	N		145 RUE JULES-LEGER	BOUCHERVILLE	QUEBEC	CANADA	J4B 7K8	
49178	ZBE10	7037	WING QUON ENTERPRISES LTD.	DIN OWNER	Y	Y	N	N	105-115	6660 GRAYBAR ROAD	RICHMOND	BRITISH COLUMBIA	CANADA	V6W 1H9	
49239	PMS07	3550	PHARMASCIENCE INC	DIN OWNER	Y	Y	Y	N	100	"6111, ROYALMOUNT AVENUE"	MONTREAL	QUEBEC	CANADA	H4P 2T4	
49246	VLH07	5362	LUNDBECK CANADA INC	DIN OWNER	Y	N	Y	N		"2600 ALFRED-NOBEL, SUITE 400"	MONTREAL	QUEBEC	CANADA	H4S 0A9	
49285	CRI08	3962	CLASSICAL REMEDIA LTD	DIN OWNER	Y	Y	Y	N		412 DUNDAS STREET WEST	TORONTO	ONTARIO	CANADA	M5T 1G7	
49306	WTR09	5450	WESTCAN PHARMACEUTICALS LTD.	DIN OWNER	Y	N	N	N		150 BEGHIN AVENUE	WINNIPEG	MANITOBA	CANADA	R2J 3W2	
49311	ZBE10	7037	WING QUON ENTERPRISES LTD.	DIN OWNER	Y	Y	N	N	105-115	6660 GRAYBAR ROAD	RICHMOND	BRITISH COLUMBIA	CANADA	V6W 1H9	
49458	CLV95	3919	COLGATE ORAL PHARMACEUTICALS INC	DIN OWNER	Y	N	N	N		300 PARK AVENUE	NEW YORK	NEW YORK	UNITED STATES	10022	
49459	CLV95	3919	COLGATE ORAL PHARMACEUTICALS INC	DIN OWNER	Y	N	N	N		300 PARK AVENUE	NEW YORK	NEW YORK	UNITED STATES	10022	
49534	ABH08	3528	ABJ CUSTOM PACKAGING	DIN OWNER	Y	Y	Y	N		1379 COLBORNE STREET EAST	BRANTFORD	ONTARIO	CANADA	N3T 5M1	1748
49552		7232	SELF HEALTH RESOURCE CENTRE	DIN OWNER	Y	Y	Y	N		14027 - 63 STREET	EDMONTON	ALBERTA	CANADA	T5A 1R6	
49572	NXP08	4828	NU-PHARM INC	DIN OWNER	Y	N	Y	N		"1165 CREDITSTONE RD, UNIT 2"	VAUGHAN	ONTARIO	CANADA	L4K 4N7	
49593	DPC07	4065	DOMINION PHARMACAL	DIN OWNER	Y	Y	Y	N	SUITE 100	"6111, AVENUE ROYALMOUNT"	MONTREAL	QUEBEC	CANADA	H4P 2T4	
49624	XHF95	6823	LEINER HEALTH PRODUCTS INC.	DIN OWNER	Y	Y	Y	N		901 E. 233RD STREET	CARSON	CALIFORNIA	UNITED STATES	90745	
49625	XHF95	6823	LEINER HEALTH PRODUCTS INC.	DIN OWNER	Y	Y	Y	N		901 E. 233RD STREET	CARSON	CALIFORNIA	UNITED STATES	90745	
49626	XHF95	6823	LEINER HEALTH PRODUCTS INC.	DIN OWNER	Y	Y	Y	N		901 E. 233RD STREET	CARSON	CALIFORNIA	UNITED STATES	90745	
49627	XHF95	6823	LEINER HEALTH PRODUCTS INC.	DIN OWNER	Y	Y	Y	N		901 E. 233RD STREET	CARSON	CALIFORNIA	UNITED STATES	90745	
49628	XHF95	6823	LEINER HEALTH PRODUCTS INC.	DIN OWNER	Y	Y	Y	N		901 E. 233RD STREET	CARSON	CALIFORNIA	UNITED STATES	90745	
49629	XHF95	6823	LEINER HEALTH PRODUCTS INC.	DIN OWNER	Y	Y	Y	N		901 E. 233RD STREET	CARSON	CALIFORNIA	UNITED STATES	90745	
49644		7201	MORTER HEALTHSYSTEM	DIN OWNER	Y	Y	Y	N		215 WEST POPLAR	ROGERS	ARKANSAS	UNITED STATES	72756	
49656		7201	MORTER HEALTHSYSTEM	DIN OWNER	Y	Y	Y	N		215 WEST POPLAR	ROGERS	ARKANSAS	UNITED STATES	72756	
49781	DPC07	4065	DOMINION PHARMACAL	DIN OWNER	Y	Y	Y	N	SUITE 100	"6111, AVENUE ROYALMOUNT"	MONTREAL	QUEBEC	CANADA	H4P 2T4	
49783	DPC07	4065	DOMINION PHARMACAL	DIN OWNER	Y	Y	Y	N	SUITE 100	"6111, AVENUE ROYALMOUNT"	MONTREAL	QUEBEC	CANADA	H4P 2T4	
49790	DPC07	4065	DOMINION PHARMACAL	DIN OWNER	Y	Y	Y	N	SUITE 100	"6111, AVENUE ROYALMOUNT"	MONTREAL	QUEBEC	CANADA	H4P 2T4	
49791	DPC07	4065	DOMINION PHARMACAL	DIN OWNER	Y	Y	Y	N	SUITE 100	"6111, AVENUE ROYALMOUNT"	MONTREAL	QUEBEC	CANADA	H4P 2T4	
49814	NXP08	4828	NU-PHARM INC	DIN OWNER	Y	N	Y	N		"1165 CREDITSTONE RD, UNIT 2"	VAUGHAN	ONTARIO	CANADA	L4K 4N7	
49815	NXP08	4828	NU-PHARM INC	DIN OWNER	Y	N	Y	N		"1165 CREDITSTONE RD, UNIT 2"	VAUGHAN	ONTARIO	CANADA	L4K 4N7	
49918	YBW07	7036	LES HERBES PURES J.B. LTEE	DIN OWNER	Y	Y	Y	N		351 10E AVENUE SUD	SHERBROOKE	QUEBEC	CANADA	J1G 2R8	
49971	CRI08	3962	CLASSICAL REMEDIA LTD	DIN OWNER	Y	Y	Y	N		412 DUNDAS STREET WEST	TORONTO	ONTARIO	CANADA	M5T 1G7	
49976		7232	SELF HEALTH RESOURCE CENTRE	DIN OWNER	Y	Y	Y	N		14027 - 63 STREET	EDMONTON	ALBERTA	CANADA	T5A 1R6	
49987	BOW95	3782	BODY WISE INTERNATIONAL LLC	DIN OWNER	Y	N	N	N	SUITE 101	17101 ARMSTRONG AVE	IRVINE	CALIFORNIA	UNITED STATES	92614	
49988	BOW95	3782	BODY WISE INTERNATIONAL LLC	DIN OWNER	Y	N	N	N	SUITE 101	17101 ARMSTRONG AVE	IRVINE	CALIFORNIA	UNITED STATES	92614	
49989	BOW95	3782	BODY WISE INTERNATIONAL LLC	DIN OWNER	Y	N	N	N	SUITE 101	17101 ARMSTRONG AVE	IRVINE	CALIFORNIA	UNITED STATES	92614	
50033	CBQ08	5708	COMPLEX PHARMA INC.	DIN OWNER	Y	Y	Y	N	6	255 SPINNAKER WAY	CONCORD	ONTARIO	CANADA	L4K 4J1	
50039	XHF95	6823	LEINER HEALTH PRODUCTS INC.	DIN OWNER	Y	Y	Y	N		901 E. 233RD STREET	CARSON	CALIFORNIA	UNITED STATES	90745	
50063		7269	SM BOUCHARD	DIN OWNER	Y	Y	Y	N		1775 55E AVENUE	DORVAL	QUEBEC	CANADA	H9P 2W3	
50066		7271	SUCAN INTERNATIONAL TRADING COMPANY	DIN OWNER	Y	Y	Y	N	16	6649 CHRISTOPHE COLOMB	MONTREAL	QUEBEC	CANADA	H2S 2H1	942
50131	LMO08	4515	LIWARD MARKETING INC.	DIN OWNER	Y	Y	Y	N		MARKHAM INDUSTRIAL PARK	MARKHAM	ONTARIO	CANADA	L3R 6G4	3074
50139		9448	HOLLISTER-STIER LABORATORIES LLC	DIN OWNER	Y	N	N	N		3525 NORTH REGAL STREET	SPOKANE	WASHINGTON	UNITED STATES	99207-5788	
50213		7201	MORTER HEALTHSYSTEM	DIN OWNER	Y	Y	Y	N		215 WEST POPLAR	ROGERS	ARKANSAS	UNITED STATES	72756	
50221	NXP08	4828	NU-PHARM INC	DIN OWNER	Y	N	Y	N		"1165 CREDITSTONE RD, UNIT 2"	VAUGHAN	ONTARIO	CANADA	L4K 4N7	
50298	ZBI08	7038	ASHBURY RESEARCH CORPORATION	DIN OWNER	Y	Y	Y	N		349 WILDCAT ROAD	TORONTO	ONTARIO	CANADA	M3J 2S3	
50325	ALC08	3594	ALCON CANADA INC	DIN OWNER	Y	Y	Y	N		2665 MEADOWPINE BLVD	MISSISSAUGA	ONTARIO	CANADA	L5N 8C7	
50336	NXP08	4828	NU-PHARM INC	DIN OWNER	Y	N	Y	N		"1165 CREDITSTONE RD, UNIT 2"	VAUGHAN	ONTARIO	CANADA	L4K 4N7	
50341	DPC07	4065	DOMINION PHARMACAL	DIN OWNER	Y	Y	Y	N	SUITE 100	"6111, AVENUE ROYALMOUNT"	MONTREAL	QUEBEC	CANADA	H4P 2T4	
50358	ANB95	3612	ANABOLIC LABORATORIES INC.	DIN OWNER	Y	N	Y	N		26021 COMMERCENTRE DR	LAKE FOREST	CALIFORNIA	UNITED STATES	92630-8853	
50364		5099	SCOTT PAPER LIMITED	DIN OWNER	Y	N	N	N	200	1900  MINNESOTA COURT	MISSISSAUGA	ONTARIO	CANADA	L5N 3C9	
50371		7359	"P.S.W.C. CO., INC."	DIN OWNER	Y	N	Y	N	# B	14250 CENTRAL AVE	CHINO	CALIFORNIA	UNITED STATES	91710	
50372		7359	"P.S.W.C. CO., INC."	DIN OWNER	Y	N	Y	N	# B	14250 CENTRAL AVE	CHINO	CALIFORNIA	UNITED STATES	91710	
50375		7364	AMERIFIT INC.	DIN OWNER	Y	Y	Y	N	SUITE 102	55 SEBETHE DRIVE	CROMWELL	CONNECTICUT	UNITED STATES	6416	
50381		9334	"OMNI NUTRACEUTICALS, INC."	DIN OWNER	Y	N	N	N		10549 W. JEFFERSON BLVD.	CULVER CITY	CALIFORNIA	UNITED STATES	90232	
50382		7358	4HEALTH INC.	DIN OWNER	Y	Y	Y	N		5485 CONESTOGA COURT	BOULDER	COLORADO	UNITED STATES	80301	
50383		9334	"OMNI NUTRACEUTICALS, INC."	DIN OWNER	Y	N	N	N		10549 W. JEFFERSON BLVD.	CULVER CITY	CALIFORNIA	UNITED STATES	90232	
50384		9334	"OMNI NUTRACEUTICALS, INC."	DIN OWNER	Y	N	N	N		10549 W. JEFFERSON BLVD.	CULVER CITY	CALIFORNIA	UNITED STATES	90232	
50388	BOW95	3782	BODY WISE INTERNATIONAL LLC	DIN OWNER	Y	N	N	N	SUITE 101	17101 ARMSTRONG AVE	IRVINE	CALIFORNIA	UNITED STATES	92614	
50430	SFK08	5205	SEAFORD PHARMACEUTICALS INC	DIN OWNER	Y	Y	Y	N	UNIT 28	1530 DREW ROAD	MISSISSAUGA	ONTARIO	CANADA	L5S 1W8	
50444	JMP08	4413	JOHNSON & JOHNSON MEDICAL PRODUCTS	DIN OWNER	Y	Y	Y	N		200 WHITEHALL DRIVE	MARKHAM	ONTARIO	CANADA	L3R 0T5	
50445	JMP08	4413	JOHNSON & JOHNSON MEDICAL PRODUCTS	DIN OWNER	Y	Y	Y	N		200 WHITEHALL DRIVE	MARKHAM	ONTARIO	CANADA	L3R 0T5	
50446	JMP08	4413	JOHNSON & JOHNSON MEDICAL PRODUCTS	DIN OWNER	Y	Y	Y	N		200 WHITEHALL DRIVE	MARKHAM	ONTARIO	CANADA	L3R 0T5	
50447	JMP08	4413	JOHNSON & JOHNSON MEDICAL PRODUCTS	DIN OWNER	Y	Y	Y	N		200 WHITEHALL DRIVE	MARKHAM	ONTARIO	CANADA	L3R 0T5	
50448	JMP08	4413	JOHNSON & JOHNSON MEDICAL PRODUCTS	DIN OWNER	Y	Y	Y	N		200 WHITEHALL DRIVE	MARKHAM	ONTARIO	CANADA	L3R 0T5	
50482	NXP08	4828	NU-PHARM INC	DIN OWNER	Y	N	Y	N		"1165 CREDITSTONE RD, UNIT 2"	VAUGHAN	ONTARIO	CANADA	L4K 4N7	
50506		7359	"P.S.W.C. CO., INC."	DIN OWNER	Y	N	Y	N	# B	14250 CENTRAL AVE	CHINO	CALIFORNIA	UNITED STATES	91710	
50555		7066	PENTAPHARM LTD.	DIN OWNER	Y	Y	Y	N		3 GLENDINNING AVE.	TORONTO	ONTARIO	CANADA	M1W 3E2	
50556		7066	PENTAPHARM LTD.	DIN OWNER	Y	Y	Y	N		3 GLENDINNING AVE.	TORONTO	ONTARIO	CANADA	M1W 3E2	
50557		7066	PENTAPHARM LTD.	DIN OWNER	Y	Y	Y	N		3 GLENDINNING AVE.	TORONTO	ONTARIO	CANADA	M1W 3E2	
50558		7066	PENTAPHARM LTD.	DIN OWNER	Y	Y	Y	N		3 GLENDINNING AVE.	TORONTO	ONTARIO	CANADA	M1W 3E2	
50559		7066	PENTAPHARM LTD.	DIN OWNER	Y	Y	Y	N		3 GLENDINNING AVE.	TORONTO	ONTARIO	CANADA	M1W 3E2	
50560		7066	PENTAPHARM LTD.	DIN OWNER	Y	Y	Y	N		3 GLENDINNING AVE.	TORONTO	ONTARIO	CANADA	M1W 3E2	
50561		7066	PENTAPHARM LTD.	DIN OWNER	Y	Y	Y	N		3 GLENDINNING AVE.	TORONTO	ONTARIO	CANADA	M1W 3E2	
50562	DPC07	4065	DOMINION PHARMACAL	DIN OWNER	Y	Y	Y	N	SUITE 100	"6111, AVENUE ROYALMOUNT"	MONTREAL	QUEBEC	CANADA	H4P 2T4	
50564		8621	SMITHS MEDICAL CANADA LTD.	DIN OWNER	Y	N	N	N		301 GOUGH RD.	MARKHAM	ONTARIO	CANADA	L3R 4Y8	
50565		8621	SMITHS MEDICAL CANADA LTD.	DIN OWNER	Y	N	N	N		301 GOUGH RD.	MARKHAM	ONTARIO	CANADA	L3R 4Y8	
50567		11642	HOSPIRA HEALTHCARE CORPORATION	DIN OWNER	Y	Y	Y			17300 TRANS-CANADA HIGHWAY	KIRKLAND	QUEBEC	CANADA	H9J 2M5	
50568		11642	HOSPIRA HEALTHCARE CORPORATION	DIN OWNER	Y	Y	Y			17300 TRANS-CANADA HIGHWAY	KIRKLAND	QUEBEC	CANADA	H9J 2M5	
50595	DPC07	4065	DOMINION PHARMACAL	DIN OWNER	Y	Y	Y	N	SUITE 100	"6111, AVENUE ROYALMOUNT"	MONTREAL	QUEBEC	CANADA	H4P 2T4	
50601	DPC07	4065	DOMINION PHARMACAL	DIN OWNER	Y	Y	Y	N	SUITE 100	"6111, AVENUE ROYALMOUNT"	MONTREAL	QUEBEC	CANADA	H4P 2T4	
50610		7201	MORTER HEALTHSYSTEM	DIN OWNER	Y	Y	Y	N		215 WEST POPLAR	ROGERS	ARKANSAS	UNITED STATES	72756	
50629		7520	GREER LABORATORIES INC	DIN OWNER	Y	Y	Y	N		639 NUWAY CIRCLE	LENOIR	NORTH CAROLINA	UNITED STATES	28645-0800	800
50630		7520	GREER LABORATORIES INC	DIN OWNER	Y	Y	Y	N		639 NUWAY CIRCLE	LENOIR	NORTH CAROLINA	UNITED STATES	28645-0800	800
50658		7556	SWISS AMERICAN PRODUCTS INC.	DIN OWNER	Y	Y	Y	N	SUITE #126	2055 LUNA ROAD	CARROLLTON	TEXAS	UNITED STATES	75006	
50659		7556	SWISS AMERICAN PRODUCTS INC.	DIN OWNER	Y	Y	Y	N	SUITE #126	2055 LUNA ROAD	CARROLLTON	TEXAS	UNITED STATES	75006	
50660	NXP08	4828	NU-PHARM INC	DIN OWNER	Y	N	Y	N		"1165 CREDITSTONE RD, UNIT 2"	VAUGHAN	ONTARIO	CANADA	L4K 4N7	
50712	DPC07	4065	DOMINION PHARMACAL	DIN OWNER	Y	Y	Y	N	SUITE 100	"6111, AVENUE ROYALMOUNT"	MONTREAL	QUEBEC	CANADA	H4P 2T4	
50713	DPC07	4065	DOMINION PHARMACAL	DIN OWNER	Y	Y	Y	N	SUITE 100	"6111, AVENUE ROYALMOUNT"	MONTREAL	QUEBEC	CANADA	H4P 2T4	
50714	DPC07	4065	DOMINION PHARMACAL	DIN OWNER	Y	Y	Y	N	SUITE 100	"6111, AVENUE ROYALMOUNT"	MONTREAL	QUEBEC	CANADA	H4P 2T4	
50721	AST95	5561	ASTRA PHARMACEUTICALS L.P.	DIN OWNER	Y	N	N	N	DCC-1	1800 CONCORD PIKE	WILMINGTON	DELAWARE	UNITED STATES	19850-5437	
50742		7709	SMORDINS DISPENSARY LTD.	DIN OWNER	Y	Y	Y	N		8704A MEADOWLARK RD.	EDMONTON	ALBERTA	CANADA	T5P 4J5	
50752	NSL95	4797	"NU SKIN INTERNATIONAL, INC."	DIN OWNER	Y	N	N	N		75 WEST CENTER STREET	PROVO	UTAH	UNITED STATES	84601	
50762		5342	VET A MIX INC.	DIN OWNER	Y	Y	Y	N		604 WEST THOMAS AVENUE	SHENANDOAH	IOWA	UNITED STATES	51601	
50763		5342	VET A MIX INC.	DIN OWNER	Y	Y	Y	N		604 WEST THOMAS AVENUE	SHENANDOAH	IOWA	UNITED STATES	51601	
50764		5342	VET A MIX INC.	DIN OWNER	Y	Y	Y	N		604 WEST THOMAS AVENUE	SHENANDOAH	IOWA	UNITED STATES	51601	
50826	PMS07	3550	PHARMASCIENCE INC	DIN OWNER	Y	Y	Y	N	100	"6111, ROYALMOUNT AVENUE"	MONTREAL	QUEBEC	CANADA	H4P 2T4	
50856	LZI95	6236	LONZA INC.	DIN OWNER	Y	Y	N	N		90 BOROLINE ROAD	ALLENDALE	NEW JERSEY	UNITED STATES	7401	
50859	NOP08	4773	NOVOPHARM LIMITED	DIN OWNER	Y	Y	N	N		30 NOVOPHARM COURT	TORONTO	ONTARIO	CANADA	M1B 2K9	
50860	NOP08	4773	NOVOPHARM LIMITED	DIN OWNER	Y	Y	N	N		30 NOVOPHARM COURT	TORONTO	ONTARIO	CANADA	M1B 2K9	
50864	SFK08	5205	SEAFORD PHARMACEUTICALS INC	DIN OWNER	Y	Y	Y	N	UNIT 28	1530 DREW ROAD	MISSISSAUGA	ONTARIO	CANADA	L5S 1W8	
50884	PMS07	3550	PHARMASCIENCE INC	DIN OWNER	Y	Y	Y	N	100	"6111, ROYALMOUNT AVENUE"	MONTREAL	QUEBEC	CANADA	H4P 2T4	
50888	PMS07	3550	PHARMASCIENCE INC	DIN OWNER	Y	Y	Y	N	100	"6111, ROYALMOUNT AVENUE"	MONTREAL	QUEBEC	CANADA	H4P 2T4	
50889	PMS07	3550	PHARMASCIENCE INC	DIN OWNER	Y	Y	Y	N	100	"6111, ROYALMOUNT AVENUE"	MONTREAL	QUEBEC	CANADA	H4P 2T4	
50891	PMS07	3550	PHARMASCIENCE INC	DIN OWNER	Y	Y	Y	N	100	"6111, ROYALMOUNT AVENUE"	MONTREAL	QUEBEC	CANADA	H4P 2T4	
50892	PMS07	3550	PHARMASCIENCE INC	DIN OWNER	Y	Y	Y	N	100	"6111, ROYALMOUNT AVENUE"	MONTREAL	QUEBEC	CANADA	H4P 2T4	
50893	PMS07	3550	PHARMASCIENCE INC	DIN OWNER	Y	Y	Y	N	100	"6111, ROYALMOUNT AVENUE"	MONTREAL	QUEBEC	CANADA	H4P 2T4	
50902	PMS07	3550	PHARMASCIENCE INC	DIN OWNER	Y	Y	Y	N	100	"6111, ROYALMOUNT AVENUE"	MONTREAL	QUEBEC	CANADA	H4P 2T4	
50903	PMS07	3550	PHARMASCIENCE INC	DIN OWNER	Y	Y	Y	N	100	"6111, ROYALMOUNT AVENUE"	MONTREAL	QUEBEC	CANADA	H4P 2T4	
50904	PMS07	3550	PHARMASCIENCE INC	DIN OWNER	Y	Y	Y	N	100	"6111, ROYALMOUNT AVENUE"	MONTREAL	QUEBEC	CANADA	H4P 2T4	
50905	PMS07	3550	PHARMASCIENCE INC	DIN OWNER	Y	Y	Y	N	100	"6111, ROYALMOUNT AVENUE"	MONTREAL	QUEBEC	CANADA	H4P 2T4	
50907	PMS07	3550	PHARMASCIENCE INC	DIN OWNER	Y	Y	Y	N	100	"6111, ROYALMOUNT AVENUE"	MONTREAL	QUEBEC	CANADA	H4P 2T4	
50908	PMS07	3550	PHARMASCIENCE INC	DIN OWNER	Y	Y	Y	N	100	"6111, ROYALMOUNT AVENUE"	MONTREAL	QUEBEC	CANADA	H4P 2T4	
50910	PMS07	3550	PHARMASCIENCE INC	DIN OWNER	Y	Y	Y	N	100	"6111, ROYALMOUNT AVENUE"	MONTREAL	QUEBEC	CANADA	H4P 2T4	
50990	PGA08	4911	PROCTER & GAMBLE INC	DIN OWNER	Y	N	N	N		4711 YONGE STREET	TORONTO	ONTARIO	CANADA	M2N 6K8	
50991		4076	JACKS CANADA INC.	DIN OWNER	Y	Y	Y	N	UNIT 7	4850 BOURG STREET	ST-LAURENT	QUEBEC	CANADA	H4T 1J2	
51006		7924	VITA PLUS INDUSTRIES INC.	DIN OWNER	Y	Y	Y	N		21B 953 EAST SAHARA AVE.	LAS VEGAS	NEVADA	UNITED STATES	89104	
51023	PGA08	4911	PROCTER & GAMBLE INC	DIN OWNER	Y	N	N	N		4711 YONGE STREET	TORONTO	ONTARIO	CANADA	M2N 6K8	
51032	OMG07	4852	OMEGA LABORATORIES LTD	DIN OWNER	Y	Y	Y	N		11177 HAMON	MONTREAL	QUEBEC	CANADA	H3M 3E4	
51045	DPC07	4065	DOMINION PHARMACAL	DIN OWNER	Y	Y	Y	N	SUITE 100	"6111, AVENUE ROYALMOUNT"	MONTREAL	QUEBEC	CANADA	H4P 2T4	
51057		7923	SKLAR INSTRUMENTS	DIN OWNER	Y	Y	Y	N		889 S. MATLACK ST.	WEST CHESTER	PENNSYLVANIA	UNITED STATES	19382	
51059		7923	SKLAR INSTRUMENTS	DIN OWNER	Y	Y	Y	N		889 S. MATLACK ST.	WEST CHESTER	PENNSYLVANIA	UNITED STATES	19382	
51081		8022	SOUTH ATLANTIC INDUSTRIES INC.	DIN OWNER	Y	Y	Y	N		52 PELHAM DAVIS CIRCLE	GREENVILLE	SOUTH CAROLINA	UNITED STATES	29615	
51113		8061	TRILLIUM INTERNATIONAL TRADING GROUP LTD.	DIN OWNER	Y	Y	Y	N	201	5309 LANE ST.	BURNABY	BRITISH COLUMBIA	CANADA	V5H 2H4	
51130		7619	LICHTWER HEALTHCARE GMBH & CO KG	DIN OWNER	Y	N	N	N		WALLENRODER STRASSE 12-14	BERLIN	SAONE ET LOIRE	GERMANY	13435	
51135	ABH08	3528	ABJ CUSTOM PACKAGING	DIN OWNER	Y	Y	Y	N		1379 COLBORNE STREET EAST	BRANTFORD	ONTARIO	CANADA	N3T 5M1	1748
51136	ABH08	3528	ABJ CUSTOM PACKAGING	DIN OWNER	Y	Y	Y	N		1379 COLBORNE STREET EAST	BRANTFORD	ONTARIO	CANADA	N3T 5M1	1748
51137	ABH08	3528	ABJ CUSTOM PACKAGING	DIN OWNER	Y	Y	Y	N		1379 COLBORNE STREET EAST	BRANTFORD	ONTARIO	CANADA	N3T 5M1	1748
51138	ABH08	3528	ABJ CUSTOM PACKAGING	DIN OWNER	Y	Y	Y	N		1379 COLBORNE STREET EAST	BRANTFORD	ONTARIO	CANADA	N3T 5M1	1748
51139	ABH08	3528	ABJ CUSTOM PACKAGING	DIN OWNER	Y	Y	Y	N		1379 COLBORNE STREET EAST	BRANTFORD	ONTARIO	CANADA	N3T 5M1	1748
51140	AZC08	9307	ASTRAZENECA CANADA INC	DIN OWNER	Y	N	Y	N		"1004 MIDDLEGATE ROAD, SUITE 5000"	MISSISSAUGA	ONTARIO	CANADA	L4Y 1M4	
51145	ZBE10	7037	WING QUON ENTERPRISES LTD.	DIN OWNER	Y	Y	N	N	105-115	6660 GRAYBAR ROAD	RICHMOND	BRITISH COLUMBIA	CANADA	V6W 1H9	
51149		7066	PENTAPHARM LTD.	DIN OWNER	Y	Y	Y	N		3 GLENDINNING AVE.	TORONTO	ONTARIO	CANADA	M1W 3E2	
51152		7201	MORTER HEALTHSYSTEM	DIN OWNER	Y	Y	Y	N		215 WEST POPLAR	ROGERS	ARKANSAS	UNITED STATES	72756	
51206		8093	COLLOIDAL PRODUCTS INC.	DIN OWNER	Y	Y	Y	N		"2655 LEJEUNE RD., PENTHOUSE 2"	CORAL GABLES	FLORIDA	UNITED STATES	33134	
51278	SFK08	5205	SEAFORD PHARMACEUTICALS INC	DIN OWNER	Y	Y	Y	N	UNIT 28	1530 DREW ROAD	MISSISSAUGA	ONTARIO	CANADA	L5S 1W8	
51363	JPC10	4415	JAMP PHARMA CORPORATION	DIN OWNER	Y	Y	Y	N		1310 RUE NOBEL	BOUCHERVILLE	QUEBEC	CANADA	J4B 5H3	
51471	NXP08	4828	NU-PHARM INC	DIN OWNER	Y	N	Y	N		"1165 CREDITSTONE RD, UNIT 2"	VAUGHAN	ONTARIO	CANADA	L4K 4N7	
51472	NXP08	4828	NU-PHARM INC	DIN OWNER	Y	N	Y	N		"1165 CREDITSTONE RD, UNIT 2"	VAUGHAN	ONTARIO	CANADA	L4K 4N7	
51727	CLV95	3919	COLGATE ORAL PHARMACEUTICALS INC	DIN OWNER	Y	N	N	N		300 PARK AVENUE	NEW YORK	NEW YORK	UNITED STATES	10022	
51738	ZBE10	7037	WING QUON ENTERPRISES LTD.	DIN OWNER	Y	Y	N	N	105-115	6660 GRAYBAR ROAD	RICHMOND	BRITISH COLUMBIA	CANADA	V6W 1H9	
51740	ZBE10	7037	WING QUON ENTERPRISES LTD.	DIN OWNER	Y	Y	N	N	105-115	6660 GRAYBAR ROAD	RICHMOND	BRITISH COLUMBIA	CANADA	V6W 1H9	
51909		8121	MEDIMMUNE LLC	DIN OWNER	Y	Y	Y	N	ACCOUNTS PAYABLE	ONE MEDIMMUNE WAY	GAITHERSBURG	MARYLAND	UNITED STATES	20878	
51910		8121	MEDIMMUNE LLC	DIN OWNER	Y	Y	Y	N	ACCOUNTS PAYABLE	ONE MEDIMMUNE WAY	GAITHERSBURG	MARYLAND	UNITED STATES	20878	
51911		8121	MEDIMMUNE LLC	DIN OWNER	Y	Y	Y	N	ACCOUNTS PAYABLE	ONE MEDIMMUNE WAY	GAITHERSBURG	MARYLAND	UNITED STATES	20878	
51919	CRI08	3962	CLASSICAL REMEDIA LTD	DIN OWNER	Y	Y	Y	N		412 DUNDAS STREET WEST	TORONTO	ONTARIO	CANADA	M5T 1G7	
52014		7066	PENTAPHARM LTD.	DIN OWNER	Y	Y	Y	N		3 GLENDINNING AVE.	TORONTO	ONTARIO	CANADA	M1W 3E2	
52015		7066	PENTAPHARM LTD.	DIN OWNER	Y	Y	Y	N		3 GLENDINNING AVE.	TORONTO	ONTARIO	CANADA	M1W 3E2	
52016		7066	PENTAPHARM LTD.	DIN OWNER	Y	Y	Y	N		3 GLENDINNING AVE.	TORONTO	ONTARIO	CANADA	M1W 3E2	
52017		7066	PENTAPHARM LTD.	DIN OWNER	Y	Y	Y	N		3 GLENDINNING AVE.	TORONTO	ONTARIO	CANADA	M1W 3E2	
52018		7066	PENTAPHARM LTD.	DIN OWNER	Y	Y	Y	N		3 GLENDINNING AVE.	TORONTO	ONTARIO	CANADA	M1W 3E2	
52019		7066	PENTAPHARM LTD.	DIN OWNER	Y	Y	Y	N		3 GLENDINNING AVE.	TORONTO	ONTARIO	CANADA	M1W 3E2	
52020		7066	PENTAPHARM LTD.	DIN OWNER	Y	Y	Y	N		3 GLENDINNING AVE.	TORONTO	ONTARIO	CANADA	M1W 3E2	
52021		7066	PENTAPHARM LTD.	DIN OWNER	Y	Y	Y	N		3 GLENDINNING AVE.	TORONTO	ONTARIO	CANADA	M1W 3E2	
52022		7066	PENTAPHARM LTD.	DIN OWNER	Y	Y	Y	N		3 GLENDINNING AVE.	TORONTO	ONTARIO	CANADA	M1W 3E2	
52023		7066	PENTAPHARM LTD.	DIN OWNER	Y	Y	Y	N		3 GLENDINNING AVE.	TORONTO	ONTARIO	CANADA	M1W 3E2	
52024		7066	PENTAPHARM LTD.	DIN OWNER	Y	Y	Y	N		3 GLENDINNING AVE.	TORONTO	ONTARIO	CANADA	M1W 3E2	
52025		7066	PENTAPHARM LTD.	DIN OWNER	Y	Y	Y	N		3 GLENDINNING AVE.	TORONTO	ONTARIO	CANADA	M1W 3E2	
52030		7066	PENTAPHARM LTD.	DIN OWNER	Y	Y	Y	N		3 GLENDINNING AVE.	TORONTO	ONTARIO	CANADA	M1W 3E2	
52035		7066	PENTAPHARM LTD.	DIN OWNER	Y	Y	Y	N		3 GLENDINNING AVE.	TORONTO	ONTARIO	CANADA	M1W 3E2	
52037		7066	PENTAPHARM LTD.	DIN OWNER	Y	Y	Y	N		3 GLENDINNING AVE.	TORONTO	ONTARIO	CANADA	M1W 3E2	
52038		7066	PENTAPHARM LTD.	DIN OWNER	Y	Y	Y	N		3 GLENDINNING AVE.	TORONTO	ONTARIO	CANADA	M1W 3E2	
52039		7066	PENTAPHARM LTD.	DIN OWNER	Y	Y	Y	N		3 GLENDINNING AVE.	TORONTO	ONTARIO	CANADA	M1W 3E2	
52141	XYG07	6837	LABORATOIRES CONFAB INC	DIN OWNER	Y	Y	Y	N		4355 BOUL. SIR WILFRID LAURIER	ST-HUBERT	QUEBEC	CANADA	J3Y 3X3	
52142	XYG07	6837	LABORATOIRES CONFAB INC	DIN OWNER	Y	Y	Y	N		4355 BOUL. SIR WILFRID LAURIER	ST-HUBERT	QUEBEC	CANADA	J3Y 3X3	
52143	XYG07	6837	LABORATOIRES CONFAB INC	DIN OWNER	Y	Y	Y	N		4355 BOUL. SIR WILFRID LAURIER	ST-HUBERT	QUEBEC	CANADA	J3Y 3X3	
52144	XYG07	6837	LABORATOIRES CONFAB INC	DIN OWNER	Y	Y	Y	N		4355 BOUL. SIR WILFRID LAURIER	ST-HUBERT	QUEBEC	CANADA	J3Y 3X3	
52145	XYG07	6837	LABORATOIRES CONFAB INC	DIN OWNER	Y	Y	Y	N		4355 BOUL. SIR WILFRID LAURIER	ST-HUBERT	QUEBEC	CANADA	J3Y 3X3	
52210	XYG07	6837	LABORATOIRES CONFAB INC	DIN OWNER	Y	Y	Y	N		4355 BOUL. SIR WILFRID LAURIER	ST-HUBERT	QUEBEC	CANADA	J3Y 3X3	
52211	XYG07	6837	LABORATOIRES CONFAB INC	DIN OWNER	Y	Y	Y	N		4355 BOUL. SIR WILFRID LAURIER	ST-HUBERT	QUEBEC	CANADA	J3Y 3X3	
52212	XYG07	6837	LABORATOIRES CONFAB INC	DIN OWNER	Y	Y	Y	N		4355 BOUL. SIR WILFRID LAURIER	ST-HUBERT	QUEBEC	CANADA	J3Y 3X3	
52213	XYG07	6837	LABORATOIRES CONFAB INC	DIN OWNER	Y	Y	Y	N		4355 BOUL. SIR WILFRID LAURIER	ST-HUBERT	QUEBEC	CANADA	J3Y 3X3	
52214	XYG07	6837	LABORATOIRES CONFAB INC	DIN OWNER	Y	Y	Y	N		4355 BOUL. SIR WILFRID LAURIER	ST-HUBERT	QUEBEC	CANADA	J3Y 3X3	
52215	XYG07	6837	LABORATOIRES CONFAB INC	DIN OWNER	Y	Y	Y	N		4355 BOUL. SIR WILFRID LAURIER	ST-HUBERT	QUEBEC	CANADA	J3Y 3X3	
52216	XYG07	6837	LABORATOIRES CONFAB INC	DIN OWNER	Y	Y	Y	N		4355 BOUL. SIR WILFRID LAURIER	ST-HUBERT	QUEBEC	CANADA	J3Y 3X3	
52217	XYG07	6837	LABORATOIRES CONFAB INC	DIN OWNER	Y	Y	Y	N		4355 BOUL. SIR WILFRID LAURIER	ST-HUBERT	QUEBEC	CANADA	J3Y 3X3	
52218	XYG07	6837	LABORATOIRES CONFAB INC	DIN OWNER	Y	Y	Y	N		4355 BOUL. SIR WILFRID LAURIER	ST-HUBERT	QUEBEC	CANADA	J3Y 3X3	
52219	XYG07	6837	LABORATOIRES CONFAB INC	DIN OWNER	Y	Y	Y	N		4355 BOUL. SIR WILFRID LAURIER	ST-HUBERT	QUEBEC	CANADA	J3Y 3X3	
52220	XYG07	6837	LABORATOIRES CONFAB INC	DIN OWNER	Y	Y	Y	N		4355 BOUL. SIR WILFRID LAURIER	ST-HUBERT	QUEBEC	CANADA	J3Y 3X3	
52231	XYG07	6837	LABORATOIRES CONFAB INC	DIN OWNER	Y	Y	Y	N		4355 BOUL. SIR WILFRID LAURIER	ST-HUBERT	QUEBEC	CANADA	J3Y 3X3	
52232	XYG07	6837	LABORATOIRES CONFAB INC	DIN OWNER	Y	Y	Y	N		4355 BOUL. SIR WILFRID LAURIER	ST-HUBERT	QUEBEC	CANADA	J3Y 3X3	
52233	XYG07	6837	LABORATOIRES CONFAB INC	DIN OWNER	Y	Y	Y	N		4355 BOUL. SIR WILFRID LAURIER	ST-HUBERT	QUEBEC	CANADA	J3Y 3X3	
52234	XYG07	6837	LABORATOIRES CONFAB INC	DIN OWNER	Y	Y	Y	N		4355 BOUL. SIR WILFRID LAURIER	ST-HUBERT	QUEBEC	CANADA	J3Y 3X3	
52235	XYG07	6837	LABORATOIRES CONFAB INC	DIN OWNER	Y	Y	Y	N		4355 BOUL. SIR WILFRID LAURIER	ST-HUBERT	QUEBEC	CANADA	J3Y 3X3	
52236	XYG07	6837	LABORATOIRES CONFAB INC	DIN OWNER	Y	Y	Y	N		4355 BOUL. SIR WILFRID LAURIER	ST-HUBERT	QUEBEC	CANADA	J3Y 3X3	
52237	XYG07	6837	LABORATOIRES CONFAB INC	DIN OWNER	Y	Y	Y	N		4355 BOUL. SIR WILFRID LAURIER	ST-HUBERT	QUEBEC	CANADA	J3Y 3X3	
52238	XYG07	6837	LABORATOIRES CONFAB INC	DIN OWNER	Y	Y	Y	N		4355 BOUL. SIR WILFRID LAURIER	ST-HUBERT	QUEBEC	CANADA	J3Y 3X3	
52239	XYG07	6837	LABORATOIRES CONFAB INC	DIN OWNER	Y	Y	Y	N		4355 BOUL. SIR WILFRID LAURIER	ST-HUBERT	QUEBEC	CANADA	J3Y 3X3	
52241	XYG07	6837	LABORATOIRES CONFAB INC	DIN OWNER	Y	Y	Y	N		4355 BOUL. SIR WILFRID LAURIER	ST-HUBERT	QUEBEC	CANADA	J3Y 3X3	
52243	XYG07	6837	LABORATOIRES CONFAB INC	DIN OWNER	Y	Y	Y	N		4355 BOUL. SIR WILFRID LAURIER	ST-HUBERT	QUEBEC	CANADA	J3Y 3X3	
52244	XYG07	6837	LABORATOIRES CONFAB INC	DIN OWNER	Y	Y	Y	N		4355 BOUL. SIR WILFRID LAURIER	ST-HUBERT	QUEBEC	CANADA	J3Y 3X3	
52245	XYG07	6837	LABORATOIRES CONFAB INC	DIN OWNER	Y	Y	Y	N		4355 BOUL. SIR WILFRID LAURIER	ST-HUBERT	QUEBEC	CANADA	J3Y 3X3	
52246	XYG07	6837	LABORATOIRES CONFAB INC	DIN OWNER	Y	Y	Y	N		4355 BOUL. SIR WILFRID LAURIER	ST-HUBERT	QUEBEC	CANADA	J3Y 3X3	
52247	XYG07	6837	LABORATOIRES CONFAB INC	DIN OWNER	Y	Y	Y	N		4355 BOUL. SIR WILFRID LAURIER	ST-HUBERT	QUEBEC	CANADA	J3Y 3X3	
52248	XYG07	6837	LABORATOIRES CONFAB INC	DIN OWNER	Y	Y	Y	N		4355 BOUL. SIR WILFRID LAURIER	ST-HUBERT	QUEBEC	CANADA	J3Y 3X3	
52425	WYR08	6815	WY-PHARMA INC.	DIN OWNER	Y	N	N	N		110 SHEPPARD AVENUE E.	NORTH YORK	ONTARIO	CANADA	M2N 6R5	
52450	WYR08	6815	WY-PHARMA INC.	DIN OWNER	Y	N	N	N		110 SHEPPARD AVENUE E.	NORTH YORK	ONTARIO	CANADA	M2N 6R5	
52451	WYR08	6815	WY-PHARMA INC.	DIN OWNER	Y	N	N	N		110 SHEPPARD AVENUE E.	NORTH YORK	ONTARIO	CANADA	M2N 6R5	
52458	WYR08	6815	WY-PHARMA INC.	DIN OWNER	Y	N	N	N		110 SHEPPARD AVENUE E.	NORTH YORK	ONTARIO	CANADA	M2N 6R5	
52461	WYR08	6815	WY-PHARMA INC.	DIN OWNER	Y	N	N	N		110 SHEPPARD AVENUE E.	NORTH YORK	ONTARIO	CANADA	M2N 6R5	
52462	WYR08	6815	WY-PHARMA INC.	DIN OWNER	Y	N	N	N		110 SHEPPARD AVENUE E.	NORTH YORK	ONTARIO	CANADA	M2N 6R5	
52470	PMS07	3550	PHARMASCIENCE INC	DIN OWNER	Y	Y	Y	N	100	"6111, ROYALMOUNT AVENUE"	MONTREAL	QUEBEC	CANADA	H4P 2T4	
52471	PMS07	3550	PHARMASCIENCE INC	DIN OWNER	Y	Y	Y	N	100	"6111, ROYALMOUNT AVENUE"	MONTREAL	QUEBEC	CANADA	H4P 2T4	
52473	PMS07	3550	PHARMASCIENCE INC	DIN OWNER	Y	Y	Y	N	100	"6111, ROYALMOUNT AVENUE"	MONTREAL	QUEBEC	CANADA	H4P 2T4	
52474	PMS07	3550	PHARMASCIENCE INC	DIN OWNER	Y	Y	Y	N	100	"6111, ROYALMOUNT AVENUE"	MONTREAL	QUEBEC	CANADA	H4P 2T4	
52500		7238	CMI COSMETIC MANUFACTURERS CORP	DIN OWNER	Y	Y	Y	N		90 MOYAL COURT	CONCORD	ONTARIO	CANADA	L4K 4R8	
52503		7066	PENTAPHARM LTD.	DIN OWNER	Y	Y	Y	N		3 GLENDINNING AVE.	TORONTO	ONTARIO	CANADA	M1W 3E2	
52505	JPC10	4415	JAMP PHARMA CORPORATION	DIN OWNER	Y	Y	Y	N		1310 RUE NOBEL	BOUCHERVILLE	QUEBEC	CANADA	J4B 5H3	
52506		7066	PENTAPHARM LTD.	DIN OWNER	Y	Y	Y	N		3 GLENDINNING AVE.	TORONTO	ONTARIO	CANADA	M1W 3E2	
52507	JPC10	4415	JAMP PHARMA CORPORATION	DIN OWNER	Y	Y	Y	N		1310 RUE NOBEL	BOUCHERVILLE	QUEBEC	CANADA	J4B 5H3	
52517	OMG07	4852	OMEGA LABORATORIES LTD	DIN OWNER	Y	Y	Y	N		11177 HAMON	MONTREAL	QUEBEC	CANADA	H3M 3E4	
52519	ZBI08	7038	ASHBURY RESEARCH CORPORATION	DIN OWNER	Y	Y	Y	N		349 WILDCAT ROAD	TORONTO	ONTARIO	CANADA	M3J 2S3	
52533		8161	INFECTION CONTROL TECHNOLOGY	DIN OWNER	Y	Y	Y	N		"BUILDING 5, FREEPORT INDUSTRIAL PARKWAY WEST"	CLEARFIELD	UTAH	UNITED STATES	84016	
53271		7238	CMI COSMETIC MANUFACTURERS CORP	DIN OWNER	Y	Y	Y	N		90 MOYAL COURT	CONCORD	ONTARIO	CANADA	L4K 4R8	
53272		7238	CMI COSMETIC MANUFACTURERS CORP	DIN OWNER	Y	Y	Y	N		90 MOYAL COURT	CONCORD	ONTARIO	CANADA	L4K 4R8	
53431	SDW95	6977	STANDARD PROCESS INC.	DIN OWNER	Y	Y	Y	N		1200 WEST ROYAL LEE DR.	PALMYRA	WISCONSIN	UNITED STATES	53156-0904	904
53432	SDW95	6977	STANDARD PROCESS INC.	DIN OWNER	Y	Y	Y	N		1200 WEST ROYAL LEE DR.	PALMYRA	WISCONSIN	UNITED STATES	53156-0904	904
53433	SDW95	6977	STANDARD PROCESS INC.	DIN OWNER	Y	Y	Y	N		1200 WEST ROYAL LEE DR.	PALMYRA	WISCONSIN	UNITED STATES	53156-0904	904
53434	SDW95	6977	STANDARD PROCESS INC.	DIN OWNER	Y	Y	Y	N		1200 WEST ROYAL LEE DR.	PALMYRA	WISCONSIN	UNITED STATES	53156-0904	904
53435	SDW95	6977	STANDARD PROCESS INC.	DIN OWNER	Y	Y	Y	N		1200 WEST ROYAL LEE DR.	PALMYRA	WISCONSIN	UNITED STATES	53156-0904	904
53436	SDW95	6977	STANDARD PROCESS INC.	DIN OWNER	Y	Y	Y	N		1200 WEST ROYAL LEE DR.	PALMYRA	WISCONSIN	UNITED STATES	53156-0904	904
53437	SDW95	6977	STANDARD PROCESS INC.	DIN OWNER	Y	Y	Y	N		1200 WEST ROYAL LEE DR.	PALMYRA	WISCONSIN	UNITED STATES	53156-0904	904
53438	SDW95	6977	STANDARD PROCESS INC.	DIN OWNER	Y	Y	Y	N		1200 WEST ROYAL LEE DR.	PALMYRA	WISCONSIN	UNITED STATES	53156-0904	904
53440	SDW95	6977	STANDARD PROCESS INC.	DIN OWNER	Y	Y	Y	N		1200 WEST ROYAL LEE DR.	PALMYRA	WISCONSIN	UNITED STATES	53156-0904	904
53441	SDW95	6977	STANDARD PROCESS INC.	DIN OWNER	Y	Y	Y	N		1200 WEST ROYAL LEE DR.	PALMYRA	WISCONSIN	UNITED STATES	53156-0904	904
53442	SDW95	6977	STANDARD PROCESS INC.	DIN OWNER	Y	Y	Y	N		1200 WEST ROYAL LEE DR.	PALMYRA	WISCONSIN	UNITED STATES	53156-0904	904
53443	SDW95	6977	STANDARD PROCESS INC.	DIN OWNER	Y	Y	Y	N		1200 WEST ROYAL LEE DR.	PALMYRA	WISCONSIN	UNITED STATES	53156-0904	904
53445	SDW95	6977	STANDARD PROCESS INC.	DIN OWNER	Y	Y	Y	N		1200 WEST ROYAL LEE DR.	PALMYRA	WISCONSIN	UNITED STATES	53156-0904	904
53447	SDW95	6977	STANDARD PROCESS INC.	DIN OWNER	Y	Y	Y	N		1200 WEST ROYAL LEE DR.	PALMYRA	WISCONSIN	UNITED STATES	53156-0904	904
53450	SDW95	6977	STANDARD PROCESS INC.	DIN OWNER	Y	Y	Y	N		1200 WEST ROYAL LEE DR.	PALMYRA	WISCONSIN	UNITED STATES	53156-0904	904
53451	SDW95	6977	STANDARD PROCESS INC.	DIN OWNER	Y	Y	Y	N		1200 WEST ROYAL LEE DR.	PALMYRA	WISCONSIN	UNITED STATES	53156-0904	904
53452	SDW95	6977	STANDARD PROCESS INC.	DIN OWNER	Y	Y	Y	N		1200 WEST ROYAL LEE DR.	PALMYRA	WISCONSIN	UNITED STATES	53156-0904	904
53453	SDW95	6977	STANDARD PROCESS INC.	DIN OWNER	Y	Y	Y	N		1200 WEST ROYAL LEE DR.	PALMYRA	WISCONSIN	UNITED STATES	53156-0904	904
53454	SDW95	6977	STANDARD PROCESS INC.	DIN OWNER	Y	Y	Y	N		1200 WEST ROYAL LEE DR.	PALMYRA	WISCONSIN	UNITED STATES	53156-0904	904
53455	SDW95	6977	STANDARD PROCESS INC.	DIN OWNER	Y	Y	Y	N		1200 WEST ROYAL LEE DR.	PALMYRA	WISCONSIN	UNITED STATES	53156-0904	904
53456	SDW95	6977	STANDARD PROCESS INC.	DIN OWNER	Y	Y	Y	N		1200 WEST ROYAL LEE DR.	PALMYRA	WISCONSIN	UNITED STATES	53156-0904	904
53458	SDW95	6977	STANDARD PROCESS INC.	DIN OWNER	Y	Y	Y	N		1200 WEST ROYAL LEE DR.	PALMYRA	WISCONSIN	UNITED STATES	53156-0904	904
53459	SDW95	6977	STANDARD PROCESS INC.	DIN OWNER	Y	Y	Y	N		1200 WEST ROYAL LEE DR.	PALMYRA	WISCONSIN	UNITED STATES	53156-0904	904
53461	SDW95	6977	STANDARD PROCESS INC.	DIN OWNER	Y	Y	Y	N		1200 WEST ROYAL LEE DR.	PALMYRA	WISCONSIN	UNITED STATES	53156-0904	904
53462	SDW95	6977	STANDARD PROCESS INC.	DIN OWNER	Y	Y	Y	N		1200 WEST ROYAL LEE DR.	PALMYRA	WISCONSIN	UNITED STATES	53156-0904	904
53463	SDW95	6977	STANDARD PROCESS INC.	DIN OWNER	Y	Y	Y	N		1200 WEST ROYAL LEE DR.	PALMYRA	WISCONSIN	UNITED STATES	53156-0904	904
53464	SDW95	6977	STANDARD PROCESS INC.	DIN OWNER	Y	Y	Y	N		1200 WEST ROYAL LEE DR.	PALMYRA	WISCONSIN	UNITED STATES	53156-0904	904
53465	SDW95	6977	STANDARD PROCESS INC.	DIN OWNER	Y	Y	Y	N		1200 WEST ROYAL LEE DR.	PALMYRA	WISCONSIN	UNITED STATES	53156-0904	904
53466	SDW95	6977	STANDARD PROCESS INC.	DIN OWNER	Y	Y	Y	N		1200 WEST ROYAL LEE DR.	PALMYRA	WISCONSIN	UNITED STATES	53156-0904	904
53467	SDW95	6977	STANDARD PROCESS INC.	DIN OWNER	Y	Y	Y	N		1200 WEST ROYAL LEE DR.	PALMYRA	WISCONSIN	UNITED STATES	53156-0904	904
53869	TKJ99	6672	TEVA PHARMACEUTICAL INDUSTRIES LTD	DIN OWNER	Y	N	N	N		5 BASEL STREET	PETACH TIKVA	SAONE ET LOIRE	ISRAEL	49131	3190
53870	TKJ99	6672	TEVA PHARMACEUTICAL INDUSTRIES LTD	DIN OWNER	Y	N	N	N		5 BASEL STREET	PETACH TIKVA	SAONE ET LOIRE	ISRAEL	49131	3190
53871	TKJ99	6672	TEVA PHARMACEUTICAL INDUSTRIES LTD	DIN OWNER	Y	N	N	N		5 BASEL STREET	PETACH TIKVA	SAONE ET LOIRE	ISRAEL	49131	3190
53874	RXP07	8183	RHOXALPHARMA INC	DIN OWNER	Y	Y	Y	N		145 JULES-LÉGER STREET	BOUCHERVILLE	QUEBEC	CANADA	J4B 7K8	
54228	SDW95	6977	STANDARD PROCESS INC.	DIN OWNER	Y	Y	Y	N		1200 WEST ROYAL LEE DR.	PALMYRA	WISCONSIN	UNITED STATES	53156-0904	904
54231		8071	BAUSCH & LOMB PHARMACEUTICALS INC.	DIN OWNER	Y	N	N	N		8500 HIDDEN RIVER PKWY	TAMPA	FLORIDA	UNITED STATES	33637-1025	
54700		7066	PENTAPHARM LTD.	DIN OWNER	Y	Y	Y	N		3 GLENDINNING AVE.	TORONTO	ONTARIO	CANADA	M1W 3E2	
54701		7066	PENTAPHARM LTD.	DIN OWNER	Y	Y	Y	N		3 GLENDINNING AVE.	TORONTO	ONTARIO	CANADA	M1W 3E2	
54702		7066	PENTAPHARM LTD.	DIN OWNER	Y	Y	Y	N		3 GLENDINNING AVE.	TORONTO	ONTARIO	CANADA	M1W 3E2	
54703		7066	PENTAPHARM LTD.	DIN OWNER	Y	Y	Y	N		3 GLENDINNING AVE.	TORONTO	ONTARIO	CANADA	M1W 3E2	
55859		8172	RX VITAMINS INC.	DIN OWNER	Y	Y	Y	N	149	150 CLEARBROOK ROAD	ELMSFORD	NEW YORK	UNITED STATES	10523	
5617		16807	HEXIM PHARMACEUTICALS INC	DIN OWNER	Y	Y	Y			"600 MEADOWLANDS PARKWAY, SUITE 149"	SECAUCUS	NEW JERSEY	UNITED STATES	7094	
57340	CBS95	3850	CENTER LABORATORIES INC.	DIN OWNER	Y	Y	Y	N		35 CHANNEL DRIVE	PORT WASHINGTON	NEW YORK	UNITED STATES	11050	350-35
59706	ZBE10	7037	WING QUON ENTERPRISES LTD.	DIN OWNER	Y	Y	N	N	105-115	6660 GRAYBAR ROAD	RICHMOND	BRITISH COLUMBIA	CANADA	V6W 1H9	
59716	XYG07	6837	LABORATOIRES CONFAB INC	DIN OWNER	Y	Y	Y	N		4355 BOUL. SIR WILFRID LAURIER	ST-HUBERT	QUEBEC	CANADA	J3Y 3X3	
59717	XYG07	6837	LABORATOIRES CONFAB INC	DIN OWNER	Y	Y	Y	N		4355 BOUL. SIR WILFRID LAURIER	ST-HUBERT	QUEBEC	CANADA	J3Y 3X3	
59871	LSW07	4532	LES LABORATOIRES SWISSE INC.	DIN OWNER	Y	Y	N	N		3560 RUE ISABELLE	BROSSARD	QUEBEC	CANADA	J4Y 2R3	
59888	CRI08	3962	CLASSICAL REMEDIA LTD	DIN OWNER	Y	Y	Y	N		412 DUNDAS STREET WEST	TORONTO	ONTARIO	CANADA	M5T 1G7	
59895		8233	PROTECTIVE PRODUCTS	DIN OWNER	Y	Y	N	N		10 ELM ROAD	TORONTO	ONTARIO	CANADA	M5M 3T2	
59933	NXP08	4828	NU-PHARM INC	DIN OWNER	Y	N	Y	N		"1165 CREDITSTONE RD, UNIT 2"	VAUGHAN	ONTARIO	CANADA	L4K 4N7	
59944	BEL08	5602	BELVEDERE INTERNATIONAL INC.	DIN OWNER	Y	Y	N	N		5675 KEATON CRESCENT	MISSISSAUGA	ONTARIO	CANADA	L5R 3G3	
60010	RXP07	8183	RHOXALPHARMA INC	DIN OWNER	Y	Y	Y	N		145 JULES-LÉGER STREET	BOUCHERVILLE	QUEBEC	CANADA	J4B 7K8	
60011	RXP07	8183	RHOXALPHARMA INC	DIN OWNER	Y	Y	Y	N		145 JULES-LÉGER STREET	BOUCHERVILLE	QUEBEC	CANADA	J4B 7K8	
60029		7556	SWISS AMERICAN PRODUCTS INC.	DIN OWNER	Y	Y	Y	N	SUITE #126	2055 LUNA ROAD	CARROLLTON	TEXAS	UNITED STATES	75006	
60032	TAR08	5241	TARO PHARMACEUTICALS INC	DIN OWNER	Y	Y	N	N		130 EAST DRIVE	BRAMPTON	ONTARIO	CANADA	L6T 1C1	
60044	DPC07	4065	DOMINION PHARMACAL	DIN OWNER	Y	Y	Y	N	SUITE 100	"6111, AVENUE ROYALMOUNT"	MONTREAL	QUEBEC	CANADA	H4P 2T4	
60045	DPC07	4065	DOMINION PHARMACAL	DIN OWNER	Y	Y	Y	N	SUITE 100	"6111, AVENUE ROYALMOUNT"	MONTREAL	QUEBEC	CANADA	H4P 2T4	
60049		7903	NATURALLY NOVA SCOTIA HEALTH PRODUCTS LTD.	DIN OWNER	Y	Y	Y	N		2769 LAWRENCETOWN RD.	DARTMOUTH	NOVA SCOTIA	CANADA	B2Z 1L3	
60060	ZBI08	7038	ASHBURY RESEARCH CORPORATION	DIN OWNER	Y	Y	Y	N		349 WILDCAT ROAD	TORONTO	ONTARIO	CANADA	M3J 2S3	
60061	ZBI08	7038	ASHBURY RESEARCH CORPORATION	DIN OWNER	Y	Y	Y	N		349 WILDCAT ROAD	TORONTO	ONTARIO	CANADA	M3J 2S3	
60064		9985	GLAXOSMITHKLINE INC	DIN OWNER	Y	N	Y			7333 MISSISSAUGA ROAD	MISSISSAUGA	ONTARIO	CANADA	L5N 6L4	
60069		8254	VERIDIEN CORPORATION	DIN OWNER	Y	N	Y	N		PO BOX 47097	ST. PETERSBURG	FLORIDA	UNITED STATES	33743-7097	
60077		12767	MEDIBRANDS ISRAEL (SUBSIDIARY OF MEDILINE LTD)	DIN OWNER	Y	Y	N			6 HAMADA STREET	"YOKNEAM, ELIT"	SAONE ET LOIRE	ISRAEL	20692	531
60080	ALC08	3594	ALCON CANADA INC	DIN OWNER	Y	Y	Y	N		2665 MEADOWPINE BLVD	MISSISSAUGA	ONTARIO	CANADA	L5N 8C7	
60081	ALC08	3594	ALCON CANADA INC	DIN OWNER	Y	Y	Y	N		2665 MEADOWPINE BLVD	MISSISSAUGA	ONTARIO	CANADA	L5N 8C7	
60089	XYG07	6837	LABORATOIRES CONFAB INC	DIN OWNER	Y	Y	Y	N		4355 BOUL. SIR WILFRID LAURIER	ST-HUBERT	QUEBEC	CANADA	J3Y 3X3	
60100		8240	RAY IRASTORZA	DIN OWNER	Y	Y	Y	N		35 JOHNSON AVENUE	THUNDER BAY	ONTARIO	CANADA	P7B 2V8	
60134		8233	PROTECTIVE PRODUCTS	DIN OWNER	Y	Y	N	N		10 ELM ROAD	TORONTO	ONTARIO	CANADA	M5M 3T2	
60181	PDD07	4897	PRODEMDIS ENR.	DIN OWNER	Y	Y	N	N		4355 SIR WILFRID LAURIER	ST-HUBERT	QUEBEC	CANADA	J3Y 3X3	
60199	ALC08	3594	ALCON CANADA INC	DIN OWNER	Y	Y	Y	N		2665 MEADOWPINE BLVD	MISSISSAUGA	ONTARIO	CANADA	L5N 8C7	
60216	JAA08	4401	JAAPHARM CANADA INC.	DIN OWNER	Y	Y	Y	N	BLDG B	510 ROWNTREE DAIRY RD.	WOODBRIDGE	ONTARIO	CANADA	L4L 8H2	
60217		8296	"NEW SPIRIT NATURALS, INC."	DIN OWNER	Y	Y	Y	N		615 W. ALLEN AVENUE	SAN DIMAS	CALIFORNIA	UNITED STATES	91173	
60219		7201	MORTER HEALTHSYSTEM	DIN OWNER	Y	Y	Y	N		215 WEST POPLAR	ROGERS	ARKANSAS	UNITED STATES	72756	
60233	PHH07	4917	PHARMEL INC	DIN OWNER	Y	Y	Y	N		"6111, AVENUE ROYALMOUNT, SUITE 100"	MONTREAL	QUEBEC	CANADA	H4P 2T4	
60253	PHH07	4917	PHARMEL INC	DIN OWNER	Y	Y	Y	N		"6111, AVENUE ROYALMOUNT, SUITE 100"	MONTREAL	QUEBEC	CANADA	H4P 2T4	
60254	PHH07	4917	PHARMEL INC	DIN OWNER	Y	Y	Y	N		"6111, AVENUE ROYALMOUNT, SUITE 100"	MONTREAL	QUEBEC	CANADA	H4P 2T4	
60255	PHH07	4917	PHARMEL INC	DIN OWNER	Y	Y	Y	N		"6111, AVENUE ROYALMOUNT, SUITE 100"	MONTREAL	QUEBEC	CANADA	H4P 2T4	
60256	PHH07	4917	PHARMEL INC	DIN OWNER	Y	Y	Y	N		"6111, AVENUE ROYALMOUNT, SUITE 100"	MONTREAL	QUEBEC	CANADA	H4P 2T4	
60260	PHH07	4917	PHARMEL INC	DIN OWNER	Y	Y	Y	N		"6111, AVENUE ROYALMOUNT, SUITE 100"	MONTREAL	QUEBEC	CANADA	H4P 2T4	
60271	ZBI08	7038	ASHBURY RESEARCH CORPORATION	DIN OWNER	Y	Y	Y	N		349 WILDCAT ROAD	TORONTO	ONTARIO	CANADA	M3J 2S3	
60272	ZBI08	7038	ASHBURY RESEARCH CORPORATION	DIN OWNER	Y	Y	Y	N		349 WILDCAT ROAD	TORONTO	ONTARIO	CANADA	M3J 2S3	
60299	BPB60	3784	BEAPHAR B.V.	DIN OWNER	Y	Y	Y	N		DROSTENKAMP 3	8101 BX RAALTE	SAONE ET LOIRE	NETHERLANDS	8100 AA	7
60300	MCL08	4569	MCNEIL CONSUMER HEALTHCARE DIVISION OF JOHNSON & JOHNSON INC	DIN OWNER	Y	Y	Y	N		88 MCNABB STREET	MARKHAM	ONTARIO	CANADA	L3R 5L2	
60304	NOP08	4773	NOVOPHARM LIMITED	DIN OWNER	Y	Y	N	N		30 NOVOPHARM COURT	TORONTO	ONTARIO	CANADA	M1B 2K9	
60309	BQC07	3798	BRISTOL-MYERS SQUIBB CANADA	DIN OWNER	Y	Y	Y	N		"2344 BOUL. ALFRED-NOBEL, SUITE 300"	MONTRÉAL (ST-LAURENT)	QUEBEC	CANADA	H4S 0A4	
60316		8311	JOHNSON PRODUCTS CO. INC.	DIN OWNER	Y	Y	Y	N		8522 S. LAFAYETTE	CHICAGO	ILLINOIS	UNITED STATES	60620	
60336	BPB60	3784	BEAPHAR B.V.	DIN OWNER	Y	Y	Y	N		DROSTENKAMP 3	8101 BX RAALTE	SAONE ET LOIRE	NETHERLANDS	8100 AA	7
60337	BPB60	3784	BEAPHAR B.V.	DIN OWNER	Y	Y	Y	N		DROSTENKAMP 3	8101 BX RAALTE	SAONE ET LOIRE	NETHERLANDS	8100 AA	7
60338	BPB60	3784	BEAPHAR B.V.	DIN OWNER	Y	Y	Y	N		DROSTENKAMP 3	8101 BX RAALTE	SAONE ET LOIRE	NETHERLANDS	8100 AA	7
60339	BPB60	3784	BEAPHAR B.V.	DIN OWNER	Y	Y	Y	N		DROSTENKAMP 3	8101 BX RAALTE	SAONE ET LOIRE	NETHERLANDS	8100 AA	7
60343	PHT08	4920	PHARMAX LIMITED	DIN OWNER	Y	Y	Y	N	509	80 FRONT ST EAST	TORONTO	ONTARIO	CANADA	M5E 1T4	
60353		8352	CANMAX LABORATORIES INC.	DIN OWNER	Y	Y	Y	N	UNIT 4	6660 KENNEDY RD.	MISSISSAUGA	ONTARIO	CANADA	L5T 2M9	
60356		8354	NORTH PACIFIC RIM MARKETING INC.	DIN OWNER	Y	Y	Y	N		"700 W. GEORGIA ST., 26TH FLOOR"	VANCOUVER	BRITISH COLUMBIA	CANADA	V7Y 1B3	10026
60357		8354	NORTH PACIFIC RIM MARKETING INC.	DIN OWNER	Y	Y	Y	N		"700 W. GEORGIA ST., 26TH FLOOR"	VANCOUVER	BRITISH COLUMBIA	CANADA	V7Y 1B3	10026
60362		8358	LES PROMOTIONS ATLANTIQUES INC.	DIN OWNER	Y	Y	N	N		770 BOUL. GUIMOND	LONGUEUIL	QUEBEC	CANADA	J4G 1V6	
60364		8355	PLAK SMACKER	DIN OWNER	Y	Y	Y	N		755 TRADEMARK CIRCLE	CORONA	CALIFORNIA	UNITED STATES	92879	
60365		8355	PLAK SMACKER	DIN OWNER	Y	Y	Y	N		755 TRADEMARK CIRCLE	CORONA	CALIFORNIA	UNITED STATES	92879	
60366		8355	PLAK SMACKER	DIN OWNER	Y	Y	Y	N		755 TRADEMARK CIRCLE	CORONA	CALIFORNIA	UNITED STATES	92879	
60368		8296	"NEW SPIRIT NATURALS, INC."	DIN OWNER	Y	Y	Y	N		615 W. ALLEN AVENUE	SAN DIMAS	CALIFORNIA	UNITED STATES	91173	
60418	ZBE10	7037	WING QUON ENTERPRISES LTD.	DIN OWNER	Y	Y	N	N	105-115	6660 GRAYBAR ROAD	RICHMOND	BRITISH COLUMBIA	CANADA	V6W 1H9	
60434		8296	"NEW SPIRIT NATURALS, INC."	DIN OWNER	Y	Y	Y	N		615 W. ALLEN AVENUE	SAN DIMAS	CALIFORNIA	UNITED STATES	91173	
60472		16524	BGP PHARMA ULC	DIN OWNER	Y	Y	Y			85 ADVANCE ROAD	ETOBICOKE	ONTARIO	CANADA	M8Z 2S6	
60517		8460	BIMEDA-MTC ANIMAL HEALTH INC	DIN OWNER	Y	Y	Y	N		420 BEAVERDALE RD.	CAMBRIDGE	ONTARIO	CANADA	N3W 2W4	
60524	ZBE10	7037	WING QUON ENTERPRISES LTD.	DIN OWNER	Y	Y	N	N	105-115	6660 GRAYBAR ROAD	RICHMOND	BRITISH COLUMBIA	CANADA	V6W 1H9	
60528	ZBI08	7038	ASHBURY RESEARCH CORPORATION	DIN OWNER	Y	Y	Y	N		349 WILDCAT ROAD	TORONTO	ONTARIO	CANADA	M3J 2S3	
60550		8448	"PHYSICIAN'S CHOICE OF ARIZONA, INC."	DIN OWNER	Y	Y	Y	N	200	4110 N. SCOTTSDALE RD.	SCOTTSDALE	ARIZONA	UNITED STATES	85251	
60552		8448	"PHYSICIAN'S CHOICE OF ARIZONA, INC."	DIN OWNER	Y	Y	Y	N	200	4110 N. SCOTTSDALE RD.	SCOTTSDALE	ARIZONA	UNITED STATES	85251	
60553		8448	"PHYSICIAN'S CHOICE OF ARIZONA, INC."	DIN OWNER	Y	Y	Y	N	200	4110 N. SCOTTSDALE RD.	SCOTTSDALE	ARIZONA	UNITED STATES	85251	
60650	EIP10	5919	PRAIRIE NATURALS	DIN OWNER	Y	Y	Y	N		56 FAWCETT ROAD	COQUITLAM	BRITISH COLUMBIA	CANADA	V3K 6V5	
60652	ABH08	3528	ABJ CUSTOM PACKAGING	DIN OWNER	Y	Y	Y	N		1379 COLBORNE STREET EAST	BRANTFORD	ONTARIO	CANADA	N3T 5M1	1748
60654	ABH08	3528	ABJ CUSTOM PACKAGING	DIN OWNER	Y	Y	Y	N		1379 COLBORNE STREET EAST	BRANTFORD	ONTARIO	CANADA	N3T 5M1	1748
60658		5099	SCOTT PAPER LIMITED	DIN OWNER	Y	N	N	N	200	1900  MINNESOTA COURT	MISSISSAUGA	ONTARIO	CANADA	L5N 3C9	
60682		8311	JOHNSON PRODUCTS CO. INC.	DIN OWNER	Y	Y	Y	N		8522 S. LAFAYETTE	CHICAGO	ILLINOIS	UNITED STATES	60620	
60683		8311	JOHNSON PRODUCTS CO. INC.	DIN OWNER	Y	Y	Y	N		8522 S. LAFAYETTE	CHICAGO	ILLINOIS	UNITED STATES	60620	
60684		8311	JOHNSON PRODUCTS CO. INC.	DIN OWNER	Y	Y	Y	N		8522 S. LAFAYETTE	CHICAGO	ILLINOIS	UNITED STATES	60620	
60685		8311	JOHNSON PRODUCTS CO. INC.	DIN OWNER	Y	Y	Y	N		8522 S. LAFAYETTE	CHICAGO	ILLINOIS	UNITED STATES	60620	
60686		8311	JOHNSON PRODUCTS CO. INC.	DIN OWNER	Y	Y	Y	N		8522 S. LAFAYETTE	CHICAGO	ILLINOIS	UNITED STATES	60620	
60687		8311	JOHNSON PRODUCTS CO. INC.	DIN OWNER	Y	Y	Y	N		8522 S. LAFAYETTE	CHICAGO	ILLINOIS	UNITED STATES	60620	
60695	APX08	3636	APOTEX INC	DIN OWNER	Y	Y	Y	N		150 SIGNET DRIVE	TORONTO	ONTARIO	CANADA	M9L 1T9	
60709	SFK08	5205	SEAFORD PHARMACEUTICALS INC	DIN OWNER	Y	Y	Y	N	UNIT 28	1530 DREW ROAD	MISSISSAUGA	ONTARIO	CANADA	L5S 1W8	
60759	FFO60	7004	PHARMACHEMIE B.V.	DIN OWNER	Y	N	N	N		SWENSWEG 5	HAARLEM	SAONE ET LOIRE	NETHERLANDS	2031 GA	
60780		8010	WAH SHUN COMPANY	DIN OWNER	Y	N	N	N	"BLOCK B, 9TH FLOOR"	"HAVEN COMM. BLDG, BLOCK B 9/F, TSING FUNG STREET"	NORTH POINT	SAONE ET LOIRE	HONG KONG	N/A	
60787	PRS08	6466	PURESOURCE INC.	DIN OWNER	Y	Y	Y	N		"7018 WELLINGTON RD. 124 S, RR#7"	GUELPH	ONTARIO	CANADA	N1H 6J4	
60788	PRS08	6466	PURESOURCE INC.	DIN OWNER	Y	Y	Y	N		"7018 WELLINGTON RD. 124 S, RR#7"	GUELPH	ONTARIO	CANADA	N1H 6J4	
60789	PRS08	6466	PURESOURCE INC.	DIN OWNER	Y	Y	Y	N		"7018 WELLINGTON RD. 124 S, RR#7"	GUELPH	ONTARIO	CANADA	N1H 6J4	
60892		7257	DOMACO DR MED AUFDERMAUR AG	DIN OWNER	Y	Y	N	N		WESTRASSE 16	LENGNAU AG	SAONE ET LOIRE	SWITZERLAND	5426	
60893		7257	DOMACO DR MED AUFDERMAUR AG	DIN OWNER	Y	Y	N	N		WESTRASSE 16	LENGNAU AG	SAONE ET LOIRE	SWITZERLAND	5426	
60908	KIG10	6921	KINESYS PHARMACEUTICAL INC	DIN OWNER	Y	N	N	N	118	12920 84TH AVENUE	SURREY	BRITISH COLUMBIA	CANADA	V3W 1K7	
60909	KIG10	6921	KINESYS PHARMACEUTICAL INC	DIN OWNER	Y	N	N	N	118	12920 84TH AVENUE	SURREY	BRITISH COLUMBIA	CANADA	V3W 1K7	
60911	ZBE10	7037	WING QUON ENTERPRISES LTD.	DIN OWNER	Y	Y	N	N	105-115	6660 GRAYBAR ROAD	RICHMOND	BRITISH COLUMBIA	CANADA	V6W 1H9	
60921	SWS08	5225	SWISS HERBAL REMEDIES LTD.	DIN OWNER	Y	Y	Y	N		35 FULTON WAY	RICHMOND HILL	ONTARIO	CANADA	L4B 2N4	
60952	LZI95	6236	LONZA INC.	DIN OWNER	Y	Y	N	N		90 BOROLINE ROAD	ALLENDALE	NEW JERSEY	UNITED STATES	7401	
60953	LZI95	6236	LONZA INC.	DIN OWNER	Y	Y	N	N		90 BOROLINE ROAD	ALLENDALE	NEW JERSEY	UNITED STATES	7401	
60955	SDQ95	6574	STEPAN COMPANY	DIN OWNER	Y	Y	N	N		22 W. FRONTAGE ROAD	NORTHFIELD	ILLINOIS	UNITED STATES	60093	
60973		14250	PHIBRO ANIMAL HEALTH CORPORATION	DIN OWNER	Y	Y	Y			"GLENPOINT CENTRE EAST, 3RD FLOOR, 300 FRANK W BURR BLVD., STE. 21"	TEANECK	NEW JERSEY	UNITED STATES	7666	
61023	WTR09	5450	WESTCAN PHARMACEUTICALS LTD.	DIN OWNER	Y	N	N	N		150 BEGHIN AVENUE	WINNIPEG	MANITOBA	CANADA	R2J 3W2	
61035	PMS07	3550	PHARMASCIENCE INC	DIN OWNER	Y	Y	Y	N	100	"6111, ROYALMOUNT AVENUE"	MONTREAL	QUEBEC	CANADA	H4P 2T4	
61045		8530	IMMUNOTEC INC	DIN OWNER	Y	Y	N	N		"300, RUE JOSEPH-CARRIER"	VAUDREUIL-DORION	QUEBEC	CANADA	J7V 5V5	
61054	MCL08	4569	MCNEIL CONSUMER HEALTHCARE DIVISION OF JOHNSON & JOHNSON INC	DIN OWNER	Y	Y	Y	N		88 MCNABB STREET	MARKHAM	ONTARIO	CANADA	L3R 5L2	
61079		8543	MACROMED PHARMICIA INC.	DIN OWNER	Y	Y	Y	N		6814 LOS TRIOS RD.	HOUSTON	TEXAS	UNITED STATES	77083	
61081		7482	MCCUAIG SOLUTIONS CORP.	DIN OWNER	Y	Y	Y	N		1687 DUBLIN AVE	WINNIPEG	MANITOBA	CANADA	R3H 0H2	
61108	WLA08	5417	WARNER-LAMBERT CANADA INC.	DIN OWNER	Y	N	N	N		2200 EGLINTON AVENUE EAST	TORONTO	ONTARIO	CANADA	M1L 2N3	
61129	WTK09	5446	WATKINS INCORPORATED	DIN OWNER	Y	Y	N	N		1905 WAYZATA BLVD EAST SUITE 280	WAYZATA	MINNESOTA	UNITED STATES	55391	
61186		8569	TECNODIS DISTRIBUTIONS INC.	DIN OWNER	Y	Y	Y	N		18404 MELOCHE	PIERREFONDS	QUEBEC	CANADA	H9K 1L6	
61187		8567	"HAWKNAD MANUFACTURING INDUSTRIES, INC."	DIN OWNER	Y	Y	Y	N	F	8245 BACKLICK RD	LORTON	VIRGINIA	UNITED STATES	22079	
61198		10990	VIVIER CANADA INCORPORATED	DIN OWNER	Y	N	N	N		288 ADRIEN-PATENAUDE	VAUDREUIL-DORION	QUEBEC	CANADA	J7V 5V5	
61211	XYG07	6837	LABORATOIRES CONFAB INC	DIN OWNER	Y	Y	Y	N		4355 BOUL. SIR WILFRID LAURIER	ST-HUBERT	QUEBEC	CANADA	J3Y 3X3	
61231	PMS07	3550	PHARMASCIENCE INC	DIN OWNER	Y	Y	Y	N	100	"6111, ROYALMOUNT AVENUE"	MONTREAL	QUEBEC	CANADA	H4P 2T4	
61232	DPC07	4065	DOMINION PHARMACAL	DIN OWNER	Y	Y	Y	N	SUITE 100	"6111, AVENUE ROYALMOUNT"	MONTREAL	QUEBEC	CANADA	H4P 2T4	
61233	PHH07	4917	PHARMEL INC	DIN OWNER	Y	Y	Y	N		"6111, AVENUE ROYALMOUNT, SUITE 100"	MONTREAL	QUEBEC	CANADA	H4P 2T4	
61257		8576	HOME SHOPPING NETWORK DIRECT	DIN OWNER	Y	Y	N	N		11831-30TH COURT N.	ST.PETERSBURG	FLORIDA	UNITED STATES	33716	
61260		7965	"PLIVA, PHARMACEUTICAL, CHEMICAL, FOOD AND COSMETIC INDUSTRY, INC."	DIN OWNER	Y	N	N	N		ULICA GRADA VUKOVARA 49	ZAGREB	SAONE ET LOIRE	CROATIA (HRVATSKA)	10000	
61261		7965	"PLIVA, PHARMACEUTICAL, CHEMICAL, FOOD AND COSMETIC INDUSTRY, INC."	DIN OWNER	Y	N	N	N		ULICA GRADA VUKOVARA 49	ZAGREB	SAONE ET LOIRE	CROATIA (HRVATSKA)	10000	
61318		8178	DUMEX MEDICAL CANADA INC.	DIN OWNER	Y	N	N	N		104 SHORTING ROAD	TORONTO	ONTARIO	CANADA	M1S 3S4	
61322		8448	"PHYSICIAN'S CHOICE OF ARIZONA, INC."	DIN OWNER	Y	Y	Y	N	200	4110 N. SCOTTSDALE RD.	SCOTTSDALE	ARIZONA	UNITED STATES	85251	
61359	HLP08	4327	HEALTH 4 ALL PRODUCTS LIMITED.	DIN OWNER	Y	Y	Y	N		545 WELHAM ROAD	BARRIE	ONTARIO	CANADA	L4N 8Z6	
61373	TCH07	3633	TECHNILAB PHARMA INC.	DIN OWNER	Y	N	N	N		17800 RUE LAPOINTE	MIRABEL	QUEBEC	CANADA	J7J 1P3	
61375	TCH07	3633	TECHNILAB PHARMA INC.	DIN OWNER	Y	N	N	N		17800 RUE LAPOINTE	MIRABEL	QUEBEC	CANADA	J7J 1P3	
61404	SDR10	5088	"STANLEY PHARMACEUTICALS, A DIVISION OF VITA HEALTH PRODUCTS INC."	DIN OWNER	Y	N	N	N		150 BEGHIN AVENUE	WINNIPEG	MANITOBA	CANADA	R2J 3W2	
61408		8604	VITA-COMPLETE CANADA INC.	DIN OWNER	Y	Y	Y	N	600	505 RENÉ-LÉVESQUE W	MONTREAL	QUEBEC	CANADA	H2Z 1Y7	
61414	WLA08	5417	WARNER-LAMBERT CANADA INC.	DIN OWNER	Y	N	N	N		2200 EGLINTON AVENUE EAST	TORONTO	ONTARIO	CANADA	M1L 2N3	
61428		8610	NATURAL ORGANICS INC.	DIN OWNER	Y	Y	N	N		548 BROADHOLLOW RD.	MELVILLE	NEW YORK	UNITED STATES	11747-3708	
61433	NXP08	4828	NU-PHARM INC	DIN OWNER	Y	N	Y	N		"1165 CREDITSTONE RD, UNIT 2"	VAUGHAN	ONTARIO	CANADA	L4K 4N7	
61434	NXP08	4828	NU-PHARM INC	DIN OWNER	Y	N	Y	N		"1165 CREDITSTONE RD, UNIT 2"	VAUGHAN	ONTARIO	CANADA	L4K 4N7	
61435	NXP08	4828	NU-PHARM INC	DIN OWNER	Y	N	Y	N		"1165 CREDITSTONE RD, UNIT 2"	VAUGHAN	ONTARIO	CANADA	L4K 4N7	
61453	NXP08	4828	NU-PHARM INC	DIN OWNER	Y	N	Y	N		"1165 CREDITSTONE RD, UNIT 2"	VAUGHAN	ONTARIO	CANADA	L4K 4N7	
61478	DDN09	4020	DARWEN HOLDINGS LTD.	DIN OWNER	Y	Y	N	N		2218 HANSELMAN AVE	SASKATOON	SASKATCHEWAN	CANADA	S7L 6A4	
61520		8627	NUTRIVENTION NUTRITIONAL PRODUCTS	DIN OWNER	Y	Y	Y	N		6203 WOODLAKE CENTER	SAN ANTONIO	TEXAS	UNITED STATES	78244	
61521		8627	NUTRIVENTION NUTRITIONAL PRODUCTS	DIN OWNER	Y	Y	Y	N		6203 WOODLAKE CENTER	SAN ANTONIO	TEXAS	UNITED STATES	78244	
61522		8627	NUTRIVENTION NUTRITIONAL PRODUCTS	DIN OWNER	Y	Y	Y	N		6203 WOODLAKE CENTER	SAN ANTONIO	TEXAS	UNITED STATES	78244	
61523		7806	GOLDEN PRIDE INTERNATIONAL	DIN OWNER	Y	N	N	N	100	1501 NORTHPOINT PKWY	WEST PALM BEACH	FLORIDA	UNITED STATES	33407-1109	21109
61524		8618	S.A.F. NUTRITIONAL PRODUCTS INC.	DIN OWNER	Y	Y	Y	N		6814 LOS TRIOS RD.	HOUSTON	TEXAS	UNITED STATES	77083	
61535		8178	DUMEX MEDICAL CANADA INC.	DIN OWNER	Y	N	N	N		104 SHORTING ROAD	TORONTO	ONTARIO	CANADA	M1S 3S4	
61574	TLI07	5266	LABORATOIRES TRIANON INC	DIN OWNER	Y	Y	N	N		660 BOULEVARD INDUSTRIEL	BLAINVILLE	QUEBEC	CANADA	J7C 3V4	
61575	AST95	5561	ASTRA PHARMACEUTICALS L.P.	DIN OWNER	Y	N	N	N	DCC-1	1800 CONCORD PIKE	WILMINGTON	DELAWARE	UNITED STATES	19850-5437	
61634	DDN09	4020	DARWEN HOLDINGS LTD.	DIN OWNER	Y	Y	N	N		2218 HANSELMAN AVE	SASKATOON	SASKATCHEWAN	CANADA	S7L 6A4	
61653		8448	"PHYSICIAN'S CHOICE OF ARIZONA, INC."	DIN OWNER	Y	Y	Y	N	200	4110 N. SCOTTSDALE RD.	SCOTTSDALE	ARIZONA	UNITED STATES	85251	
61655		8654	KG AGROVET INC.	DIN OWNER	Y	Y	Y	N		48 CROOKESTICK RD.	CONCORD	ONTARIO	CANADA	L4K 1P5	
61668		8658	"MICRO-SCIENTIFIC, LLC"	DIN OWNER	Y	Y	Y	N		755 TRI-STATE PARKWAY	GURNEE	ILLINOIS	UNITED STATES	60031	
61674	LSW07	4532	LES LABORATOIRES SWISSE INC.	DIN OWNER	Y	Y	N	N		3560 RUE ISABELLE	BROSSARD	QUEBEC	CANADA	J4Y 2R3	
61703		7128	LE GROUPE M. VACHON INC.	DIN OWNER	Y	Y	Y	N		8700 BOUL. DE LA RIVE-SUD	LEVIS	QUEBEC	CANADA	G6V 6N6	100
61731	PMS07	3550	PHARMASCIENCE INC	DIN OWNER	Y	Y	Y	N	100	"6111, ROYALMOUNT AVENUE"	MONTREAL	QUEBEC	CANADA	H4P 2T4	
61732		7271	SUCAN INTERNATIONAL TRADING COMPANY	DIN OWNER	Y	Y	Y	N	16	6649 CHRISTOPHE COLOMB	MONTREAL	QUEBEC	CANADA	H2S 2H1	942
61734	ZBI08	7038	ASHBURY RESEARCH CORPORATION	DIN OWNER	Y	Y	Y	N		349 WILDCAT ROAD	TORONTO	ONTARIO	CANADA	M3J 2S3	
61749		7066	PENTAPHARM LTD.	DIN OWNER	Y	Y	Y	N		3 GLENDINNING AVE.	TORONTO	ONTARIO	CANADA	M1W 3E2	
61750		7066	PENTAPHARM LTD.	DIN OWNER	Y	Y	Y	N		3 GLENDINNING AVE.	TORONTO	ONTARIO	CANADA	M1W 3E2	
61751		7135	MEYER ZALL LABORATORIES PTY LTD.	DIN OWNER	Y	N	N	N		PO BOX 1457	GEORGE	SAONE ET LOIRE	SOUTH AFRICA	6530	
61781	NXP08	4828	NU-PHARM INC	DIN OWNER	Y	N	Y	N		"1165 CREDITSTONE RD, UNIT 2"	VAUGHAN	ONTARIO	CANADA	L4K 4N7	
61789	WNM10	7936	WN PHARMACEUTICALS LTD.	DIN OWNER	Y	Y	N	N		2000 BRIGANTINE DRIVE	COQUITLAM	BRITISH COLUMBIA	CANADA	V3K 7B5	
61798	RQS10	5060	ROYAL BODYCARE CANADA INC.	DIN OWNER	Y	N	N	N	14	7541 CONWAY AVENUE	BURNABY	BRITISH COLUMBIA	CANADA	V5E 2P7	
61803	LZI95	6236	LONZA INC.	DIN OWNER	Y	Y	N	N		90 BOROLINE ROAD	ALLENDALE	NEW JERSEY	UNITED STATES	7401	
61812		10114	GLAXOSMITHKLINE CONSUMER HEALTHCARE INC.	DIN OWNER	Y	Y	Y			"7333 MISSISSAUGA ROAD, 4TH FLOOR"	MISSISSAUGA	ONTARIO	CANADA	L5N 6L4	
61875	WUK08	6971	WINNERS CIRCLE PRODUCTS INC.	DIN OWNER	Y	N	N	N		10 ROYAL ORCHARD BLVD	THORNHILL	ONTARIO	CANADA	L3T 7R9	53005
61894		9448	HOLLISTER-STIER LABORATORIES LLC	DIN OWNER	Y	N	N	N		3525 NORTH REGAL STREET	SPOKANE	WASHINGTON	UNITED STATES	99207-5788	
61895		9448	HOLLISTER-STIER LABORATORIES LLC	DIN OWNER	Y	N	N	N		3525 NORTH REGAL STREET	SPOKANE	WASHINGTON	UNITED STATES	99207-5788	
61903		9448	HOLLISTER-STIER LABORATORIES LLC	DIN OWNER	Y	N	N	N		3525 NORTH REGAL STREET	SPOKANE	WASHINGTON	UNITED STATES	99207-5788	
61904		9448	HOLLISTER-STIER LABORATORIES LLC	DIN OWNER	Y	N	N	N		3525 NORTH REGAL STREET	SPOKANE	WASHINGTON	UNITED STATES	99207-5788	
61907		9448	HOLLISTER-STIER LABORATORIES LLC	DIN OWNER	Y	N	N	N		3525 NORTH REGAL STREET	SPOKANE	WASHINGTON	UNITED STATES	99207-5788	
61908		9448	HOLLISTER-STIER LABORATORIES LLC	DIN OWNER	Y	N	N	N		3525 NORTH REGAL STREET	SPOKANE	WASHINGTON	UNITED STATES	99207-5788	
61911		9448	HOLLISTER-STIER LABORATORIES LLC	DIN OWNER	Y	N	N	N		3525 NORTH REGAL STREET	SPOKANE	WASHINGTON	UNITED STATES	99207-5788	
61912		9448	HOLLISTER-STIER LABORATORIES LLC	DIN OWNER	Y	N	N	N		3525 NORTH REGAL STREET	SPOKANE	WASHINGTON	UNITED STATES	99207-5788	
61915		9448	HOLLISTER-STIER LABORATORIES LLC	DIN OWNER	Y	N	N	N		3525 NORTH REGAL STREET	SPOKANE	WASHINGTON	UNITED STATES	99207-5788	
61916		9448	HOLLISTER-STIER LABORATORIES LLC	DIN OWNER	Y	N	N	N		3525 NORTH REGAL STREET	SPOKANE	WASHINGTON	UNITED STATES	99207-5788	
61920		9448	HOLLISTER-STIER LABORATORIES LLC	DIN OWNER	Y	N	N	N		3525 NORTH REGAL STREET	SPOKANE	WASHINGTON	UNITED STATES	99207-5788	
61921		9448	HOLLISTER-STIER LABORATORIES LLC	DIN OWNER	Y	N	N	N		3525 NORTH REGAL STREET	SPOKANE	WASHINGTON	UNITED STATES	99207-5788	
61924		9448	HOLLISTER-STIER LABORATORIES LLC	DIN OWNER	Y	N	N	N		3525 NORTH REGAL STREET	SPOKANE	WASHINGTON	UNITED STATES	99207-5788	
61925		9448	HOLLISTER-STIER LABORATORIES LLC	DIN OWNER	Y	N	N	N		3525 NORTH REGAL STREET	SPOKANE	WASHINGTON	UNITED STATES	99207-5788	
61957		8715	"AU NATUREL, INC."	DIN OWNER	Y	N	N	N	2B	1500 KEARNS BLVD.	PARK CITY	UTAH	UNITED STATES	84060	
61962	ALC08	3594	ALCON CANADA INC	DIN OWNER	Y	Y	Y	N		2665 MEADOWPINE BLVD	MISSISSAUGA	ONTARIO	CANADA	L5N 8C7	
61988	BEK95	6873	GARDEN STATE NUTRITIONALS	DIN OWNER	Y	Y	Y	N		8 HENDERSON DR.	WEST CALDWELL	NEW JERSEY	UNITED STATES	7006	
61999	JMP08	4413	JOHNSON & JOHNSON MEDICAL PRODUCTS	DIN OWNER	Y	Y	Y	N		200 WHITEHALL DRIVE	MARKHAM	ONTARIO	CANADA	L3R 0T5	
62000	PGA08	4911	PROCTER & GAMBLE INC	DIN OWNER	Y	N	N	N		4711 YONGE STREET	TORONTO	ONTARIO	CANADA	M2N 6K8	
62007	MFF08	6268	ABUNDANCE NATURALLY LTD	DIN OWNER	Y	N	Y	N	UNIT 5	4090 RIDGEWAY DR	MISSISSAUGA	ONTARIO	CANADA	L5L 5X5	
62020	PIA08	8481	PALADIN LABS INC	DIN OWNER	Y	Y	Y	N		"100 BLVD ALEXIS-NIHON, SUITE 600"	SAINT-LAURENT	QUEBEC	CANADA	H4M 2P2	
62041		7066	PENTAPHARM LTD.	DIN OWNER	Y	Y	Y	N		3 GLENDINNING AVE.	TORONTO	ONTARIO	CANADA	M1W 3E2	
62102		7199	"OMNI LABORATORIES DIVISION, WARNER-LAMBERT CANADA INC."	DIN OWNER	Y	N	N	N		"2200 EGLINTON AVENUE, EAST"	SCARBOROUGH	ONTARIO	CANADA	M1L 2N3	
62103		7199	"OMNI LABORATORIES DIVISION, WARNER-LAMBERT CANADA INC."	DIN OWNER	Y	N	N	N		"2200 EGLINTON AVENUE, EAST"	SCARBOROUGH	ONTARIO	CANADA	M1L 2N3	
62104		7199	"OMNI LABORATORIES DIVISION, WARNER-LAMBERT CANADA INC."	DIN OWNER	Y	N	N	N		"2200 EGLINTON AVENUE, EAST"	SCARBOROUGH	ONTARIO	CANADA	M1L 2N3	
62115		12428	SANOFI PASTEUR LIMITED	DIN OWNER	Y	Y	Y			1755 STEELES AVENUE WEST	TORONTO	ONTARIO	CANADA	M2R 3T4	
62116		12428	SANOFI PASTEUR LIMITED	DIN OWNER	Y	Y	Y			1755 STEELES AVENUE WEST	TORONTO	ONTARIO	CANADA	M2R 3T4	
62118		8715	"AU NATUREL, INC."	DIN OWNER	Y	N	N	N	2B	1500 KEARNS BLVD.	PARK CITY	UTAH	UNITED STATES	84060	
62132	AOY95	3628	A&L LABORATORIES INC.	DIN OWNER	Y	N	N	N		1001 GLENWOOD AVENUE	MINNEAPOLIS	MINNESOTA	UNITED STATES	55405	
62133	AOY95	3628	A&L LABORATORIES INC.	DIN OWNER	Y	N	N	N		1001 GLENWOOD AVENUE	MINNEAPOLIS	MINNESOTA	UNITED STATES	55405	
62148	LZI95	6236	LONZA INC.	DIN OWNER	Y	Y	N	N		90 BOROLINE ROAD	ALLENDALE	NEW JERSEY	UNITED STATES	7401	
62152		8715	"AU NATUREL, INC."	DIN OWNER	Y	N	N	N	2B	1500 KEARNS BLVD.	PARK CITY	UTAH	UNITED STATES	84060	
62154		8715	"AU NATUREL, INC."	DIN OWNER	Y	N	N	N	2B	1500 KEARNS BLVD.	PARK CITY	UTAH	UNITED STATES	84060	
62155		8715	"AU NATUREL, INC."	DIN OWNER	Y	N	N	N	2B	1500 KEARNS BLVD.	PARK CITY	UTAH	UNITED STATES	84060	
62156		8715	"AU NATUREL, INC."	DIN OWNER	Y	N	N	N	2B	1500 KEARNS BLVD.	PARK CITY	UTAH	UNITED STATES	84060	
62157		8715	"AU NATUREL, INC."	DIN OWNER	Y	N	N	N	2B	1500 KEARNS BLVD.	PARK CITY	UTAH	UNITED STATES	84060	
62172	BEK95	6873	GARDEN STATE NUTRITIONALS	DIN OWNER	Y	Y	Y	N		8 HENDERSON DR.	WEST CALDWELL	NEW JERSEY	UNITED STATES	7006	
62176	WLA08	5417	WARNER-LAMBERT CANADA INC.	DIN OWNER	Y	N	N	N		2200 EGLINTON AVENUE EAST	TORONTO	ONTARIO	CANADA	M1L 2N3	
62188	AVV95	5575	"ALVA-AMCO PHARMACAL COMPANIES, INC."	DIN OWNER	Y	Y	Y	N		7711 MERRIMAC AVENUE	NILES	ILLINOIS	UNITED STATES	60714-3423	
62194	PMS07	3550	PHARMASCIENCE INC	DIN OWNER	Y	Y	Y	N	100	"6111, ROYALMOUNT AVENUE"	MONTREAL	QUEBEC	CANADA	H4P 2T4	
62195	PMS07	3550	PHARMASCIENCE INC	DIN OWNER	Y	Y	Y	N	100	"6111, ROYALMOUNT AVENUE"	MONTREAL	QUEBEC	CANADA	H4P 2T4	
62213	CIF08	3903	C.P. INDUSTRIES LTD	DIN OWNER	Y	Y	Y	N		535 DICKSON DRIVE	FERGUS	ONTARIO	CANADA	N1M 2W8	P.O. BOX 300
62223	TUP99	6698	TP HEALTH LTD.	DIN OWNER	Y	Y	Y	N		PACIFIC HIGHWAY	BALLINA	NEW SOUTH WALES	AUSTRALIA	2478	
62226		10139	IVAX PHARMACEUTICALS INCORPORATED	DIN OWNER	Y	N	N			4400 BISCAYNE BLVD	MIAMI	FLORIDA	UNITED STATES	33137	
62227		10139	IVAX PHARMACEUTICALS INCORPORATED	DIN OWNER	Y	N	N			4400 BISCAYNE BLVD	MIAMI	FLORIDA	UNITED STATES	33137	
62228		10139	IVAX PHARMACEUTICALS INCORPORATED	DIN OWNER	Y	N	N			4400 BISCAYNE BLVD	MIAMI	FLORIDA	UNITED STATES	33137	
62229		10139	IVAX PHARMACEUTICALS INCORPORATED	DIN OWNER	Y	N	N			4400 BISCAYNE BLVD	MIAMI	FLORIDA	UNITED STATES	33137	
62230	NXP08	4828	NU-PHARM INC	DIN OWNER	Y	N	Y	N		"1165 CREDITSTONE RD, UNIT 2"	VAUGHAN	ONTARIO	CANADA	L4K 4N7	
62238		7619	LICHTWER HEALTHCARE GMBH & CO KG	DIN OWNER	Y	N	N	N		WALLENRODER STRASSE 12-14	BERLIN	SAONE ET LOIRE	GERMANY	13435	
62255	DPC07	4065	DOMINION PHARMACAL	DIN OWNER	Y	Y	Y	N	SUITE 100	"6111, AVENUE ROYALMOUNT"	MONTREAL	QUEBEC	CANADA	H4P 2T4	
62256	PMS07	3550	PHARMASCIENCE INC	DIN OWNER	Y	Y	Y	N	100	"6111, ROYALMOUNT AVENUE"	MONTREAL	QUEBEC	CANADA	H4P 2T4	
62265	XYG07	6837	LABORATOIRES CONFAB INC	DIN OWNER	Y	Y	Y	N		4355 BOUL. SIR WILFRID LAURIER	ST-HUBERT	QUEBEC	CANADA	J3Y 3X3	
62266	JGD95	4412	PERRIGO INTERNATIONAL	DIN OWNER	Y	Y	Y	N		515 EASTERN AVE	ALLEGAN	MICHIGAN	UNITED STATES	49010-1327	
62347		7135	MEYER ZALL LABORATORIES PTY LTD.	DIN OWNER	Y	N	N	N		PO BOX 1457	GEORGE	SAONE ET LOIRE	SOUTH AFRICA	6530	
62351	PGA08	4911	PROCTER & GAMBLE INC	DIN OWNER	Y	N	N	N		4711 YONGE STREET	TORONTO	ONTARIO	CANADA	M2N 6K8	
62377	BEK95	6873	GARDEN STATE NUTRITIONALS	DIN OWNER	Y	Y	Y	N		8 HENDERSON DR.	WEST CALDWELL	NEW JERSEY	UNITED STATES	7006	
62378	BEK95	6873	GARDEN STATE NUTRITIONALS	DIN OWNER	Y	Y	Y	N		8 HENDERSON DR.	WEST CALDWELL	NEW JERSEY	UNITED STATES	7006	
62379	BEK95	6873	GARDEN STATE NUTRITIONALS	DIN OWNER	Y	Y	Y	N		8 HENDERSON DR.	WEST CALDWELL	NEW JERSEY	UNITED STATES	7006	
62380	BEK95	6873	GARDEN STATE NUTRITIONALS	DIN OWNER	Y	Y	Y	N		8 HENDERSON DR.	WEST CALDWELL	NEW JERSEY	UNITED STATES	7006	
62381	BEK95	6873	GARDEN STATE NUTRITIONALS	DIN OWNER	Y	Y	Y	N		8 HENDERSON DR.	WEST CALDWELL	NEW JERSEY	UNITED STATES	7006	
62382	BEK95	6873	GARDEN STATE NUTRITIONALS	DIN OWNER	Y	Y	Y	N		8 HENDERSON DR.	WEST CALDWELL	NEW JERSEY	UNITED STATES	7006	
62383	BEK95	6873	GARDEN STATE NUTRITIONALS	DIN OWNER	Y	Y	Y	N		8 HENDERSON DR.	WEST CALDWELL	NEW JERSEY	UNITED STATES	7006	
62384	BEK95	6873	GARDEN STATE NUTRITIONALS	DIN OWNER	Y	Y	Y	N		8 HENDERSON DR.	WEST CALDWELL	NEW JERSEY	UNITED STATES	7006	
62385	BEK95	6873	GARDEN STATE NUTRITIONALS	DIN OWNER	Y	Y	Y	N		8 HENDERSON DR.	WEST CALDWELL	NEW JERSEY	UNITED STATES	7006	
62386	BEK95	6873	GARDEN STATE NUTRITIONALS	DIN OWNER	Y	Y	Y	N		8 HENDERSON DR.	WEST CALDWELL	NEW JERSEY	UNITED STATES	7006	
62387	BEK95	6873	GARDEN STATE NUTRITIONALS	DIN OWNER	Y	Y	Y	N		8 HENDERSON DR.	WEST CALDWELL	NEW JERSEY	UNITED STATES	7006	
62388	BEK95	6873	GARDEN STATE NUTRITIONALS	DIN OWNER	Y	Y	Y	N		8 HENDERSON DR.	WEST CALDWELL	NEW JERSEY	UNITED STATES	7006	
62392	BEK95	6873	GARDEN STATE NUTRITIONALS	DIN OWNER	Y	Y	Y	N		8 HENDERSON DR.	WEST CALDWELL	NEW JERSEY	UNITED STATES	7006	
62393	BEK95	6873	GARDEN STATE NUTRITIONALS	DIN OWNER	Y	Y	Y	N		8 HENDERSON DR.	WEST CALDWELL	NEW JERSEY	UNITED STATES	7006	
62394	BEK95	6873	GARDEN STATE NUTRITIONALS	DIN OWNER	Y	Y	Y	N		8 HENDERSON DR.	WEST CALDWELL	NEW JERSEY	UNITED STATES	7006	
62395	BEK95	6873	GARDEN STATE NUTRITIONALS	DIN OWNER	Y	Y	Y	N		8 HENDERSON DR.	WEST CALDWELL	NEW JERSEY	UNITED STATES	7006	
62396	BEK95	6873	GARDEN STATE NUTRITIONALS	DIN OWNER	Y	Y	Y	N		8 HENDERSON DR.	WEST CALDWELL	NEW JERSEY	UNITED STATES	7006	
62397	BEK95	6873	GARDEN STATE NUTRITIONALS	DIN OWNER	Y	Y	Y	N		8 HENDERSON DR.	WEST CALDWELL	NEW JERSEY	UNITED STATES	7006	
62399	BEK95	6873	GARDEN STATE NUTRITIONALS	DIN OWNER	Y	Y	Y	N		8 HENDERSON DR.	WEST CALDWELL	NEW JERSEY	UNITED STATES	7006	
62400	LZI95	6236	LONZA INC.	DIN OWNER	Y	Y	N	N		90 BOROLINE ROAD	ALLENDALE	NEW JERSEY	UNITED STATES	7401	
62446		7844	PARADISE PROMOTIONS LTD.	DIN OWNER	Y	Y	Y	N		13 GEORGE ST	NOVAR	ONTARIO	CANADA	P0A 1R0	394
62453		8715	"AU NATUREL, INC."	DIN OWNER	Y	N	N	N	2B	1500 KEARNS BLVD.	PARK CITY	UTAH	UNITED STATES	84060	
62484	WTR09	5450	WESTCAN PHARMACEUTICALS LTD.	DIN OWNER	Y	N	N	N		150 BEGHIN AVENUE	WINNIPEG	MANITOBA	CANADA	R2J 3W2	
62485	WTR09	5450	WESTCAN PHARMACEUTICALS LTD.	DIN OWNER	Y	N	N	N		150 BEGHIN AVENUE	WINNIPEG	MANITOBA	CANADA	R2J 3W2	
62486	WTR09	5450	WESTCAN PHARMACEUTICALS LTD.	DIN OWNER	Y	N	N	N		150 BEGHIN AVENUE	WINNIPEG	MANITOBA	CANADA	R2J 3W2	
62493	TAN08	5240	TANTA PHARMACEUTICALS INC	DIN OWNER	Y	Y	Y	N		1009 BURNS STREET EAST	WHITBY	ONTARIO	CANADA	L1N 6A6	
62494	TAN08	5240	TANTA PHARMACEUTICALS INC	DIN OWNER	Y	Y	Y	N		1009 BURNS STREET EAST	WHITBY	ONTARIO	CANADA	L1N 6A6	
62496	WLA08	5417	WARNER-LAMBERT CANADA INC.	DIN OWNER	Y	N	N	N		2200 EGLINTON AVENUE EAST	TORONTO	ONTARIO	CANADA	M1L 2N3	
62515	JPC10	4415	JAMP PHARMA CORPORATION	DIN OWNER	Y	Y	Y	N		1310 RUE NOBEL	BOUCHERVILLE	QUEBEC	CANADA	J4B 5H3	
62525		7066	PENTAPHARM LTD.	DIN OWNER	Y	Y	Y	N		3 GLENDINNING AVE.	TORONTO	ONTARIO	CANADA	M1W 3E2	
62526		7066	PENTAPHARM LTD.	DIN OWNER	Y	Y	Y	N		3 GLENDINNING AVE.	TORONTO	ONTARIO	CANADA	M1W 3E2	
62527		7066	PENTAPHARM LTD.	DIN OWNER	Y	Y	Y	N		3 GLENDINNING AVE.	TORONTO	ONTARIO	CANADA	M1W 3E2	
62529		7066	PENTAPHARM LTD.	DIN OWNER	Y	Y	Y	N		3 GLENDINNING AVE.	TORONTO	ONTARIO	CANADA	M1W 3E2	
62530		7066	PENTAPHARM LTD.	DIN OWNER	Y	Y	Y	N		3 GLENDINNING AVE.	TORONTO	ONTARIO	CANADA	M1W 3E2	
62531		7066	PENTAPHARM LTD.	DIN OWNER	Y	Y	Y	N		3 GLENDINNING AVE.	TORONTO	ONTARIO	CANADA	M1W 3E2	
62535	RIV07	5034	LABORATOIRE RIVA INC	DIN OWNER	Y	Y	N	N		660 BOUL. INDUSTRIEL	BLAINVILLE	QUEBEC	CANADA	J7C 3V4	
62537	NXP08	4828	NU-PHARM INC	DIN OWNER	Y	N	Y	N		"1165 CREDITSTONE RD, UNIT 2"	VAUGHAN	ONTARIO	CANADA	L4K 4N7	
62565	NXP08	4828	NU-PHARM INC	DIN OWNER	Y	N	Y	N		"1165 CREDITSTONE RD, UNIT 2"	VAUGHAN	ONTARIO	CANADA	L4K 4N7	
62569		8872	"BLUEFIELD ASSOCIATES, INC."	DIN OWNER	Y	Y	Y	N		1931 LYNX PLACE	ONTARIO	CALIFORNIA	UNITED STATES	91761	
62570		8872	"BLUEFIELD ASSOCIATES, INC."	DIN OWNER	Y	Y	Y	N		1931 LYNX PLACE	ONTARIO	CALIFORNIA	UNITED STATES	91761	
62571		8872	"BLUEFIELD ASSOCIATES, INC."	DIN OWNER	Y	Y	Y	N		1931 LYNX PLACE	ONTARIO	CALIFORNIA	UNITED STATES	91761	
62572		8870	NOVATEV BIOTECHNOLOGIES INC.	DIN OWNER	Y	Y	Y	N	107	103-2609 WESTVIEW DRIVE	NORTH VANCOUVER	BRITISH COLUMBIA	CANADA	V7N 4N2	
62573		8872	"BLUEFIELD ASSOCIATES, INC."	DIN OWNER	Y	Y	Y	N		1931 LYNX PLACE	ONTARIO	CALIFORNIA	UNITED STATES	91761	
62574	PRS08	6466	PURESOURCE INC.	DIN OWNER	Y	Y	Y	N		"7018 WELLINGTON RD. 124 S, RR#7"	GUELPH	ONTARIO	CANADA	N1H 6J4	
62588	MFF08	6268	ABUNDANCE NATURALLY LTD	DIN OWNER	Y	N	Y	N	UNIT 5	4090 RIDGEWAY DR	MISSISSAUGA	ONTARIO	CANADA	L5L 5X5	
62608	WLA08	5417	WARNER-LAMBERT CANADA INC.	DIN OWNER	Y	N	N	N		2200 EGLINTON AVENUE EAST	TORONTO	ONTARIO	CANADA	M1L 2N3	
62609	WLA08	5417	WARNER-LAMBERT CANADA INC.	DIN OWNER	Y	N	N	N		2200 EGLINTON AVENUE EAST	TORONTO	ONTARIO	CANADA	M1L 2N3	
62618	WLA08	5417	WARNER-LAMBERT CANADA INC.	DIN OWNER	Y	N	N	N		2200 EGLINTON AVENUE EAST	TORONTO	ONTARIO	CANADA	M1L 2N3	
62619		7066	PENTAPHARM LTD.	DIN OWNER	Y	Y	Y	N		3 GLENDINNING AVE.	TORONTO	ONTARIO	CANADA	M1W 3E2	
62620		7066	PENTAPHARM LTD.	DIN OWNER	Y	Y	Y	N		3 GLENDINNING AVE.	TORONTO	ONTARIO	CANADA	M1W 3E2	
62621	ENI95	4137	ENRICH INTERNATIONAL	DIN OWNER	Y	N	N	N		1201 NORTH 800 EAST	OREM	UTAH	UNITED STATES	84097	
62639	LCO07	4475	LABORATOIRE LALCO INC.	DIN OWNER	Y	N	N	N		1540-42 RUE NATIONALE	TERREBONNE	QUEBEC	CANADA	J6W 6M1	
62652		8887	"FLORI ROBERTS, INC."	DIN OWNER	Y	Y	Y	N		8522 S. LAFAYETTE	CHICAGO	ILLINOIS	UNITED STATES	60620	
62653		8887	"FLORI ROBERTS, INC."	DIN OWNER	Y	Y	Y	N		8522 S. LAFAYETTE	CHICAGO	ILLINOIS	UNITED STATES	60620	
62659		8354	NORTH PACIFIC RIM MARKETING INC.	DIN OWNER	Y	Y	Y	N		"700 W. GEORGIA ST., 26TH FLOOR"	VANCOUVER	BRITISH COLUMBIA	CANADA	V7Y 1B3	10026
62660		8354	NORTH PACIFIC RIM MARKETING INC.	DIN OWNER	Y	Y	Y	N		"700 W. GEORGIA ST., 26TH FLOOR"	VANCOUVER	BRITISH COLUMBIA	CANADA	V7Y 1B3	10026
62676	NXP08	4828	NU-PHARM INC	DIN OWNER	Y	N	Y	N		"1165 CREDITSTONE RD, UNIT 2"	VAUGHAN	ONTARIO	CANADA	L4K 4N7	
62677	NXP08	4828	NU-PHARM INC	DIN OWNER	Y	N	Y	N		"1165 CREDITSTONE RD, UNIT 2"	VAUGHAN	ONTARIO	CANADA	L4K 4N7	
62678	NXP08	4828	NU-PHARM INC	DIN OWNER	Y	N	Y	N		"1165 CREDITSTONE RD, UNIT 2"	VAUGHAN	ONTARIO	CANADA	L4K 4N7	
62679	NXP08	4828	NU-PHARM INC	DIN OWNER	Y	N	Y	N		"1165 CREDITSTONE RD, UNIT 2"	VAUGHAN	ONTARIO	CANADA	L4K 4N7	
62680	NXP08	4828	NU-PHARM INC	DIN OWNER	Y	N	Y	N		"1165 CREDITSTONE RD, UNIT 2"	VAUGHAN	ONTARIO	CANADA	L4K 4N7	
62681	NXP08	4828	NU-PHARM INC	DIN OWNER	Y	N	Y	N		"1165 CREDITSTONE RD, UNIT 2"	VAUGHAN	ONTARIO	CANADA	L4K 4N7	
62682	NXP08	4828	NU-PHARM INC	DIN OWNER	Y	N	Y	N		"1165 CREDITSTONE RD, UNIT 2"	VAUGHAN	ONTARIO	CANADA	L4K 4N7	
62683	NXP08	4828	NU-PHARM INC	DIN OWNER	Y	N	Y	N		"1165 CREDITSTONE RD, UNIT 2"	VAUGHAN	ONTARIO	CANADA	L4K 4N7	
62686	NXP08	4828	NU-PHARM INC	DIN OWNER	Y	N	Y	N		"1165 CREDITSTONE RD, UNIT 2"	VAUGHAN	ONTARIO	CANADA	L4K 4N7	
62687	NXP08	4828	NU-PHARM INC	DIN OWNER	Y	N	Y	N		"1165 CREDITSTONE RD, UNIT 2"	VAUGHAN	ONTARIO	CANADA	L4K 4N7	
62688	NXP08	4828	NU-PHARM INC	DIN OWNER	Y	N	Y	N		"1165 CREDITSTONE RD, UNIT 2"	VAUGHAN	ONTARIO	CANADA	L4K 4N7	
62689	NXP08	4828	NU-PHARM INC	DIN OWNER	Y	N	Y	N		"1165 CREDITSTONE RD, UNIT 2"	VAUGHAN	ONTARIO	CANADA	L4K 4N7	
62690	NXP08	4828	NU-PHARM INC	DIN OWNER	Y	N	Y	N		"1165 CREDITSTONE RD, UNIT 2"	VAUGHAN	ONTARIO	CANADA	L4K 4N7	
62691	NXP08	4828	NU-PHARM INC	DIN OWNER	Y	N	Y	N		"1165 CREDITSTONE RD, UNIT 2"	VAUGHAN	ONTARIO	CANADA	L4K 4N7	
62692	NXP08	4828	NU-PHARM INC	DIN OWNER	Y	N	Y	N		"1165 CREDITSTONE RD, UNIT 2"	VAUGHAN	ONTARIO	CANADA	L4K 4N7	
62693	NXP08	4828	NU-PHARM INC	DIN OWNER	Y	N	Y	N		"1165 CREDITSTONE RD, UNIT 2"	VAUGHAN	ONTARIO	CANADA	L4K 4N7	
62696	NXP08	4828	NU-PHARM INC	DIN OWNER	Y	N	Y	N		"1165 CREDITSTONE RD, UNIT 2"	VAUGHAN	ONTARIO	CANADA	L4K 4N7	
62697	NXP08	4828	NU-PHARM INC	DIN OWNER	Y	N	Y	N		"1165 CREDITSTONE RD, UNIT 2"	VAUGHAN	ONTARIO	CANADA	L4K 4N7	
62701	PMS07	3550	PHARMASCIENCE INC	DIN OWNER	Y	Y	Y	N	100	"6111, ROYALMOUNT AVENUE"	MONTREAL	QUEBEC	CANADA	H4P 2T4	
62702	PMS07	3550	PHARMASCIENCE INC	DIN OWNER	Y	Y	Y	N	100	"6111, ROYALMOUNT AVENUE"	MONTREAL	QUEBEC	CANADA	H4P 2T4	
62703	PMS07	3550	PHARMASCIENCE INC	DIN OWNER	Y	Y	Y	N	100	"6111, ROYALMOUNT AVENUE"	MONTREAL	QUEBEC	CANADA	H4P 2T4	
62704	PMS07	3550	PHARMASCIENCE INC	DIN OWNER	Y	Y	Y	N	100	"6111, ROYALMOUNT AVENUE"	MONTREAL	QUEBEC	CANADA	H4P 2T4	
62705	PMS07	3550	PHARMASCIENCE INC	DIN OWNER	Y	Y	Y	N	100	"6111, ROYALMOUNT AVENUE"	MONTREAL	QUEBEC	CANADA	H4P 2T4	
62720		8899	"INTERNATIONAL HERITAGE, INC."	DIN OWNER	Y	Y	Y	N	200	2626 GLENWOOD AVE.	RALEIGH	NORTH CAROLINA	UNITED STATES	27608	
62723		8902	CORPORATION EMUOL	DIN OWNER	Y	Y	Y	N		912 PLACE TRANS CANADA	LONGUEUIL	QUEBEC	CANADA	J4G 2M1	
62724		8902	CORPORATION EMUOL	DIN OWNER	Y	Y	Y	N		912 PLACE TRANS CANADA	LONGUEUIL	QUEBEC	CANADA	J4G 2M1	
62752		8706	"ENFORCER PRODUCTS, DIVISION OF ACUITY SPECIALTY PRODUCTS GROUP, INC."	DIN OWNER	Y	Y	Y	N		PO BOX 1060	CARTERSVILLE	GEORGIA	UNITED STATES	30120	1060
62773		8912	KENWOOD LABORATORIES (DIVISION OF BRADLEY PHARMACEUTICALS)	DIN OWNER	Y	Y	Y	N		383 ROUTE 46 WEST	FAIRFIELD	NEW JERSEY	UNITED STATES	07004-2402	
62801	LZI95	6236	LONZA INC.	DIN OWNER	Y	Y	N	N		90 BOROLINE ROAD	ALLENDALE	NEW JERSEY	UNITED STATES	7401	
62837	ZBI08	7038	ASHBURY RESEARCH CORPORATION	DIN OWNER	Y	Y	Y	N		349 WILDCAT ROAD	TORONTO	ONTARIO	CANADA	M3J 2S3	
62838	ZBI08	7038	ASHBURY RESEARCH CORPORATION	DIN OWNER	Y	Y	Y	N		349 WILDCAT ROAD	TORONTO	ONTARIO	CANADA	M3J 2S3	
62843	ZBI08	7038	ASHBURY RESEARCH CORPORATION	DIN OWNER	Y	Y	Y	N		349 WILDCAT ROAD	TORONTO	ONTARIO	CANADA	M3J 2S3	
62862	CRI08	3962	CLASSICAL REMEDIA LTD	DIN OWNER	Y	Y	Y	N		412 DUNDAS STREET WEST	TORONTO	ONTARIO	CANADA	M5T 1G7	
62871	ZBI08	7038	ASHBURY RESEARCH CORPORATION	DIN OWNER	Y	Y	Y	N		349 WILDCAT ROAD	TORONTO	ONTARIO	CANADA	M3J 2S3	
62874		8927	MASON CHEMICAL COMPANY	DIN OWNER	Y	Y	N	N		"723 WEST ALGONQUIN ROAD, SUITE B"	ARLINGTON HEIGHTS	ILLINOIS	UNITED STATES	60005	
62875		8927	MASON CHEMICAL COMPANY	DIN OWNER	Y	Y	N	N		"723 WEST ALGONQUIN ROAD, SUITE B"	ARLINGTON HEIGHTS	ILLINOIS	UNITED STATES	60005	
62876		8927	MASON CHEMICAL COMPANY	DIN OWNER	Y	Y	N	N		"723 WEST ALGONQUIN ROAD, SUITE B"	ARLINGTON HEIGHTS	ILLINOIS	UNITED STATES	60005	
62891	WLA08	5417	WARNER-LAMBERT CANADA INC.	DIN OWNER	Y	N	N	N		2200 EGLINTON AVENUE EAST	TORONTO	ONTARIO	CANADA	M1L 2N3	
62893	WLA08	5417	WARNER-LAMBERT CANADA INC.	DIN OWNER	Y	N	N	N		2200 EGLINTON AVENUE EAST	TORONTO	ONTARIO	CANADA	M1L 2N3	
62894	WLA08	5417	WARNER-LAMBERT CANADA INC.	DIN OWNER	Y	N	N	N		2200 EGLINTON AVENUE EAST	TORONTO	ONTARIO	CANADA	M1L 2N3	
62902		7844	PARADISE PROMOTIONS LTD.	DIN OWNER	Y	Y	Y	N		13 GEORGE ST	NOVAR	ONTARIO	CANADA	P0A 1R0	394
62904	LEO08	4489	LEO PHARMA INC	DIN OWNER	Y	Y	N	N		"123 COMMERCE VALLEY DRIVE EAST, SUITE 400"	THORNHILL	ONTARIO	CANADA	L3T 7W8	
62913	ZBI08	7038	ASHBURY RESEARCH CORPORATION	DIN OWNER	Y	Y	Y	N		349 WILDCAT ROAD	TORONTO	ONTARIO	CANADA	M3J 2S3	
62914	ZBI08	7038	ASHBURY RESEARCH CORPORATION	DIN OWNER	Y	Y	Y	N		349 WILDCAT ROAD	TORONTO	ONTARIO	CANADA	M3J 2S3	
62915	ZBI08	7038	ASHBURY RESEARCH CORPORATION	DIN OWNER	Y	Y	Y	N		349 WILDCAT ROAD	TORONTO	ONTARIO	CANADA	M3J 2S3	
62916	ZBI08	7038	ASHBURY RESEARCH CORPORATION	DIN OWNER	Y	Y	Y	N		349 WILDCAT ROAD	TORONTO	ONTARIO	CANADA	M3J 2S3	
62917	ZBI08	7038	ASHBURY RESEARCH CORPORATION	DIN OWNER	Y	Y	Y	N		349 WILDCAT ROAD	TORONTO	ONTARIO	CANADA	M3J 2S3	
62921	TUP99	6698	TP HEALTH LTD.	DIN OWNER	Y	Y	Y	N		PACIFIC HIGHWAY	BALLINA	NEW SOUTH WALES	AUSTRALIA	2478	
62930		8932	NUTRAMED LABORATORIES INC.	DIN OWNER	Y	Y	Y	N		855 LAKESHORE DR.	WINDSOR	ONTARIO	CANADA	N9G 2R1	
62933	RIV07	5034	LABORATOIRE RIVA INC	DIN OWNER	Y	Y	N	N		660 BOUL. INDUSTRIEL	BLAINVILLE	QUEBEC	CANADA	J7C 3V4	
62935	ZBI08	7038	ASHBURY RESEARCH CORPORATION	DIN OWNER	Y	Y	Y	N		349 WILDCAT ROAD	TORONTO	ONTARIO	CANADA	M3J 2S3	
62936		8932	NUTRAMED LABORATORIES INC.	DIN OWNER	Y	Y	Y	N		855 LAKESHORE DR.	WINDSOR	ONTARIO	CANADA	N9G 2R1	
62937	UCH95	5308	U S CHEMICAL CORPORATION	DIN OWNER	Y	N	N	N		316 HART STREET	WATERTOWN	WISCONSIN	UNITED STATES	53094	
62938	UCH95	5308	U S CHEMICAL CORPORATION	DIN OWNER	Y	N	N	N		316 HART STREET	WATERTOWN	WISCONSIN	UNITED STATES	53094	
62981	XTT95	6835	XTTRIUM LABORATORIES INC.	DIN OWNER	Y	N	N	N		1200E BUSINESS CENTER DRIVE	MOUNT PROSPECT	ILLINOIS	UNITED STATES	60056-6041	
62982		8937	NUSANO ENTERPRISES LTD.	DIN OWNER	Y	Y	Y	N		9660 AQUILA ROAD	RICHMOND	BRITISH COLUMBIA	CANADA	V7A 3R2	
62986	ZBI08	7038	ASHBURY RESEARCH CORPORATION	DIN OWNER	Y	Y	Y	N		349 WILDCAT ROAD	TORONTO	ONTARIO	CANADA	M3J 2S3	
63005	TRS10	5288	THORNE RESEARCH CANADA LTD.	DIN OWNER	Y	N	N	N	UNIT 308	19292-60TH AVENUE	SURREY	BRITISH COLUMBIA	CANADA	V3S 3M2	
63016	NXP08	4828	NU-PHARM INC	DIN OWNER	Y	N	Y	N		"1165 CREDITSTONE RD, UNIT 2"	VAUGHAN	ONTARIO	CANADA	L4K 4N7	
63017	NXP08	4828	NU-PHARM INC	DIN OWNER	Y	N	Y	N		"1165 CREDITSTONE RD, UNIT 2"	VAUGHAN	ONTARIO	CANADA	L4K 4N7	
63018	NXP08	4828	NU-PHARM INC	DIN OWNER	Y	N	Y	N		"1165 CREDITSTONE RD, UNIT 2"	VAUGHAN	ONTARIO	CANADA	L4K 4N7	
63023	BTD08	3812	BECTON DICKINSON	DIN OWNER	Y	N	N	N		1 BECTON DRIVE	FRANKLIN LAKES	NEW JERSEY	UNITED STATES	7417	
63025	ZBI08	7038	ASHBURY RESEARCH CORPORATION	DIN OWNER	Y	Y	Y	N		349 WILDCAT ROAD	TORONTO	ONTARIO	CANADA	M3J 2S3	
63044	CRI08	3962	CLASSICAL REMEDIA LTD	DIN OWNER	Y	Y	Y	N		412 DUNDAS STREET WEST	TORONTO	ONTARIO	CANADA	M5T 1G7	
63045	CRI08	3962	CLASSICAL REMEDIA LTD	DIN OWNER	Y	Y	Y	N		412 DUNDAS STREET WEST	TORONTO	ONTARIO	CANADA	M5T 1G7	
63048		8715	"AU NATUREL, INC."	DIN OWNER	Y	N	N	N	2B	1500 KEARNS BLVD.	PARK CITY	UTAH	UNITED STATES	84060	
63050		8715	"AU NATUREL, INC."	DIN OWNER	Y	N	N	N	2B	1500 KEARNS BLVD.	PARK CITY	UTAH	UNITED STATES	84060	
63053	ABB07	3525	"ABBOTT LABORATORIES, LIMITED"	DIN OWNER	Y	N	N	N		8401 TRANS-CANADA HIGHWAY	SAINT-LAURENT	QUEBEC	CANADA	H4S 1Z1	
63054	ABB07	3525	"ABBOTT LABORATORIES, LIMITED"	DIN OWNER	Y	N	N	N		8401 TRANS-CANADA HIGHWAY	SAINT-LAURENT	QUEBEC	CANADA	H4S 1Z1	
63057		8509	STEPAN CANADA INC	DIN OWNER	Y	Y	N	N		3800 LONGFORD MILLS ROAD	LONGFORD MILLS	ONTARIO	CANADA	L0K 1L0	
63058		8509	STEPAN CANADA INC	DIN OWNER	Y	Y	N	N		3800 LONGFORD MILLS ROAD	LONGFORD MILLS	ONTARIO	CANADA	L0K 1L0	
63061		8509	STEPAN CANADA INC	DIN OWNER	Y	Y	N	N		3800 LONGFORD MILLS ROAD	LONGFORD MILLS	ONTARIO	CANADA	L0K 1L0	
63062		8509	STEPAN CANADA INC	DIN OWNER	Y	Y	N	N		3800 LONGFORD MILLS ROAD	LONGFORD MILLS	ONTARIO	CANADA	L0K 1L0	
63063		8509	STEPAN CANADA INC	DIN OWNER	Y	Y	N	N		3800 LONGFORD MILLS ROAD	LONGFORD MILLS	ONTARIO	CANADA	L0K 1L0	
63064		8509	STEPAN CANADA INC	DIN OWNER	Y	Y	N	N		3800 LONGFORD MILLS ROAD	LONGFORD MILLS	ONTARIO	CANADA	L0K 1L0	
63065		8509	STEPAN CANADA INC	DIN OWNER	Y	Y	N	N		3800 LONGFORD MILLS ROAD	LONGFORD MILLS	ONTARIO	CANADA	L0K 1L0	
63076	VLH07	5362	LUNDBECK CANADA INC	DIN OWNER	Y	N	Y	N		"2600 ALFRED-NOBEL, SUITE 400"	MONTREAL	QUEBEC	CANADA	H4S 0A9	
63081	BEK95	6873	GARDEN STATE NUTRITIONALS	DIN OWNER	Y	Y	Y	N		8 HENDERSON DR.	WEST CALDWELL	NEW JERSEY	UNITED STATES	7006	
63092	LCO07	4475	LABORATOIRE LALCO INC.	DIN OWNER	Y	N	N	N		1540-42 RUE NATIONALE	TERREBONNE	QUEBEC	CANADA	J6W 6M1	
63096	TAN08	5240	TANTA PHARMACEUTICALS INC	DIN OWNER	Y	Y	Y	N		1009 BURNS STREET EAST	WHITBY	ONTARIO	CANADA	L1N 6A6	
63097	TAN08	5240	TANTA PHARMACEUTICALS INC	DIN OWNER	Y	Y	Y	N		1009 BURNS STREET EAST	WHITBY	ONTARIO	CANADA	L1N 6A6	
63110	CGZ08	5741	GELDA SCIENTIFIC AND INDUSTRIAL DEVELOPMENT CORPORATION	DIN OWNER	Y	Y	Y	N		6320 NORTHWEST DRIVE	MISSISSAUGA	ONTARIO	CANADA	L4V 1J7	
63113		8690	"DERMALOGIX PARTNERS, INC."	DIN OWNER	Y	Y	Y	N		PO BOX 1510	SCARBOROUGH	MAINE	UNITED STATES	4070	1510
63114		8690	"DERMALOGIX PARTNERS, INC."	DIN OWNER	Y	Y	Y	N		PO BOX 1510	SCARBOROUGH	MAINE	UNITED STATES	4070	1510
63117		8354	NORTH PACIFIC RIM MARKETING INC.	DIN OWNER	Y	Y	Y	N		"700 W. GEORGIA ST., 26TH FLOOR"	VANCOUVER	BRITISH COLUMBIA	CANADA	V7Y 1B3	10026
63134		8975	HEALTH 2000 INC.	DIN OWNER	Y	Y	Y	N	UNIT 30	70 EAST BEAVER CREEK ROAD	RICHMOND HILL	ONTARIO	CANADA	L4B 3B2	
63208	RIV07	5034	LABORATOIRE RIVA INC	DIN OWNER	Y	Y	N	N		660 BOUL. INDUSTRIEL	BLAINVILLE	QUEBEC	CANADA	J7C 3V4	
63218		8715	"AU NATUREL, INC."	DIN OWNER	Y	N	N	N	2B	1500 KEARNS BLVD.	PARK CITY	UTAH	UNITED STATES	84060	
63291		9046	GYNÉTICS LTD/LTÉE	DIN OWNER	Y	Y	Y	N		"C/O BENNETT, JONES, VERCHERE - 3400 ONE FIRST CANADIAN PLACE"	TORONTO	ONTARIO	CANADA	M5X 1A4	130
63318	PMS07	3550	PHARMASCIENCE INC	DIN OWNER	Y	Y	Y	N	100	"6111, ROYALMOUNT AVENUE"	MONTREAL	QUEBEC	CANADA	H4P 2T4	
63323	NOP08	4773	NOVOPHARM LIMITED	DIN OWNER	Y	Y	N	N		30 NOVOPHARM COURT	TORONTO	ONTARIO	CANADA	M1B 2K9	
63353	WLA08	5417	WARNER-LAMBERT CANADA INC.	DIN OWNER	Y	N	N	N		2200 EGLINTON AVENUE EAST	TORONTO	ONTARIO	CANADA	M1L 2N3	
63364	NVR07	7277	NOVARTIS PHARMACEUTICALS CANADA INC	DIN OWNER	Y	Y	Y	N		385 BOUCHARD BLVD	DORVAL	QUEBEC	CANADA	H9S 1A9	
63366		8927	MASON CHEMICAL COMPANY	DIN OWNER	Y	Y	N	N		"723 WEST ALGONQUIN ROAD, SUITE B"	ARLINGTON HEIGHTS	ILLINOIS	UNITED STATES	60005	
63377	ZBI08	7038	ASHBURY RESEARCH CORPORATION	DIN OWNER	Y	Y	Y	N		349 WILDCAT ROAD	TORONTO	ONTARIO	CANADA	M3J 2S3	
63378	ZBI08	7038	ASHBURY RESEARCH CORPORATION	DIN OWNER	Y	Y	Y	N		349 WILDCAT ROAD	TORONTO	ONTARIO	CANADA	M3J 2S3	
63383	ZBI08	7038	ASHBURY RESEARCH CORPORATION	DIN OWNER	Y	Y	Y	N		349 WILDCAT ROAD	TORONTO	ONTARIO	CANADA	M3J 2S3	
63384	ZBI08	7038	ASHBURY RESEARCH CORPORATION	DIN OWNER	Y	Y	Y	N		349 WILDCAT ROAD	TORONTO	ONTARIO	CANADA	M3J 2S3	
63391		9121	"BORDEN CO., (PTE) LTD."	DIN OWNER	Y	N	N	N		NO. 9 JALAN KILANG	RED HILL INDUSTRIAL ESTATE	SAONE ET LOIRE	SINGAPORE	159409	
63394	WLA08	5417	WARNER-LAMBERT CANADA INC.	DIN OWNER	Y	N	N	N		2200 EGLINTON AVENUE EAST	TORONTO	ONTARIO	CANADA	M1L 2N3	
63430	WLA08	5417	WARNER-LAMBERT CANADA INC.	DIN OWNER	Y	N	N	N		2200 EGLINTON AVENUE EAST	TORONTO	ONTARIO	CANADA	M1L 2N3	
63433	WLA08	5417	WARNER-LAMBERT CANADA INC.	DIN OWNER	Y	N	N	N		2200 EGLINTON AVENUE EAST	TORONTO	ONTARIO	CANADA	M1L 2N3	
63435	CRI08	3962	CLASSICAL REMEDIA LTD	DIN OWNER	Y	Y	Y	N		412 DUNDAS STREET WEST	TORONTO	ONTARIO	CANADA	M5T 1G7	
63436	CRI08	3962	CLASSICAL REMEDIA LTD	DIN OWNER	Y	Y	Y	N		412 DUNDAS STREET WEST	TORONTO	ONTARIO	CANADA	M5T 1G7	
63444	SIL07	5123	SABEX INC	DIN OWNER	Y	N	N	N		145 RUE JULES-LEGER	BOUCHERVILLE	QUEBEC	CANADA	J4B 7K8	
63453	SDQ95	6574	STEPAN COMPANY	DIN OWNER	Y	Y	N	N		22 W. FRONTAGE ROAD	NORTHFIELD	ILLINOIS	UNITED STATES	60093	
63467	WLA08	5417	WARNER-LAMBERT CANADA INC.	DIN OWNER	Y	N	N	N		2200 EGLINTON AVENUE EAST	TORONTO	ONTARIO	CANADA	M1L 2N3	
63473	PDD07	4897	PRODEMDIS ENR.	DIN OWNER	Y	Y	N	N		4355 SIR WILFRID LAURIER	ST-HUBERT	QUEBEC	CANADA	J3Y 3X3	
63474	PDD07	4897	PRODEMDIS ENR.	DIN OWNER	Y	Y	N	N		4355 SIR WILFRID LAURIER	ST-HUBERT	QUEBEC	CANADA	J3Y 3X3	
63486	WLA08	5417	WARNER-LAMBERT CANADA INC.	DIN OWNER	Y	N	N	N		2200 EGLINTON AVENUE EAST	TORONTO	ONTARIO	CANADA	M1L 2N3	
63491	TRS10	5288	THORNE RESEARCH CANADA LTD.	DIN OWNER	Y	N	N	N	UNIT 308	19292-60TH AVENUE	SURREY	BRITISH COLUMBIA	CANADA	V3S 3M2	
63499	MFF08	6268	ABUNDANCE NATURALLY LTD	DIN OWNER	Y	N	Y	N	UNIT 5	4090 RIDGEWAY DR	MISSISSAUGA	ONTARIO	CANADA	L5L 5X5	
63500	MFF08	6268	ABUNDANCE NATURALLY LTD	DIN OWNER	Y	N	Y	N	UNIT 5	4090 RIDGEWAY DR	MISSISSAUGA	ONTARIO	CANADA	L5L 5X5	
63501	DSS08	4332	ASHBURY BIOLOGICALS INC.	DIN OWNER	Y	Y	Y	N		349 WILDCAT ROAD	TORONTO	ONTARIO	CANADA	M3J 2S3	
63502	ZBI08	7038	ASHBURY RESEARCH CORPORATION	DIN OWNER	Y	Y	Y	N		349 WILDCAT ROAD	TORONTO	ONTARIO	CANADA	M3J 2S3	
63503	ZBI08	7038	ASHBURY RESEARCH CORPORATION	DIN OWNER	Y	Y	Y	N		349 WILDCAT ROAD	TORONTO	ONTARIO	CANADA	M3J 2S3	
63504	ZBI08	7038	ASHBURY RESEARCH CORPORATION	DIN OWNER	Y	Y	Y	N		349 WILDCAT ROAD	TORONTO	ONTARIO	CANADA	M3J 2S3	
63505	ZBI08	7038	ASHBURY RESEARCH CORPORATION	DIN OWNER	Y	Y	Y	N		349 WILDCAT ROAD	TORONTO	ONTARIO	CANADA	M3J 2S3	
63506	ZBI08	7038	ASHBURY RESEARCH CORPORATION	DIN OWNER	Y	Y	Y	N		349 WILDCAT ROAD	TORONTO	ONTARIO	CANADA	M3J 2S3	
63531	WUK08	6971	WINNERS CIRCLE PRODUCTS INC.	DIN OWNER	Y	N	N	N		10 ROYAL ORCHARD BLVD	THORNHILL	ONTARIO	CANADA	L3T 7R9	53005
63536	MFF08	6268	ABUNDANCE NATURALLY LTD	DIN OWNER	Y	N	Y	N	UNIT 5	4090 RIDGEWAY DR	MISSISSAUGA	ONTARIO	CANADA	L5L 5X5	
63559	NOP08	4773	NOVOPHARM LIMITED	DIN OWNER	Y	Y	N	N		30 NOVOPHARM COURT	TORONTO	ONTARIO	CANADA	M1B 2K9	
63566		12218	BIO-TEK DIVISION OF A.B.C. COMPOUNDING CO. INC.	DIN OWNER	Y	Y	Y			6970 JONESBORO ROAD	MORROW	GEORGIA	UNITED STATES	30260	
63574	YNO08	5348	BAYER INC CONSUMER CARE	DIN OWNER	Y	N	Y	N		2920  MATHESON BLVD E	MISSISSAUGA	ONTARIO	CANADA	L4W 5R6	
63580	JMP08	4413	JOHNSON & JOHNSON MEDICAL PRODUCTS	DIN OWNER	Y	Y	Y	N		200 WHITEHALL DRIVE	MARKHAM	ONTARIO	CANADA	L3R 0T5	
63610		9167	T & T NUTRITION INC.	DIN OWNER	Y	Y	Y	N		353 BROOKSIDE RD	RICHMOND HILL	ONTARIO	CANADA	L4C 0G6	
63611		9167	T & T NUTRITION INC.	DIN OWNER	Y	Y	Y	N		353 BROOKSIDE RD	RICHMOND HILL	ONTARIO	CANADA	L4C 0G6	
63612		9167	T & T NUTRITION INC.	DIN OWNER	Y	Y	Y	N		353 BROOKSIDE RD	RICHMOND HILL	ONTARIO	CANADA	L4C 0G6	
63613		9167	T & T NUTRITION INC.	DIN OWNER	Y	Y	Y	N		353 BROOKSIDE RD	RICHMOND HILL	ONTARIO	CANADA	L4C 0G6	
63634	ZBI08	7038	ASHBURY RESEARCH CORPORATION	DIN OWNER	Y	Y	Y	N		349 WILDCAT ROAD	TORONTO	ONTARIO	CANADA	M3J 2S3	
63638	EPD08	3966	ELANCO DIVISION ELI LILLY CANADA INC	DIN OWNER	Y	N	N	N		"150 RESEARCH LANE, SUITE 120"	GUELPH	ONTARIO	CANADA	N1G 4T2	
63640		9171	ABIGO MEDICAL AB	DIN OWNER	Y	Y	N	N		DATAVÄGEN 29	ASKIM	SAONE ET LOIRE	SWEDEN	43632	
63651	AFW95	5507	NEWAYS INC.	DIN OWNER	Y	N	N	N		150 EAST 400 NORTH	SALEM	UTAH	UNITED STATES	84653	651
63669		9178	"TIANJIN TIANSHI GROUP CO., LTD."	DIN OWNER	Y	N	N	N		6 YUANQUAN ROAD	WUQING DEVELOPMENT AREA	TIANJIN	CHINA	301700	
63670		9178	"TIANJIN TIANSHI GROUP CO., LTD."	DIN OWNER	Y	N	N	N		6 YUANQUAN ROAD	WUQING DEVELOPMENT AREA	TIANJIN	CHINA	301700	
63671		9178	"TIANJIN TIANSHI GROUP CO., LTD."	DIN OWNER	Y	N	N	N		6 YUANQUAN ROAD	WUQING DEVELOPMENT AREA	TIANJIN	CHINA	301700	
63672		9178	"TIANJIN TIANSHI GROUP CO., LTD."	DIN OWNER	Y	N	N	N		6 YUANQUAN ROAD	WUQING DEVELOPMENT AREA	TIANJIN	CHINA	301700	
63673		9178	"TIANJIN TIANSHI GROUP CO., LTD."	DIN OWNER	Y	N	N	N		6 YUANQUAN ROAD	WUQING DEVELOPMENT AREA	TIANJIN	CHINA	301700	
63674	HSE07	4356	HORIZON SANTÉ INTERNATIONAL INC.	DIN OWNER	Y	Y	Y	N		500 BOUL. DE L'AEROPARC	LACHUTE	QUEBEC	CANADA	J8H 4G4	598
63675	TAN08	5240	TANTA PHARMACEUTICALS INC	DIN OWNER	Y	Y	Y	N		1009 BURNS STREET EAST	WHITBY	ONTARIO	CANADA	L1N 6A6	
63682	PGA08	4911	PROCTER & GAMBLE INC	DIN OWNER	Y	N	N	N		4711 YONGE STREET	TORONTO	ONTARIO	CANADA	M2N 6K8	
63683	PGA08	4911	PROCTER & GAMBLE INC	DIN OWNER	Y	N	N	N		4711 YONGE STREET	TORONTO	ONTARIO	CANADA	M2N 6K8	
63690	CNE07	3937	CONSTANT AMERICA INC	DIN OWNER	Y	Y	Y	N		7585 CORDNER STREET	LASALLE	QUEBEC	CANADA	H8N 2R5	
63691	CNE07	3937	CONSTANT AMERICA INC	DIN OWNER	Y	Y	Y	N		7585 CORDNER STREET	LASALLE	QUEBEC	CANADA	H8N 2R5	
63692	CNE07	3937	CONSTANT AMERICA INC	DIN OWNER	Y	Y	Y	N		7585 CORDNER STREET	LASALLE	QUEBEC	CANADA	H8N 2R5	
63693	CNE07	3937	CONSTANT AMERICA INC	DIN OWNER	Y	Y	Y	N		7585 CORDNER STREET	LASALLE	QUEBEC	CANADA	H8N 2R5	
63694	CNE07	3937	CONSTANT AMERICA INC	DIN OWNER	Y	Y	Y	N		7585 CORDNER STREET	LASALLE	QUEBEC	CANADA	H8N 2R5	
63697		9139	NUTRACEUTICAL CORPORATION	DIN OWNER	Y	N	N	N	2B	1500 KEARNS BLVD	PARK CITY	UTAH	UNITED STATES	84060	
63710	WLA08	5417	WARNER-LAMBERT CANADA INC.	DIN OWNER	Y	N	N	N		2200 EGLINTON AVENUE EAST	TORONTO	ONTARIO	CANADA	M1L 2N3	
63726	PRS08	6466	PURESOURCE INC.	DIN OWNER	Y	Y	Y	N		"7018 WELLINGTON RD. 124 S, RR#7"	GUELPH	ONTARIO	CANADA	N1H 6J4	
63734	WJG95	6790	KROEGER HERB PRODUCTS	DIN OWNER	Y	N	N	N		805 WALNUT STREET	BOULDER	COLORADO	UNITED STATES	80302	
63744	MFF08	6268	ABUNDANCE NATURALLY LTD	DIN OWNER	Y	N	Y	N	UNIT 5	4090 RIDGEWAY DR	MISSISSAUGA	ONTARIO	CANADA	L5L 5X5	
63750	CIE95	3900	"CCA INDUSTRIES, INC."	DIN OWNER	Y	Y	Y	N		"65 CHALLENGER ROAD, SUITE 340"	RIDGEFIELD PARK	NEW JERSEY	UNITED STATES	7660	
63751	CIE95	3900	"CCA INDUSTRIES, INC."	DIN OWNER	Y	Y	Y	N		"65 CHALLENGER ROAD, SUITE 340"	RIDGEFIELD PARK	NEW JERSEY	UNITED STATES	7660	
63752	CIE95	3900	"CCA INDUSTRIES, INC."	DIN OWNER	Y	Y	Y	N		"65 CHALLENGER ROAD, SUITE 340"	RIDGEFIELD PARK	NEW JERSEY	UNITED STATES	7660	
63761		10845	BIOVITRUM AB (PUBL)	DIN OWNER	Y	N	N			STRANDBERGSGATAN 49	STOCKHOLM	SAONE ET LOIRE	SWEDEN	11276	
63794	SDQ95	6574	STEPAN COMPANY	DIN OWNER	Y	Y	N	N		22 W. FRONTAGE ROAD	NORTHFIELD	ILLINOIS	UNITED STATES	60093	
63799		9805	EUROVET ANIMAL HEALTH B.V.	DIN OWNER	Y	N	N			HANDELSWEG 25	BLADEL	NOORD-BRABANT	NETHERLANDS	5531 AE	
63812		8627	NUTRIVENTION NUTRITIONAL PRODUCTS	DIN OWNER	Y	Y	Y	N		6203 WOODLAKE CENTER	SAN ANTONIO	TEXAS	UNITED STATES	78244	
63828	ZBI08	7038	ASHBURY RESEARCH CORPORATION	DIN OWNER	Y	Y	Y	N		349 WILDCAT ROAD	TORONTO	ONTARIO	CANADA	M3J 2S3	
63860	TRS10	5288	THORNE RESEARCH CANADA LTD.	DIN OWNER	Y	N	N	N	UNIT 308	19292-60TH AVENUE	SURREY	BRITISH COLUMBIA	CANADA	V3S 3M2	
63868		7068	LIGAND PHARMACEUTICALS INC.	DIN OWNER	Y	Y	Y	N		10275 SCIENCE CENTER DRIVE	SAN DIEGO	CALIFORNIA	UNITED STATES	92121	
63879	GCC08	4231	GERMIPHENE CORPORATION	DIN OWNER	Y	Y	Y	N		1379 COLBORNE STREET EAST	BRANTFORD	ONTARIO	CANADA	N3T 5M1	
63880	ZBI08	7038	ASHBURY RESEARCH CORPORATION	DIN OWNER	Y	Y	Y	N		349 WILDCAT ROAD	TORONTO	ONTARIO	CANADA	M3J 2S3	
63890	WTR09	5450	WESTCAN PHARMACEUTICALS LTD.	DIN OWNER	Y	N	N	N		150 BEGHIN AVENUE	WINNIPEG	MANITOBA	CANADA	R2J 3W2	
63895	TUP99	6698	TP HEALTH LTD.	DIN OWNER	Y	Y	Y	N		PACIFIC HIGHWAY	BALLINA	NEW SOUTH WALES	AUSTRALIA	2478	
63896	ZBI08	7038	ASHBURY RESEARCH CORPORATION	DIN OWNER	Y	Y	Y	N		349 WILDCAT ROAD	TORONTO	ONTARIO	CANADA	M3J 2S3	
63897	ZBI08	7038	ASHBURY RESEARCH CORPORATION	DIN OWNER	Y	Y	Y	N		349 WILDCAT ROAD	TORONTO	ONTARIO	CANADA	M3J 2S3	
63919		9193	CON-O-LAB (1997) MANUFACTURERS LTD	DIN OWNER	Y	Y	Y	N		9266 MAIN STREET	RICHIBUCTO	NEW BRUNSWICK	CANADA	E4W 4C7	
63930		8627	NUTRIVENTION NUTRITIONAL PRODUCTS	DIN OWNER	Y	Y	Y	N		6203 WOODLAKE CENTER	SAN ANTONIO	TEXAS	UNITED STATES	78244	
63971	MFF08	6268	ABUNDANCE NATURALLY LTD	DIN OWNER	Y	N	Y	N	UNIT 5	4090 RIDGEWAY DR	MISSISSAUGA	ONTARIO	CANADA	L5L 5X5	
63986	TRS10	5288	THORNE RESEARCH CANADA LTD.	DIN OWNER	Y	N	N	N	UNIT 308	19292-60TH AVENUE	SURREY	BRITISH COLUMBIA	CANADA	V3S 3M2	
64005	ZBI08	7038	ASHBURY RESEARCH CORPORATION	DIN OWNER	Y	Y	Y	N		349 WILDCAT ROAD	TORONTO	ONTARIO	CANADA	M3J 2S3	
64006	ZBI08	7038	ASHBURY RESEARCH CORPORATION	DIN OWNER	Y	Y	Y	N		349 WILDCAT ROAD	TORONTO	ONTARIO	CANADA	M3J 2S3	
64041	PHH07	4917	PHARMEL INC	DIN OWNER	Y	Y	Y	N		"6111, AVENUE ROYALMOUNT, SUITE 100"	MONTREAL	QUEBEC	CANADA	H4P 2T4	
64093	GPR08	4272	GOLDEN PRIDE/RAWLEIGH	DIN OWNER	Y	N	N	N		6847-2 HIRAM DRIVE	GREELY	ONTARIO	CANADA	K4P 1A2	
64095	ZBI08	7038	ASHBURY RESEARCH CORPORATION	DIN OWNER	Y	Y	Y	N		349 WILDCAT ROAD	TORONTO	ONTARIO	CANADA	M3J 2S3	
64098	PDD07	4897	PRODEMDIS ENR.	DIN OWNER	Y	Y	N	N		4355 SIR WILFRID LAURIER	ST-HUBERT	QUEBEC	CANADA	J3Y 3X3	
64104	TRS10	5288	THORNE RESEARCH CANADA LTD.	DIN OWNER	Y	N	N	N	UNIT 308	19292-60TH AVENUE	SURREY	BRITISH COLUMBIA	CANADA	V3S 3M2	
64105	SFK08	5205	SEAFORD PHARMACEUTICALS INC	DIN OWNER	Y	Y	Y	N	UNIT 28	1530 DREW ROAD	MISSISSAUGA	ONTARIO	CANADA	L5S 1W8	
64118		9256	AKZO NOBEL SURFACE CHEMISTRY AB	DIN OWNER	Y	Y	Y	N		STENUNGSTORG	STENUNGSUND	SAONE ET LOIRE	SWEDEN	44485	
64124	ZBI08	7038	ASHBURY RESEARCH CORPORATION	DIN OWNER	Y	Y	Y	N		349 WILDCAT ROAD	TORONTO	ONTARIO	CANADA	M3J 2S3	
64127	ZBI08	7038	ASHBURY RESEARCH CORPORATION	DIN OWNER	Y	Y	Y	N		349 WILDCAT ROAD	TORONTO	ONTARIO	CANADA	M3J 2S3	
64137	RIV07	5034	LABORATOIRE RIVA INC	DIN OWNER	Y	Y	N	N		660 BOUL. INDUSTRIEL	BLAINVILLE	QUEBEC	CANADA	J7C 3V4	
64138	RIV07	5034	LABORATOIRE RIVA INC	DIN OWNER	Y	Y	N	N		660 BOUL. INDUSTRIEL	BLAINVILLE	QUEBEC	CANADA	J7C 3V4	
64146	MFF08	6268	ABUNDANCE NATURALLY LTD	DIN OWNER	Y	N	Y	N	UNIT 5	4090 RIDGEWAY DR	MISSISSAUGA	ONTARIO	CANADA	L5L 5X5	
64149	WLA08	5417	WARNER-LAMBERT CANADA INC.	DIN OWNER	Y	N	N	N		2200 EGLINTON AVENUE EAST	TORONTO	ONTARIO	CANADA	M1L 2N3	
64154		9238	NPR LABORATORIES INC.	DIN OWNER	Y	Y	Y	N		6415-64TH AVE	DELTA	BRITISH COLUMBIA	CANADA	V4K 4E2	
64155	WLA08	5417	WARNER-LAMBERT CANADA INC.	DIN OWNER	Y	N	N	N		2200 EGLINTON AVENUE EAST	TORONTO	ONTARIO	CANADA	M1L 2N3	
64156		9238	NPR LABORATORIES INC.	DIN OWNER	Y	Y	Y	N		6415-64TH AVE	DELTA	BRITISH COLUMBIA	CANADA	V4K 4E2	
64165	WLA08	5417	WARNER-LAMBERT CANADA INC.	DIN OWNER	Y	N	N	N		2200 EGLINTON AVENUE EAST	TORONTO	ONTARIO	CANADA	M1L 2N3	
64168	LIG95	6205	LEE PHARMACEUTICALS INC.	DIN OWNER	Y	Y	Y	N		1434 SANTA ANITA AVENUE	SOUTH EL MONTE	CALIFORNIA	UNITED STATES	91733	
64171	NXP08	4828	NU-PHARM INC	DIN OWNER	Y	N	Y	N		"1165 CREDITSTONE RD, UNIT 2"	VAUGHAN	ONTARIO	CANADA	L4K 4N7	
64179	BTD08	3812	BECTON DICKINSON	DIN OWNER	Y	N	N	N		1 BECTON DRIVE	FRANKLIN LAKES	NEW JERSEY	UNITED STATES	7417	
64187	NBK35	4720	NORBROOK LABORATORIES LTD.	DIN OWNER	Y	N	N	N		"STATION WORKS, CAMLOUGH ROAD"	"NEWRY, COUNTY DOWN"	NORTHERN IRELAND	UNITED KINGDOM	BT35 6JP	
64198		8278	QUANTOFILL INC.	DIN OWNER	Y	Y	Y	N	UNIT 11	1215 WALKER ROAD	WINDSOR	ONTARIO	CANADA	N8Y 2N9	
64199		8278	QUANTOFILL INC.	DIN OWNER	Y	Y	Y	N	UNIT 11	1215 WALKER ROAD	WINDSOR	ONTARIO	CANADA	N8Y 2N9	
64201		8278	QUANTOFILL INC.	DIN OWNER	Y	Y	Y	N	UNIT 11	1215 WALKER ROAD	WINDSOR	ONTARIO	CANADA	N8Y 2N9	
64210		9279	GLORY (CANADA) BIOLOGICAL TECHNOLOGY INC.	DIN OWNER	Y	Y	Y	N		3118-12811 ROWAN PLACE	RICHMOND	BRITISH COLUMBIA	CANADA	V6V 2S5	
64235		9082	BIOCOSMETIC RESEARCH LABS DIVISION OF MANA PRODUCTS INC.	DIN OWNER	Y	Y	Y	N		32 -02 QUEENS BOULEVARD	LONG ISLAND CITY	NEW YORK	UNITED STATES	11101	
64236		9082	BIOCOSMETIC RESEARCH LABS DIVISION OF MANA PRODUCTS INC.	DIN OWNER	Y	Y	Y	N		32 -02 QUEENS BOULEVARD	LONG ISLAND CITY	NEW YORK	UNITED STATES	11101	
64240	ZBI08	7038	ASHBURY RESEARCH CORPORATION	DIN OWNER	Y	Y	Y	N		349 WILDCAT ROAD	TORONTO	ONTARIO	CANADA	M3J 2S3	
64283	ZBI08	7038	ASHBURY RESEARCH CORPORATION	DIN OWNER	Y	Y	Y	N		349 WILDCAT ROAD	TORONTO	ONTARIO	CANADA	M3J 2S3	
64284	ZBI08	7038	ASHBURY RESEARCH CORPORATION	DIN OWNER	Y	Y	Y	N		349 WILDCAT ROAD	TORONTO	ONTARIO	CANADA	M3J 2S3	
64294	MFF08	6268	ABUNDANCE NATURALLY LTD	DIN OWNER	Y	N	Y	N	UNIT 5	4090 RIDGEWAY DR	MISSISSAUGA	ONTARIO	CANADA	L5L 5X5	
64302		9139	NUTRACEUTICAL CORPORATION	DIN OWNER	Y	N	N	N	2B	1500 KEARNS BLVD	PARK CITY	UTAH	UNITED STATES	84060	
64304		9139	NUTRACEUTICAL CORPORATION	DIN OWNER	Y	N	N	N	2B	1500 KEARNS BLVD	PARK CITY	UTAH	UNITED STATES	84060	
64328	ZBI08	7038	ASHBURY RESEARCH CORPORATION	DIN OWNER	Y	Y	Y	N		349 WILDCAT ROAD	TORONTO	ONTARIO	CANADA	M3J 2S3	
64354		8278	QUANTOFILL INC.	DIN OWNER	Y	Y	Y	N	UNIT 11	1215 WALKER ROAD	WINDSOR	ONTARIO	CANADA	N8Y 2N9	
64385	MFF08	6268	ABUNDANCE NATURALLY LTD	DIN OWNER	Y	N	Y	N	UNIT 5	4090 RIDGEWAY DR	MISSISSAUGA	ONTARIO	CANADA	L5L 5X5	
64432		7806	GOLDEN PRIDE INTERNATIONAL	DIN OWNER	Y	N	N	N	100	1501 NORTHPOINT PKWY	WEST PALM BEACH	FLORIDA	UNITED STATES	33407-1109	21109
64433		7806	GOLDEN PRIDE INTERNATIONAL	DIN OWNER	Y	N	N	N	100	1501 NORTHPOINT PKWY	WEST PALM BEACH	FLORIDA	UNITED STATES	33407-1109	21109
64455	LCO07	4475	LABORATOIRE LALCO INC.	DIN OWNER	Y	N	N	N		1540-42 RUE NATIONALE	TERREBONNE	QUEBEC	CANADA	J6W 6M1	
64462		8278	QUANTOFILL INC.	DIN OWNER	Y	Y	Y	N	UNIT 11	1215 WALKER ROAD	WINDSOR	ONTARIO	CANADA	N8Y 2N9	
64485	SDW95	6977	STANDARD PROCESS INC.	DIN OWNER	Y	Y	Y	N		1200 WEST ROYAL LEE DR.	PALMYRA	WISCONSIN	UNITED STATES	53156-0904	904
64495	MFF08	6268	ABUNDANCE NATURALLY LTD	DIN OWNER	Y	N	Y	N	UNIT 5	4090 RIDGEWAY DR	MISSISSAUGA	ONTARIO	CANADA	L5L 5X5	
64496	VRT99	6759	VIRTU'S INDUSTRIA E COMMÉRCIO LTDA	DIN OWNER	Y	N	N	N		"AV. SARGENTO GERALDO SANTANA, 660"	SANTO AMARO - SAO PAULO	SAONE ET LOIRE	BRAZIL	04674-000	
64497	VRT99	6759	VIRTU'S INDUSTRIA E COMMÉRCIO LTDA	DIN OWNER	Y	N	N	N		"AV. SARGENTO GERALDO SANTANA, 660"	SANTO AMARO - SAO PAULO	SAONE ET LOIRE	BRAZIL	04674-000	
64541		9290	CESCO SOLUTIONS INC.	DIN OWNER	Y	Y	Y	N		2227 MIDWAY LANE	BELLINGHAM	WASHINGTON	UNITED STATES	98226	
64543	ZBI08	7038	ASHBURY RESEARCH CORPORATION	DIN OWNER	Y	Y	Y	N		349 WILDCAT ROAD	TORONTO	ONTARIO	CANADA	M3J 2S3	
64544		9364	"XIANYANG BUCHANG PHARMACEUTICAL CO. LTD. XI'AN, P.R. CHINA"	DIN OWNER	Y	Y	Y	N		"#6, MAOTIAO RD"	"XIANYANG, SHAANXI"	SAONE ET LOIRE	CHINA	712000	
64545	OMG07	4852	OMEGA LABORATORIES LTD	DIN OWNER	Y	Y	Y	N		11177 HAMON	MONTREAL	QUEBEC	CANADA	H3M 3E4	
64591	PMS07	3550	PHARMASCIENCE INC	DIN OWNER	Y	Y	Y	N	100	"6111, ROYALMOUNT AVENUE"	MONTREAL	QUEBEC	CANADA	H4P 2T4	
64592	PMS07	3550	PHARMASCIENCE INC	DIN OWNER	Y	Y	Y	N	100	"6111, ROYALMOUNT AVENUE"	MONTREAL	QUEBEC	CANADA	H4P 2T4	
64593	PMS07	3550	PHARMASCIENCE INC	DIN OWNER	Y	Y	Y	N	100	"6111, ROYALMOUNT AVENUE"	MONTREAL	QUEBEC	CANADA	H4P 2T4	
64622		7622	"PHARMACARE LTD., SOUTH AFRICA"	DIN OWNER	Y	Y	Y	N		"7 FAIRCLOUGH ROAD, KORSTEN,"	"PORT ELIZABETH, EASTERN CAPE"	SAONE ET LOIRE	SOUTH AFRICA	6014	
64623		7622	"PHARMACARE LTD., SOUTH AFRICA"	DIN OWNER	Y	Y	Y	N		"7 FAIRCLOUGH ROAD, KORSTEN,"	"PORT ELIZABETH, EASTERN CAPE"	SAONE ET LOIRE	SOUTH AFRICA	6014	
64631		8110	NUTRALIFE HEALTH PRODUCTS LTD.	DIN OWNER	Y	Y	Y	N	112	7198 VANTAGE WAY	DELTA	BRITISH COLUMBIA	CANADA	V4G 1K7	
64632		8110	NUTRALIFE HEALTH PRODUCTS LTD.	DIN OWNER	Y	Y	Y	N	112	7198 VANTAGE WAY	DELTA	BRITISH COLUMBIA	CANADA	V4G 1K7	
64638		9387	ENOCH NUTRITION RESEARCH DEVELOPMENT INC.	DIN OWNER	Y	Y	Y	N		8108 PARK RD	RICHMOND	BRITISH COLUMBIA	CANADA	V6Y 1T1	
64640	BSV08	6987	HERBSCIENCE CUSTOM MANUFACTURING	DIN OWNER	Y	Y	Y	N	UNIT 6	11 SIMS CR.	RICHMOND HILL	ONTARIO	CANADA	L4B 1C9	
64642		7174	NEW VISION NUTRITIONALS COMPANY	DIN OWNER	Y	N	N	N	1	3140 14TH AVE. N.E.	CALGARY	ALBERTA	CANADA	T2A 6J4	
64643		7174	NEW VISION NUTRITIONALS COMPANY	DIN OWNER	Y	N	N	N	1	3140 14TH AVE. N.E.	CALGARY	ALBERTA	CANADA	T2A 6J4	
64650	BTD08	3812	BECTON DICKINSON	DIN OWNER	Y	N	N	N		1 BECTON DRIVE	FRANKLIN LAKES	NEW JERSEY	UNITED STATES	7417	
64654	MFF08	6268	ABUNDANCE NATURALLY LTD	DIN OWNER	Y	N	Y	N	UNIT 5	4090 RIDGEWAY DR	MISSISSAUGA	ONTARIO	CANADA	L5L 5X5	
64658	RKJ10	6534	INFINITY2 DISTRIBUTION INC.	DIN OWNER	Y	Y	N	N	133	22601 NORTH 19TH AVENUE	PHOENIX	ARIZONA	UNITED STATES	85027	
64721	RXP07	8183	RHOXALPHARMA INC	DIN OWNER	Y	Y	Y	N		145 JULES-LÉGER STREET	BOUCHERVILLE	QUEBEC	CANADA	J4B 7K8	
64722	RXP07	8183	RHOXALPHARMA INC	DIN OWNER	Y	Y	Y	N		145 JULES-LÉGER STREET	BOUCHERVILLE	QUEBEC	CANADA	J4B 7K8	
64723		11656	PENDOPHARM DIVISION OF DE PHARMASCIENCE INC	DIN OWNER	Y	Y	Y		SUITE 100	"6111, AVENUE ROYALMOUNT"	MONTREAL	QUEBEC	CANADA	H4P 2T4	
64724		11656	PENDOPHARM DIVISION OF DE PHARMASCIENCE INC	DIN OWNER	Y	Y	Y		SUITE 100	"6111, AVENUE ROYALMOUNT"	MONTREAL	QUEBEC	CANADA	H4P 2T4	
64742		9139	NUTRACEUTICAL CORPORATION	DIN OWNER	Y	N	N	N	2B	1500 KEARNS BLVD	PARK CITY	UTAH	UNITED STATES	84060	
64745		9139	NUTRACEUTICAL CORPORATION	DIN OWNER	Y	N	N	N	2B	1500 KEARNS BLVD	PARK CITY	UTAH	UNITED STATES	84060	
64750		8569	TECNODIS DISTRIBUTIONS INC.	DIN OWNER	Y	Y	Y	N		18404 MELOCHE	PIERREFONDS	QUEBEC	CANADA	H9K 1L6	
64751		8569	TECNODIS DISTRIBUTIONS INC.	DIN OWNER	Y	Y	Y	N		18404 MELOCHE	PIERREFONDS	QUEBEC	CANADA	H9K 1L6	
64772	SDQ95	6574	STEPAN COMPANY	DIN OWNER	Y	Y	N	N		22 W. FRONTAGE ROAD	NORTHFIELD	ILLINOIS	UNITED STATES	60093	
64791	LSW07	4532	LES LABORATOIRES SWISSE INC.	DIN OWNER	Y	Y	N	N		3560 RUE ISABELLE	BROSSARD	QUEBEC	CANADA	J4Y 2R3	
64795		9139	NUTRACEUTICAL CORPORATION	DIN OWNER	Y	N	N	N	2B	1500 KEARNS BLVD	PARK CITY	UTAH	UNITED STATES	84060	
64796		9139	NUTRACEUTICAL CORPORATION	DIN OWNER	Y	N	N	N	2B	1500 KEARNS BLVD	PARK CITY	UTAH	UNITED STATES	84060	
64797		9139	NUTRACEUTICAL CORPORATION	DIN OWNER	Y	N	N	N	2B	1500 KEARNS BLVD	PARK CITY	UTAH	UNITED STATES	84060	
64812	XFY10	6818	INTERNATIONAL LABORATORIES (CANADA) LTD.	DIN OWNER	Y	Y	Y	N		63 SKYLINE CR. NE	CALGARY	ALBERTA	CANADA	T2K 5X2	
64846	MFF08	6268	ABUNDANCE NATURALLY LTD	DIN OWNER	Y	N	Y	N	UNIT 5	4090 RIDGEWAY DR	MISSISSAUGA	ONTARIO	CANADA	L5L 5X5	
64848	SDQ95	6574	STEPAN COMPANY	DIN OWNER	Y	Y	N	N		22 W. FRONTAGE ROAD	NORTHFIELD	ILLINOIS	UNITED STATES	60093	
64849	SDQ95	6574	STEPAN COMPANY	DIN OWNER	Y	Y	N	N		22 W. FRONTAGE ROAD	NORTHFIELD	ILLINOIS	UNITED STATES	60093	
64850	SDQ95	6574	STEPAN COMPANY	DIN OWNER	Y	Y	N	N		22 W. FRONTAGE ROAD	NORTHFIELD	ILLINOIS	UNITED STATES	60093	
64851	SDQ95	6574	STEPAN COMPANY	DIN OWNER	Y	Y	N	N		22 W. FRONTAGE ROAD	NORTHFIELD	ILLINOIS	UNITED STATES	60093	
64870		9178	"TIANJIN TIANSHI GROUP CO., LTD."	DIN OWNER	Y	N	N	N		6 YUANQUAN ROAD	WUQING DEVELOPMENT AREA	TIANJIN	CHINA	301700	
64872		9377	CHANGES INTERNATIONAL	DIN OWNER	Y	Y	N	N	100	1501 NORTHPOINT PKWY	WEST PALM BEACH	FLORIDA	UNITED STATES	33407	
64873		9377	CHANGES INTERNATIONAL	DIN OWNER	Y	Y	N	N	100	1501 NORTHPOINT PKWY	WEST PALM BEACH	FLORIDA	UNITED STATES	33407	
64874		9377	CHANGES INTERNATIONAL	DIN OWNER	Y	Y	N	N	100	1501 NORTHPOINT PKWY	WEST PALM BEACH	FLORIDA	UNITED STATES	33407	
64875		9377	CHANGES INTERNATIONAL	DIN OWNER	Y	Y	N	N	100	1501 NORTHPOINT PKWY	WEST PALM BEACH	FLORIDA	UNITED STATES	33407	
64876		9377	CHANGES INTERNATIONAL	DIN OWNER	Y	Y	N	N	100	1501 NORTHPOINT PKWY	WEST PALM BEACH	FLORIDA	UNITED STATES	33407	
64889		9178	"TIANJIN TIANSHI GROUP CO., LTD."	DIN OWNER	Y	N	N	N		6 YUANQUAN ROAD	WUQING DEVELOPMENT AREA	TIANJIN	CHINA	301700	
64896	ATL07	3659	LABORATOIRE ATLAS INC	DIN OWNER	Y	Y	Y	N		9600 BOUL. DES SCIENCES	MONTREAL	QUEBEC	CANADA	H1J 3B6	
64905		9178	"TIANJIN TIANSHI GROUP CO., LTD."	DIN OWNER	Y	N	N	N		6 YUANQUAN ROAD	WUQING DEVELOPMENT AREA	TIANJIN	CHINA	301700	
64906		9178	"TIANJIN TIANSHI GROUP CO., LTD."	DIN OWNER	Y	N	N	N		6 YUANQUAN ROAD	WUQING DEVELOPMENT AREA	TIANJIN	CHINA	301700	
64958	PGA08	4911	PROCTER & GAMBLE INC	DIN OWNER	Y	N	N	N		4711 YONGE STREET	TORONTO	ONTARIO	CANADA	M2N 6K8	
64972		9377	CHANGES INTERNATIONAL	DIN OWNER	Y	Y	N	N	100	1501 NORTHPOINT PKWY	WEST PALM BEACH	FLORIDA	UNITED STATES	33407	
64987	ZBI08	7038	ASHBURY RESEARCH CORPORATION	DIN OWNER	Y	Y	Y	N		349 WILDCAT ROAD	TORONTO	ONTARIO	CANADA	M3J 2S3	
65028	ZBI08	7038	ASHBURY RESEARCH CORPORATION	DIN OWNER	Y	Y	Y	N		349 WILDCAT ROAD	TORONTO	ONTARIO	CANADA	M3J 2S3	
65033	PDD07	4897	PRODEMDIS ENR.	DIN OWNER	Y	Y	N	N		4355 SIR WILFRID LAURIER	ST-HUBERT	QUEBEC	CANADA	J3Y 3X3	
65034	PDD07	4897	PRODEMDIS ENR.	DIN OWNER	Y	Y	N	N		4355 SIR WILFRID LAURIER	ST-HUBERT	QUEBEC	CANADA	J3Y 3X3	
65035		9209	LACOMBE DRUGS (1992) LTD	DIN OWNER	Y	Y	Y	N		5025 - 5O AVE	LACOMBE	ALBERTA	CANADA	T4L 1K4	
65036		9209	LACOMBE DRUGS (1992) LTD	DIN OWNER	Y	Y	Y	N		5025 - 5O AVE	LACOMBE	ALBERTA	CANADA	T4L 1K4	
65037		9209	LACOMBE DRUGS (1992) LTD	DIN OWNER	Y	Y	Y	N		5025 - 5O AVE	LACOMBE	ALBERTA	CANADA	T4L 1K4	
65044		7357	RECKITT BENCKISER INC	DIN OWNER	Y	Y	Y	N		1655 VALLEY ROAD	WAYNE	NEW JERSEY	UNITED STATES	7470	
65062	WLA08	5417	WARNER-LAMBERT CANADA INC.	DIN OWNER	Y	N	N	N		2200 EGLINTON AVENUE EAST	TORONTO	ONTARIO	CANADA	M1L 2N3	
65063	WLA08	5417	WARNER-LAMBERT CANADA INC.	DIN OWNER	Y	N	N	N		2200 EGLINTON AVENUE EAST	TORONTO	ONTARIO	CANADA	M1L 2N3	
65064	WLA08	5417	WARNER-LAMBERT CANADA INC.	DIN OWNER	Y	N	N	N		2200 EGLINTON AVENUE EAST	TORONTO	ONTARIO	CANADA	M1L 2N3	
65066	WLA08	5417	WARNER-LAMBERT CANADA INC.	DIN OWNER	Y	N	N	N		2200 EGLINTON AVENUE EAST	TORONTO	ONTARIO	CANADA	M1L 2N3	
65067	WLA08	5417	WARNER-LAMBERT CANADA INC.	DIN OWNER	Y	N	N	N		2200 EGLINTON AVENUE EAST	TORONTO	ONTARIO	CANADA	M1L 2N3	
65068	WLA08	5417	WARNER-LAMBERT CANADA INC.	DIN OWNER	Y	N	N	N		2200 EGLINTON AVENUE EAST	TORONTO	ONTARIO	CANADA	M1L 2N3	
65069	WLA08	5417	WARNER-LAMBERT CANADA INC.	DIN OWNER	Y	N	N	N		2200 EGLINTON AVENUE EAST	TORONTO	ONTARIO	CANADA	M1L 2N3	
65070	WLA08	5417	WARNER-LAMBERT CANADA INC.	DIN OWNER	Y	N	N	N		2200 EGLINTON AVENUE EAST	TORONTO	ONTARIO	CANADA	M1L 2N3	
65071	WLA08	5417	WARNER-LAMBERT CANADA INC.	DIN OWNER	Y	N	N	N		2200 EGLINTON AVENUE EAST	TORONTO	ONTARIO	CANADA	M1L 2N3	
65072	WLA08	5417	WARNER-LAMBERT CANADA INC.	DIN OWNER	Y	N	N	N		2200 EGLINTON AVENUE EAST	TORONTO	ONTARIO	CANADA	M1L 2N3	
65073	WLA08	5417	WARNER-LAMBERT CANADA INC.	DIN OWNER	Y	N	N	N		2200 EGLINTON AVENUE EAST	TORONTO	ONTARIO	CANADA	M1L 2N3	
65074	WLA08	5417	WARNER-LAMBERT CANADA INC.	DIN OWNER	Y	N	N	N		2200 EGLINTON AVENUE EAST	TORONTO	ONTARIO	CANADA	M1L 2N3	
65075	WLA08	5417	WARNER-LAMBERT CANADA INC.	DIN OWNER	Y	N	N	N		2200 EGLINTON AVENUE EAST	TORONTO	ONTARIO	CANADA	M1L 2N3	
65077	WLA08	5417	WARNER-LAMBERT CANADA INC.	DIN OWNER	Y	N	N	N		2200 EGLINTON AVENUE EAST	TORONTO	ONTARIO	CANADA	M1L 2N3	
65079	BJH08	3755	DRAXIS HEALTH INC.	DIN OWNER	Y	Y	N	N	2ND FLOOR	6870 GOREWAY	MISSISSAUGA	ONTARIO	CANADA	L4V 1P1	
65084		9209	LACOMBE DRUGS (1992) LTD	DIN OWNER	Y	Y	Y	N		5025 - 5O AVE	LACOMBE	ALBERTA	CANADA	T4L 1K4	
65085		9209	LACOMBE DRUGS (1992) LTD	DIN OWNER	Y	Y	Y	N		5025 - 5O AVE	LACOMBE	ALBERTA	CANADA	T4L 1K4	
65087		9405	VINCO INC.	DIN OWNER	Y	Y	Y	N		1519 MARS-EVANS CITY RD	EVANS CITY	PENNSYLVANIA	UNITED STATES	16033	
65105		9209	LACOMBE DRUGS (1992) LTD	DIN OWNER	Y	Y	Y	N		5025 - 5O AVE	LACOMBE	ALBERTA	CANADA	T4L 1K4	
65113		9209	LACOMBE DRUGS (1992) LTD	DIN OWNER	Y	Y	Y	N		5025 - 5O AVE	LACOMBE	ALBERTA	CANADA	T4L 1K4	
65139	ZBI08	7038	ASHBURY RESEARCH CORPORATION	DIN OWNER	Y	Y	Y	N		349 WILDCAT ROAD	TORONTO	ONTARIO	CANADA	M3J 2S3	
65143	ZBI08	7038	ASHBURY RESEARCH CORPORATION	DIN OWNER	Y	Y	Y	N		349 WILDCAT ROAD	TORONTO	ONTARIO	CANADA	M3J 2S3	
65224	SDQ95	6574	STEPAN COMPANY	DIN OWNER	Y	Y	N	N		22 W. FRONTAGE ROAD	NORTHFIELD	ILLINOIS	UNITED STATES	60093	
65261	DPC07	4065	DOMINION PHARMACAL	DIN OWNER	Y	Y	Y	N	SUITE 100	"6111, AVENUE ROYALMOUNT"	MONTREAL	QUEBEC	CANADA	H4P 2T4	
65262	DPC07	4065	DOMINION PHARMACAL	DIN OWNER	Y	Y	Y	N	SUITE 100	"6111, AVENUE ROYALMOUNT"	MONTREAL	QUEBEC	CANADA	H4P 2T4	
65263	DPC07	4065	DOMINION PHARMACAL	DIN OWNER	Y	Y	Y	N	SUITE 100	"6111, AVENUE ROYALMOUNT"	MONTREAL	QUEBEC	CANADA	H4P 2T4	
65264	DPC07	4065	DOMINION PHARMACAL	DIN OWNER	Y	Y	Y	N	SUITE 100	"6111, AVENUE ROYALMOUNT"	MONTREAL	QUEBEC	CANADA	H4P 2T4	
65267		9526	THE WARDLEY CORPORATION	DIN OWNER	Y	Y	Y	N		400 PLAZA DR	SECAUCUS	NEW JERSEY	UNITED STATES	7096	
65321	SFK08	5205	SEAFORD PHARMACEUTICALS INC	DIN OWNER	Y	Y	Y	N	UNIT 28	1530 DREW ROAD	MISSISSAUGA	ONTARIO	CANADA	L5S 1W8	
65322	YNO08	5348	BAYER INC CONSUMER CARE	DIN OWNER	Y	N	Y	N		2920  MATHESON BLVD E	MISSISSAUGA	ONTARIO	CANADA	L4W 5R6	
65360	PDH07	4900	"PFIZER CANADA INC., CONSUMER HEALTHCARE DIVISION"	DIN OWNER	Y	Y	Y	N		88 MCNABB	MARKHAM	ONTARIO	CANADA	L3R 5L2	
65416		11642	HOSPIRA HEALTHCARE CORPORATION	DIN OWNER	Y	Y	Y			17300 TRANS-CANADA HIGHWAY	KIRKLAND	QUEBEC	CANADA	H9J 2M5	
65417		11642	HOSPIRA HEALTHCARE CORPORATION	DIN OWNER	Y	Y	Y			17300 TRANS-CANADA HIGHWAY	KIRKLAND	QUEBEC	CANADA	H9J 2M5	
65421	MCL08	4569	MCNEIL CONSUMER HEALTHCARE DIVISION OF JOHNSON & JOHNSON INC	DIN OWNER	Y	Y	Y	N		88 MCNABB STREET	MARKHAM	ONTARIO	CANADA	L3R 5L2	
65422	MCL08	4569	MCNEIL CONSUMER HEALTHCARE DIVISION OF JOHNSON & JOHNSON INC	DIN OWNER	Y	Y	Y	N		88 MCNABB STREET	MARKHAM	ONTARIO	CANADA	L3R 5L2	
65456	DPC07	4065	DOMINION PHARMACAL	DIN OWNER	Y	Y	Y	N	SUITE 100	"6111, AVENUE ROYALMOUNT"	MONTREAL	QUEBEC	CANADA	H4P 2T4	
65480	PMS07	3550	PHARMASCIENCE INC	DIN OWNER	Y	Y	Y	N	100	"6111, ROYALMOUNT AVENUE"	MONTREAL	QUEBEC	CANADA	H4P 2T4	
65481	PMS07	3550	PHARMASCIENCE INC	DIN OWNER	Y	Y	Y	N	100	"6111, ROYALMOUNT AVENUE"	MONTREAL	QUEBEC	CANADA	H4P 2T4	
65492		13054	4349121 CANADA INC	DIN OWNER	Y	Y	Y			3606B BOUL POIRIER	MONTREAL	QUEBEC	CANADA	H4R 2J5	
65493		13054	4349121 CANADA INC	DIN OWNER	Y	Y	Y			3606B BOUL POIRIER	MONTREAL	QUEBEC	CANADA	H4R 2J5	
65627	BNL95	3769	BAKER NORTON PHARMACEUTICALS INC.	DIN OWNER	Y	N	N	N		4400 BISCAYNE BLVD.	MIAMI	FLORIDA	UNITED STATES	33137	
65689	PIA08	8481	PALADIN LABS INC	DIN OWNER	Y	Y	Y	N		"100 BLVD ALEXIS-NIHON, SUITE 600"	SAINT-LAURENT	QUEBEC	CANADA	H4M 2P2	
65693	ZBI08	7038	ASHBURY RESEARCH CORPORATION	DIN OWNER	Y	Y	Y	N		349 WILDCAT ROAD	TORONTO	ONTARIO	CANADA	M3J 2S3	
65698	YNO08	5348	BAYER INC CONSUMER CARE	DIN OWNER	Y	N	Y	N		2920  MATHESON BLVD E	MISSISSAUGA	ONTARIO	CANADA	L4W 5R6	
65699	YNO08	5348	BAYER INC CONSUMER CARE	DIN OWNER	Y	N	Y	N		2920  MATHESON BLVD E	MISSISSAUGA	ONTARIO	CANADA	L4W 5R6	
65885	NOP08	4773	NOVOPHARM LIMITED	DIN OWNER	Y	Y	N	N		30 NOVOPHARM COURT	TORONTO	ONTARIO	CANADA	M1B 2K9	
65886	NOP08	4773	NOVOPHARM LIMITED	DIN OWNER	Y	Y	N	N		30 NOVOPHARM COURT	TORONTO	ONTARIO	CANADA	M1B 2K9	
65930		9201	SKINVISIBLE PHARMACEUTICALS INC	DIN OWNER	Y	Y	Y	N	10	6320 SOUTH SANDHILL ROAD	LAS VEGAS	NEVADA	UNITED STATES	89120	
66107	RIV07	5034	LABORATOIRE RIVA INC	DIN OWNER	Y	Y	N	N		660 BOUL. INDUSTRIEL	BLAINVILLE	QUEBEC	CANADA	J7C 3V4	
66123	PMS07	3550	PHARMASCIENCE INC	DIN OWNER	Y	Y	Y	N	100	"6111, ROYALMOUNT AVENUE"	MONTREAL	QUEBEC	CANADA	H4P 2T4	
66132	LZI95	6236	LONZA INC.	DIN OWNER	Y	Y	N	N		90 BOROLINE ROAD	ALLENDALE	NEW JERSEY	UNITED STATES	7401	
66176	PMS07	3550	PHARMASCIENCE INC	DIN OWNER	Y	Y	Y	N	100	"6111, ROYALMOUNT AVENUE"	MONTREAL	QUEBEC	CANADA	H4P 2T4	
66233	CIH08	3906	CITADEL ANIMAL HEALTH	DIN OWNER	Y	N	N	N		420 BEAVERDALE ROAD	CAMBRIDGE	ONTARIO	CANADA	N3C 2W4	
66294	ENI95	4137	ENRICH INTERNATIONAL	DIN OWNER	Y	N	N	N		1201 NORTH 800 EAST	OREM	UTAH	UNITED STATES	84097	
66295	ENI95	4137	ENRICH INTERNATIONAL	DIN OWNER	Y	N	N	N		1201 NORTH 800 EAST	OREM	UTAH	UNITED STATES	84097	
66296	ENI95	4137	ENRICH INTERNATIONAL	DIN OWNER	Y	N	N	N		1201 NORTH 800 EAST	OREM	UTAH	UNITED STATES	84097	
66318	AOF10	5536	AHMED'S SUNFORCE INTERNATIONAL PRODUCTS INC.	DIN OWNER	Y	Y	Y	N	34	4847-219TH ST	LANGLEY	BRITISH COLUMBIA	CANADA	V5A 8C1	
66435	PMS07	3550	PHARMASCIENCE INC	DIN OWNER	Y	Y	Y	N	100	"6111, ROYALMOUNT AVENUE"	MONTREAL	QUEBEC	CANADA	H4P 2T4	
66436	PMS07	3550	PHARMASCIENCE INC	DIN OWNER	Y	Y	Y	N	100	"6111, ROYALMOUNT AVENUE"	MONTREAL	QUEBEC	CANADA	H4P 2T4	
66456		7520	GREER LABORATORIES INC	DIN OWNER	Y	Y	Y	N		639 NUWAY CIRCLE	LENOIR	NORTH CAROLINA	UNITED STATES	28645-0800	800
66458		7520	GREER LABORATORIES INC	DIN OWNER	Y	Y	Y	N		639 NUWAY CIRCLE	LENOIR	NORTH CAROLINA	UNITED STATES	28645-0800	800
66460		7520	GREER LABORATORIES INC	DIN OWNER	Y	Y	Y	N		639 NUWAY CIRCLE	LENOIR	NORTH CAROLINA	UNITED STATES	28645-0800	800
66462		7520	GREER LABORATORIES INC	DIN OWNER	Y	Y	Y	N		639 NUWAY CIRCLE	LENOIR	NORTH CAROLINA	UNITED STATES	28645-0800	800
66464		7520	GREER LABORATORIES INC	DIN OWNER	Y	Y	Y	N		639 NUWAY CIRCLE	LENOIR	NORTH CAROLINA	UNITED STATES	28645-0800	800
66514	NXP08	4828	NU-PHARM INC	DIN OWNER	Y	N	Y	N		"1165 CREDITSTONE RD, UNIT 2"	VAUGHAN	ONTARIO	CANADA	L4K 4N7	
66515	NXP08	4828	NU-PHARM INC	DIN OWNER	Y	N	Y	N		"1165 CREDITSTONE RD, UNIT 2"	VAUGHAN	ONTARIO	CANADA	L4K 4N7	
66516	NXP08	4828	NU-PHARM INC	DIN OWNER	Y	N	Y	N		"1165 CREDITSTONE RD, UNIT 2"	VAUGHAN	ONTARIO	CANADA	L4K 4N7	
66517	NXP08	4828	NU-PHARM INC	DIN OWNER	Y	N	Y	N		"1165 CREDITSTONE RD, UNIT 2"	VAUGHAN	ONTARIO	CANADA	L4K 4N7	
66545	PMS07	3550	PHARMASCIENCE INC	DIN OWNER	Y	Y	Y	N	100	"6111, ROYALMOUNT AVENUE"	MONTREAL	QUEBEC	CANADA	H4P 2T4	
66655	PFR08	7054	PURDUE PHARMA	DIN OWNER	Y	Y	Y	N		575 GRANITE COURT	PICKERING	ONTARIO	CANADA	L1W 3W8	
66656	PFR08	7054	PURDUE PHARMA	DIN OWNER	Y	Y	Y	N		575 GRANITE COURT	PICKERING	ONTARIO	CANADA	L1W 3W8	
66657	PFR08	7054	PURDUE PHARMA	DIN OWNER	Y	Y	Y	N		575 GRANITE COURT	PICKERING	ONTARIO	CANADA	L1W 3W8	
66658	PFR08	7054	PURDUE PHARMA	DIN OWNER	Y	Y	Y	N		575 GRANITE COURT	PICKERING	ONTARIO	CANADA	L1W 3W8	
66659	PFR08	7054	PURDUE PHARMA	DIN OWNER	Y	Y	Y	N		575 GRANITE COURT	PICKERING	ONTARIO	CANADA	L1W 3W8	
66660	PFR08	7054	PURDUE PHARMA	DIN OWNER	Y	Y	Y	N		575 GRANITE COURT	PICKERING	ONTARIO	CANADA	L1W 3W8	
66695		16555	FRESENIUS KABI CANADA LTD	DIN OWNER	Y	Y	Y			"165 GALAXY BLVD, SUITE 100"	TORONTO	ONTARIO	CANADA	M9W 0C8	
66712	PFI07	4908	PFIZER CANADA INC	DIN OWNER	Y	Y	Y	N		17300 TRANS-CANADA HIGHWAY	KIRKLAND	QUEBEC	CANADA	H9J 2M5	
66742	APX08	3636	APOTEX INC	DIN OWNER	Y	Y	Y	N		150 SIGNET DRIVE	TORONTO	ONTARIO	CANADA	M9L 1T9	
66743	APX08	3636	APOTEX INC	DIN OWNER	Y	Y	Y	N		150 SIGNET DRIVE	TORONTO	ONTARIO	CANADA	M9L 1T9	
66838		9624	CHERYL LABORATORIES INC.	DIN OWNER	Y	Y	Y			138 SUNRISE AVENUE	TORONTO	ONTARIO	CANADA	M4A 1B3	
66903	LZI95	6236	LONZA INC.	DIN OWNER	Y	Y	N	N		90 BOROLINE ROAD	ALLENDALE	NEW JERSEY	UNITED STATES	7401	
66904	LZI95	6236	LONZA INC.	DIN OWNER	Y	Y	N	N		90 BOROLINE ROAD	ALLENDALE	NEW JERSEY	UNITED STATES	7401	
66905	LZI95	6236	LONZA INC.	DIN OWNER	Y	Y	N	N		90 BOROLINE ROAD	ALLENDALE	NEW JERSEY	UNITED STATES	7401	
66970		16555	FRESENIUS KABI CANADA LTD	DIN OWNER	Y	Y	Y			"165 GALAXY BLVD, SUITE 100"	TORONTO	ONTARIO	CANADA	M9W 0C8	
66971		16555	FRESENIUS KABI CANADA LTD	DIN OWNER	Y	Y	Y			"165 GALAXY BLVD, SUITE 100"	TORONTO	ONTARIO	CANADA	M9W 0C8	
66987	PMS07	3550	PHARMASCIENCE INC	DIN OWNER	Y	Y	Y	N	100	"6111, ROYALMOUNT AVENUE"	MONTREAL	QUEBEC	CANADA	H4P 2T4	
66990	SIL07	5123	SABEX INC	DIN OWNER	Y	N	N	N		145 RUE JULES-LEGER	BOUCHERVILLE	QUEBEC	CANADA	J4B 7K8	
67107		13054	4349121 CANADA INC	DIN OWNER	Y	Y	Y			3606B BOUL POIRIER	MONTREAL	QUEBEC	CANADA	H4R 2J5	
67108		13054	4349121 CANADA INC	DIN OWNER	Y	Y	Y			3606B BOUL POIRIER	MONTREAL	QUEBEC	CANADA	H4R 2J5	
67200		9460	SAUFLON PHARMACEUTICALS LIMITED	DIN OWNER	Y	N	N			"6150 STONERIDGE MALL ROAD, SUITE 370"	PLEASANTON	CALIFORNIA	UNITED STATES	94588	
67231	PDD07	4897	PRODEMDIS ENR.	DIN OWNER	Y	Y	N	N		4355 SIR WILFRID LAURIER	ST-HUBERT	QUEBEC	CANADA	J3Y 3X3	
67283		9857	UAS PHARMACEUTICALS PTY LTD	DIN OWNER	Y	Y	N			PO BOX/CP 802	CASTLE HILL	NEW SOUTH WALES	AUSTRALIA	2154	
67381	NOP08	4773	NOVOPHARM LIMITED	DIN OWNER	Y	Y	N	N		30 NOVOPHARM COURT	TORONTO	ONTARIO	CANADA	M1B 2K9	
67382	NOP08	4773	NOVOPHARM LIMITED	DIN OWNER	Y	Y	N	N		30 NOVOPHARM COURT	TORONTO	ONTARIO	CANADA	M1B 2K9	
67383	NOP08	4773	NOVOPHARM LIMITED	DIN OWNER	Y	Y	N	N		30 NOVOPHARM COURT	TORONTO	ONTARIO	CANADA	M1B 2K9	
67390	PHT08	4920	PHARMAX LIMITED	DIN OWNER	Y	Y	Y	N	509	80 FRONT ST EAST	TORONTO	ONTARIO	CANADA	M5E 1T4	
67442		15139	GRIFOLS THERAPEUTICS INC	DIN OWNER	Y	N	Y			8368 US 70 BUSINESS HWY. WEST	CLAYTON	NORTH CAROLINA	UNITED STATES	27520-9464	
67443	RAX08	8892	STERIMAX INC	DIN OWNER	Y	Y	Y			2770 PORTLAND DRIVE	OAKVILLE	ONTARIO	CANADA	L6H 6R4	
67501		9912	UBERMED INCORPORATED	DIN OWNER	Y	Y	Y		1	150 RIVALDA RD	WESTON	ONTARIO	CANADA	M9M 2M8	
67510		9857	UAS PHARMACEUTICALS PTY LTD	DIN OWNER	Y	Y	N			PO BOX/CP 802	CASTLE HILL	NEW SOUTH WALES	AUSTRALIA	2154	
67561	LZI95	6236	LONZA INC.	DIN OWNER	Y	Y	N	N		90 BOROLINE ROAD	ALLENDALE	NEW JERSEY	UNITED STATES	7401	
67602		9857	UAS PHARMACEUTICALS PTY LTD	DIN OWNER	Y	Y	N			PO BOX/CP 802	CASTLE HILL	NEW SOUTH WALES	AUSTRALIA	2154	
67603		9857	UAS PHARMACEUTICALS PTY LTD	DIN OWNER	Y	Y	N			PO BOX/CP 802	CASTLE HILL	NEW SOUTH WALES	AUSTRALIA	2154	
67610		10029	CHANELLE PHARMACEUTICALS MANUFACTURING LIMITED	DIN OWNER	Y	Y	Y			DUBLIN ROAD	LOUGHREA	CO. GALWAY	IRELAND		
67665		9857	UAS PHARMACEUTICALS PTY LTD	DIN OWNER	Y	Y	N			PO BOX/CP 802	CASTLE HILL	NEW SOUTH WALES	AUSTRALIA	2154	
67683		12428	SANOFI PASTEUR LIMITED	DIN OWNER	Y	Y	Y			1755 STEELES AVENUE WEST	TORONTO	ONTARIO	CANADA	M2R 3T4	
67774	PMS07	3550	PHARMASCIENCE INC	DIN OWNER	Y	Y	Y	N	100	"6111, ROYALMOUNT AVENUE"	MONTREAL	QUEBEC	CANADA	H4P 2T4	
67869	TCH07	3633	TECHNILAB PHARMA INC.	DIN OWNER	Y	N	N	N		17800 RUE LAPOINTE	MIRABEL	QUEBEC	CANADA	J7J 1P3	
67977	CIF08	3903	C.P. INDUSTRIES LTD	DIN OWNER	Y	Y	Y	N		535 DICKSON DRIVE	FERGUS	ONTARIO	CANADA	N1M 2W8	P.O. BOX 300
67984		8526	TOWN DISTRIBUTORS LTD.	DIN OWNER	Y	Y	Y		200	5473 PARÉ	MONTRÉAL	QUEBEC	CANADA	H4P 1P7	
67992	CNE07	3937	CONSTANT AMERICA INC	DIN OWNER	Y	Y	Y	N		7585 CORDNER STREET	LASALLE	QUEBEC	CANADA	H8N 2R5	
68036	BAX08	3699	BAXTER CORPORATION	DIN OWNER	Y	Y	Y	N		7125 MISSISSAUGA ROAD	MISSISSAUGA	ONTARIO	CANADA	L5N 0C2	
68056	BAX08	3699	BAXTER CORPORATION	DIN OWNER	Y	Y	Y	N		7125 MISSISSAUGA ROAD	MISSISSAUGA	ONTARIO	CANADA	L5N 0C2	
68057	BAX08	3699	BAXTER CORPORATION	DIN OWNER	Y	Y	Y	N		7125 MISSISSAUGA ROAD	MISSISSAUGA	ONTARIO	CANADA	L5N 0C2	
68058	BAX08	3699	BAXTER CORPORATION	DIN OWNER	Y	Y	Y	N		7125 MISSISSAUGA ROAD	MISSISSAUGA	ONTARIO	CANADA	L5N 0C2	
68065	SDQ95	6574	STEPAN COMPANY	DIN OWNER	Y	Y	N	N		22 W. FRONTAGE ROAD	NORTHFIELD	ILLINOIS	UNITED STATES	60093	
68067	SDQ95	6574	STEPAN COMPANY	DIN OWNER	Y	Y	N	N		22 W. FRONTAGE ROAD	NORTHFIELD	ILLINOIS	UNITED STATES	60093	
68068	SDQ95	6574	STEPAN COMPANY	DIN OWNER	Y	Y	N	N		22 W. FRONTAGE ROAD	NORTHFIELD	ILLINOIS	UNITED STATES	60093	
68069	SDQ95	6574	STEPAN COMPANY	DIN OWNER	Y	Y	N	N		22 W. FRONTAGE ROAD	NORTHFIELD	ILLINOIS	UNITED STATES	60093	
68070	SDQ95	6574	STEPAN COMPANY	DIN OWNER	Y	Y	N	N		22 W. FRONTAGE ROAD	NORTHFIELD	ILLINOIS	UNITED STATES	60093	
68071	SDQ95	6574	STEPAN COMPANY	DIN OWNER	Y	Y	N	N		22 W. FRONTAGE ROAD	NORTHFIELD	ILLINOIS	UNITED STATES	60093	
68075	YNO08	5348	BAYER INC CONSUMER CARE	DIN OWNER	Y	N	Y	N		2920  MATHESON BLVD E	MISSISSAUGA	ONTARIO	CANADA	L4W 5R6	
68093		16555	FRESENIUS KABI CANADA LTD	DIN OWNER	Y	Y	Y			"165 GALAXY BLVD, SUITE 100"	TORONTO	ONTARIO	CANADA	M9W 0C8	
68115		7357	RECKITT BENCKISER INC	DIN OWNER	Y	Y	Y	N		1655 VALLEY ROAD	WAYNE	NEW JERSEY	UNITED STATES	7470	
68116		7357	RECKITT BENCKISER INC	DIN OWNER	Y	Y	Y	N		1655 VALLEY ROAD	WAYNE	NEW JERSEY	UNITED STATES	7470	
68279	YNO08	5348	BAYER INC CONSUMER CARE	DIN OWNER	Y	N	Y	N		2920  MATHESON BLVD E	MISSISSAUGA	ONTARIO	CANADA	L4W 5R6	
68300	JAM08	4403	JAMIESON LABORATORIES LTD	DIN OWNER	Y	Y	N	N		4025 RHODES DRIVE	WINDSOR	ONTARIO	CANADA	N8W 5B5	
68329	BEG95	3724	BEAUTICONTROL INC.	DIN OWNER	Y	Y	Y	N		PO BOX 815189	DALLAS	TEXAS	UNITED STATES	75381	
68427		7622	"PHARMACARE LTD., SOUTH AFRICA"	DIN OWNER	Y	Y	Y	N		"7 FAIRCLOUGH ROAD, KORSTEN,"	"PORT ELIZABETH, EASTERN CAPE"	SAONE ET LOIRE	SOUTH AFRICA	6014	
68468		7622	"PHARMACARE LTD., SOUTH AFRICA"	DIN OWNER	Y	Y	Y	N		"7 FAIRCLOUGH ROAD, KORSTEN,"	"PORT ELIZABETH, EASTERN CAPE"	SAONE ET LOIRE	SOUTH AFRICA	6014	
68547		7166	ASSOCIATED NATIONAL BROKERAGE INC.	DIN OWNER	Y	Y	N	N		199 MATTHEW BOYD CRESCENT	NEWMARKET	ONTARIO	CANADA	L3X 3C7	
68592		10144	ORALABS INC	DIN OWNER	Y	Y	Y			18685 EAST PLAZA DRIVE	PARKER	COLORADO	UNITED STATES	80134	
68610		9129	CELLEX-C INTERNATIONAL INC.	DIN OWNER	Y	Y	Y	N		9 NEW STREET	TORONTO	ONTARIO	CANADA	M5R 1P7	
68626	OBT08	10028	COBALT PHARMACEUTICALS COMPANY	DIN OWNER	Y	Y	N			"6733 MISSISSAUGA ROAD, SUITE 400"	MISSISSAUGA	ONTARIO	CANADA	L5N 6J5	
68627	OBT08	10028	COBALT PHARMACEUTICALS COMPANY	DIN OWNER	Y	Y	N			"6733 MISSISSAUGA ROAD, SUITE 400"	MISSISSAUGA	ONTARIO	CANADA	L5N 6J5	
68629	OBT08	10028	COBALT PHARMACEUTICALS COMPANY	DIN OWNER	Y	Y	N			"6733 MISSISSAUGA ROAD, SUITE 400"	MISSISSAUGA	ONTARIO	CANADA	L5N 6J5	
68630	OBT08	10028	COBALT PHARMACEUTICALS COMPANY	DIN OWNER	Y	Y	N			"6733 MISSISSAUGA ROAD, SUITE 400"	MISSISSAUGA	ONTARIO	CANADA	L5N 6J5	
68631	OBT08	10028	COBALT PHARMACEUTICALS COMPANY	DIN OWNER	Y	Y	N			"6733 MISSISSAUGA ROAD, SUITE 400"	MISSISSAUGA	ONTARIO	CANADA	L5N 6J5	
68632	OBT08	10028	COBALT PHARMACEUTICALS COMPANY	DIN OWNER	Y	Y	N			"6733 MISSISSAUGA ROAD, SUITE 400"	MISSISSAUGA	ONTARIO	CANADA	L5N 6J5	
68654		8526	TOWN DISTRIBUTORS LTD.	DIN OWNER	Y	Y	Y		200	5473 PARÉ	MONTRÉAL	QUEBEC	CANADA	H4P 1P7	
68655		8526	TOWN DISTRIBUTORS LTD.	DIN OWNER	Y	Y	Y		200	5473 PARÉ	MONTRÉAL	QUEBEC	CANADA	H4P 1P7	
68656		8526	TOWN DISTRIBUTORS LTD.	DIN OWNER	Y	Y	Y		200	5473 PARÉ	MONTRÉAL	QUEBEC	CANADA	H4P 1P7	
68657		8526	TOWN DISTRIBUTORS LTD.	DIN OWNER	Y	Y	Y		200	5473 PARÉ	MONTRÉAL	QUEBEC	CANADA	H4P 1P7	
68658		8526	TOWN DISTRIBUTORS LTD.	DIN OWNER	Y	Y	Y		200	5473 PARÉ	MONTRÉAL	QUEBEC	CANADA	H4P 1P7	
68659		8526	TOWN DISTRIBUTORS LTD.	DIN OWNER	Y	Y	Y		200	5473 PARÉ	MONTRÉAL	QUEBEC	CANADA	H4P 1P7	
68660		8526	TOWN DISTRIBUTORS LTD.	DIN OWNER	Y	Y	Y		200	5473 PARÉ	MONTRÉAL	QUEBEC	CANADA	H4P 1P7	
68682		10225	DR REDDYS LABORATORIES INC	DIN OWNER	Y	Y	Y			107 COLLEGE ROAD EAST	PRINCETON	NEW JERSEY	UNITED STATES	8540	
68719		13260	NYCOMED GMBH	DIN OWNER	Y	N	N			BYK-GULDEN-STRASSE 2	KONSTANZ	SAONE ET LOIRE	GERMANY	78467	
68739		7166	ASSOCIATED NATIONAL BROKERAGE INC.	DIN OWNER	Y	Y	N	N		199 MATTHEW BOYD CRESCENT	NEWMARKET	ONTARIO	CANADA	L3X 3C7	
68755	PMS07	3550	PHARMASCIENCE INC	DIN OWNER	Y	Y	Y	N	100	"6111, ROYALMOUNT AVENUE"	MONTREAL	QUEBEC	CANADA	H4P 2T4	
68756	PMS07	3550	PHARMASCIENCE INC	DIN OWNER	Y	Y	Y	N	100	"6111, ROYALMOUNT AVENUE"	MONTREAL	QUEBEC	CANADA	H4P 2T4	
68757	PMS07	3550	PHARMASCIENCE INC	DIN OWNER	Y	Y	Y	N	100	"6111, ROYALMOUNT AVENUE"	MONTREAL	QUEBEC	CANADA	H4P 2T4	
68856	FTP65	4217	FORTUNE PHARMACAL CO. LTD.	DIN OWNER	Y	Y	Y	N	5/F	"56 KA YIP STREET, SAFETY GODOWN IND'L BLDG"	CHAI WAN	SAONE ET LOIRE	HONG KONG	999999	
68991	BEL08	5602	BELVEDERE INTERNATIONAL INC.	DIN OWNER	Y	Y	N	N		5675 KEATON CRESCENT	MISSISSAUGA	ONTARIO	CANADA	L5R 3G3	
68993	BEL08	5602	BELVEDERE INTERNATIONAL INC.	DIN OWNER	Y	Y	N	N		5675 KEATON CRESCENT	MISSISSAUGA	ONTARIO	CANADA	L5R 3G3	
68994	BEL08	5602	BELVEDERE INTERNATIONAL INC.	DIN OWNER	Y	Y	N	N		5675 KEATON CRESCENT	MISSISSAUGA	ONTARIO	CANADA	L5R 3G3	
68995	BEL08	5602	BELVEDERE INTERNATIONAL INC.	DIN OWNER	Y	Y	N	N		5675 KEATON CRESCENT	MISSISSAUGA	ONTARIO	CANADA	L5R 3G3	
69020	ATL07	3659	LABORATOIRE ATLAS INC	DIN OWNER	Y	Y	Y	N		9600 BOUL. DES SCIENCES	MONTREAL	QUEBEC	CANADA	H1J 3B6	
69040	BEL08	5602	BELVEDERE INTERNATIONAL INC.	DIN OWNER	Y	Y	N	N		5675 KEATON CRESCENT	MISSISSAUGA	ONTARIO	CANADA	L5R 3G3	
69063	APX08	3636	APOTEX INC	DIN OWNER	Y	Y	Y	N		150 SIGNET DRIVE	TORONTO	ONTARIO	CANADA	M9L 1T9	
69087	JAM08	4403	JAMIESON LABORATORIES LTD	DIN OWNER	Y	Y	N	N		4025 RHODES DRIVE	WINDSOR	ONTARIO	CANADA	N8W 5B5	
69106	RIV07	5034	LABORATOIRE RIVA INC	DIN OWNER	Y	Y	N	N		660 BOUL. INDUSTRIEL	BLAINVILLE	QUEBEC	CANADA	J7C 3V4	
69301		7950	G&W LABORATORIES INC.	DIN OWNER	Y	Y	N			111 COOLIDGE ST.	SOUTH PLAINFIELD	NEW JERSEY	UNITED STATES	07080-3895	
69416		10247	MERRY HEMPSTERS	DIN OWNER	Y	N	Y			PO BOX 1301	EUGENE	OREGON	UNITED STATES	97740	
69421	MCL08	4569	MCNEIL CONSUMER HEALTHCARE DIVISION OF JOHNSON & JOHNSON INC	DIN OWNER	Y	Y	Y	N		88 MCNABB STREET	MARKHAM	ONTARIO	CANADA	L3R 5L2	
69442	LZI95	6236	LONZA INC.	DIN OWNER	Y	Y	N	N		90 BOROLINE ROAD	ALLENDALE	NEW JERSEY	UNITED STATES	7401	
69443	LZI95	6236	LONZA INC.	DIN OWNER	Y	Y	N	N		90 BOROLINE ROAD	ALLENDALE	NEW JERSEY	UNITED STATES	7401	
69526		10388	CANUS IMPORT-EXPORT	DIN OWNER	Y	N	N			1460 RUE BEAULAC	VILLE ST-LAURENT	QUEBEC	CANADA	H4R 1R7	
69638		10139	IVAX PHARMACEUTICALS INCORPORATED	DIN OWNER	Y	N	N			4400 BISCAYNE BLVD	MIAMI	FLORIDA	UNITED STATES	33137	
69639		10139	IVAX PHARMACEUTICALS INCORPORATED	DIN OWNER	Y	N	N			4400 BISCAYNE BLVD	MIAMI	FLORIDA	UNITED STATES	33137	
69678	MCL08	4569	MCNEIL CONSUMER HEALTHCARE DIVISION OF JOHNSON & JOHNSON INC	DIN OWNER	Y	Y	Y	N		88 MCNABB STREET	MARKHAM	ONTARIO	CANADA	L3R 5L2	
69679	MCL08	4569	MCNEIL CONSUMER HEALTHCARE DIVISION OF JOHNSON & JOHNSON INC	DIN OWNER	Y	Y	Y	N		88 MCNABB STREET	MARKHAM	ONTARIO	CANADA	L3R 5L2	
69700	YNO08	5348	BAYER INC CONSUMER CARE	DIN OWNER	Y	N	Y	N		2920  MATHESON BLVD E	MISSISSAUGA	ONTARIO	CANADA	L4W 5R6	
69709	SFK08	5205	SEAFORD PHARMACEUTICALS INC	DIN OWNER	Y	Y	Y	N	UNIT 28	1530 DREW ROAD	MISSISSAUGA	ONTARIO	CANADA	L5S 1W8	
69715	PMS07	3550	PHARMASCIENCE INC	DIN OWNER	Y	Y	Y	N	100	"6111, ROYALMOUNT AVENUE"	MONTREAL	QUEBEC	CANADA	H4P 2T4	
69736	PWI09	6479	PRAIRIE WEST INDUSTRIES 2000 LTD.	DIN OWNER	Y	Y	Y	N		1801 SARGENT AVE	WINNIPEG	MANITOBA	CANADA	R3H 0E2	
69770	XYG07	6837	LABORATOIRES CONFAB INC	DIN OWNER	Y	Y	Y	N		4355 BOUL. SIR WILFRID LAURIER	ST-HUBERT	QUEBEC	CANADA	J3Y 3X3	
69785	MCL08	4569	MCNEIL CONSUMER HEALTHCARE DIVISION OF JOHNSON & JOHNSON INC	DIN OWNER	Y	Y	Y	N		88 MCNABB STREET	MARKHAM	ONTARIO	CANADA	L3R 5L2	
69794		11114	ARKOPHARMA CANADA INC.	DIN OWNER	Y	Y	Y			2515 AVE DE LA RENAISSANCE	BOISBRIAND	QUEBEC	CANADA	J7E 4H4	
69891	PMS07	3550	PHARMASCIENCE INC	DIN OWNER	Y	Y	Y	N	100	"6111, ROYALMOUNT AVENUE"	MONTREAL	QUEBEC	CANADA	H4P 2T4	
69916		10712	COSMACEUTICAL RESEARCH LAB INC.	DIN OWNER	Y	Y	Y			12920 - 84TH AVENUE	SURREY	BRITISH COLUMBIA	CANADA	V3W 1K7	
69950	PMS07	3550	PHARMASCIENCE INC	DIN OWNER	Y	Y	Y	N	100	"6111, ROYALMOUNT AVENUE"	MONTREAL	QUEBEC	CANADA	H4P 2T4	
69951	PMS07	3550	PHARMASCIENCE INC	DIN OWNER	Y	Y	Y	N	100	"6111, ROYALMOUNT AVENUE"	MONTREAL	QUEBEC	CANADA	H4P 2T4	
69958		10688	GANZ INC.	DIN OWNER	Y	N	N			1 PIERCE ROAD	WOODBRIDGE	ONTARIO	CANADA	L4L 3T2	
69960		10609	ZOE INTERNATIONAL	DIN OWNER	Y	N	N			3-1179 FINCH AVE. WEST	TORONTO	ONTARIO	CANADA	M3J 2G1	
69975	SIL07	5123	SABEX INC	DIN OWNER	Y	N	N	N		145 RUE JULES-LEGER	BOUCHERVILLE	QUEBEC	CANADA	J4B 7K8	
70005		10139	IVAX PHARMACEUTICALS INCORPORATED	DIN OWNER	Y	N	N			4400 BISCAYNE BLVD	MIAMI	FLORIDA	UNITED STATES	33137	
70008		10139	IVAX PHARMACEUTICALS INCORPORATED	DIN OWNER	Y	N	N			4400 BISCAYNE BLVD	MIAMI	FLORIDA	UNITED STATES	33137	
70009		10139	IVAX PHARMACEUTICALS INCORPORATED	DIN OWNER	Y	N	N			4400 BISCAYNE BLVD	MIAMI	FLORIDA	UNITED STATES	33137	
70010		10139	IVAX PHARMACEUTICALS INCORPORATED	DIN OWNER	Y	N	N			4400 BISCAYNE BLVD	MIAMI	FLORIDA	UNITED STATES	33137	
70066	ALC08	3594	ALCON CANADA INC	DIN OWNER	Y	Y	Y	N		2665 MEADOWPINE BLVD	MISSISSAUGA	ONTARIO	CANADA	L5N 8C7	
70071		16555	FRESENIUS KABI CANADA LTD	DIN OWNER	Y	Y	Y			"165 GALAXY BLVD, SUITE 100"	TORONTO	ONTARIO	CANADA	M9W 0C8	
70099	MCL08	4569	MCNEIL CONSUMER HEALTHCARE DIVISION OF JOHNSON & JOHNSON INC	DIN OWNER	Y	Y	Y	N		88 MCNABB STREET	MARKHAM	ONTARIO	CANADA	L3R 5L2	
70160	LZI95	6236	LONZA INC.	DIN OWNER	Y	Y	N	N		90 BOROLINE ROAD	ALLENDALE	NEW JERSEY	UNITED STATES	7401	
70173	LZI95	6236	LONZA INC.	DIN OWNER	Y	Y	N	N		90 BOROLINE ROAD	ALLENDALE	NEW JERSEY	UNITED STATES	7401	
70228		10812	BIOPHORA INC.	DIN OWNER	Y	Y	Y		2930	55 AVENUE ROAD	TORONTO	ONTARIO	CANADA	M5R 3L2	
70241	PMS07	3550	PHARMASCIENCE INC	DIN OWNER	Y	Y	Y	N	100	"6111, ROYALMOUNT AVENUE"	MONTREAL	QUEBEC	CANADA	H4P 2T4	
70275		10002	PHARMACIA ANIMAL HEALTH	DIN OWNER	Y	N	N			17300 TRANS-CANADA HIGHWAY	KIRKLAND	QUEBEC	CANADA	H9J 2M5	
70283	JPC10	4415	JAMP PHARMA CORPORATION	DIN OWNER	Y	Y	Y	N		1310 RUE NOBEL	BOUCHERVILLE	QUEBEC	CANADA	J4B 5H3	
70370	REK07	5010	RECKITT BENCKISER (CANADA) INC	DIN OWNER	Y	Y	Y	N	UNIT #2	1680 TECH AVENUE	MISSISSAUGA	ONTARIO	CANADA	L4W 5S9	
70387	SDQ95	6574	STEPAN COMPANY	DIN OWNER	Y	Y	N	N		22 W. FRONTAGE ROAD	NORTHFIELD	ILLINOIS	UNITED STATES	60093	
70402		11656	PENDOPHARM DIVISION OF DE PHARMASCIENCE INC	DIN OWNER	Y	Y	Y		SUITE 100	"6111, AVENUE ROYALMOUNT"	MONTREAL	QUEBEC	CANADA	H4P 2T4	
70424	SDQ95	6574	STEPAN COMPANY	DIN OWNER	Y	Y	N	N		22 W. FRONTAGE ROAD	NORTHFIELD	ILLINOIS	UNITED STATES	60093	
70439	CIF08	3903	C.P. INDUSTRIES LTD	DIN OWNER	Y	Y	Y	N		535 DICKSON DRIVE	FERGUS	ONTARIO	CANADA	N1M 2W8	P.O. BOX 300
70440	CIF08	3903	C.P. INDUSTRIES LTD	DIN OWNER	Y	Y	Y	N		535 DICKSON DRIVE	FERGUS	ONTARIO	CANADA	N1M 2W8	P.O. BOX 300
70444	PHH07	4917	PHARMEL INC	DIN OWNER	Y	Y	Y	N		"6111, AVENUE ROYALMOUNT, SUITE 100"	MONTREAL	QUEBEC	CANADA	H4P 2T4	
70446	DPC07	4065	DOMINION PHARMACAL	DIN OWNER	Y	Y	Y	N	SUITE 100	"6111, AVENUE ROYALMOUNT"	MONTREAL	QUEBEC	CANADA	H4P 2T4	
70461		7397	"KUTOL PRODUCTS COMPANY, INC"	DIN OWNER	Y	N	N	N	UNIT 1	1745 MEYERSIDE DR.	MISSISSAUGA	ONTARIO	CANADA	L5T 1C6	
70476	CIH08	3906	CITADEL ANIMAL HEALTH	DIN OWNER	Y	N	N	N		420 BEAVERDALE ROAD	CAMBRIDGE	ONTARIO	CANADA	N3C 2W4	
70519		3568	AMGEN CANADA INC	DIN OWNER	Y	Y	Y	N		"6775 FINANCIAL DRIVE, SUITE 100"	MISSISSAUGA	ONTARIO	CANADA	L5N 0A4	
70522		3568	AMGEN CANADA INC	DIN OWNER	Y	Y	Y	N		"6775 FINANCIAL DRIVE, SUITE 100"	MISSISSAUGA	ONTARIO	CANADA	L5N 0A4	
70525		3568	AMGEN CANADA INC	DIN OWNER	Y	Y	Y	N		"6775 FINANCIAL DRIVE, SUITE 100"	MISSISSAUGA	ONTARIO	CANADA	L5N 0A4	
70530		11642	HOSPIRA HEALTHCARE CORPORATION	DIN OWNER	Y	Y	Y			17300 TRANS-CANADA HIGHWAY	KIRKLAND	QUEBEC	CANADA	H9J 2M5	
70550		10843	"DREW CANADA, DIVISION OF ASHLAND CANADA CORPORATION"	DIN OWNER	Y	Y	Y			525 FINLEY AVE	AJAX	ONTARIO	CANADA	L1S 2E5	
70557		7950	G&W LABORATORIES INC.	DIN OWNER	Y	Y	N			111 COOLIDGE ST.	SOUTH PLAINFIELD	NEW JERSEY	UNITED STATES	07080-3895	
70558		7950	G&W LABORATORIES INC.	DIN OWNER	Y	Y	N			111 COOLIDGE ST.	SOUTH PLAINFIELD	NEW JERSEY	UNITED STATES	07080-3895	
70566	LZI95	6236	LONZA INC.	DIN OWNER	Y	Y	N	N		90 BOROLINE ROAD	ALLENDALE	NEW JERSEY	UNITED STATES	7401	
70574		14624	PFIZER CONSUMER HEALTHCARE A DIVISION OF PFIZER CANADA INC	DIN OWNER	Y	N	Y			"55 STANDISH COURT, SUITE 450"	MISSISSAUGA	ONTARIO	CANADA	L5R 4B2	
70625	RIV07	5034	LABORATOIRE RIVA INC	DIN OWNER	Y	Y	N	N		660 BOUL. INDUSTRIEL	BLAINVILLE	QUEBEC	CANADA	J7C 3V4	
70626	RIV07	5034	LABORATOIRE RIVA INC	DIN OWNER	Y	Y	N	N		660 BOUL. INDUSTRIEL	BLAINVILLE	QUEBEC	CANADA	J7C 3V4	
70678	PDD07	4897	PRODEMDIS ENR.	DIN OWNER	Y	Y	N	N		4355 SIR WILFRID LAURIER	ST-HUBERT	QUEBEC	CANADA	J3Y 3X3	
70708		10767	"ADVANCED AESTHETICS, INC."	DIN OWNER	Y	Y	Y			235 NORTH MAIN	SPANISH FORK	UTAH	UNITED STATES	84660	
70749		16555	FRESENIUS KABI CANADA LTD	DIN OWNER	Y	Y	Y			"165 GALAXY BLVD, SUITE 100"	TORONTO	ONTARIO	CANADA	M9W 0C8	
70774		10292	ORBUS PHARMA INC	DIN OWNER	Y	Y	Y			20 KONRAD CRESCENT	MARKHAM	ONTARIO	CANADA	L3R 8T4	
70775		10292	ORBUS PHARMA INC	DIN OWNER	Y	Y	Y			20 KONRAD CRESCENT	MARKHAM	ONTARIO	CANADA	L3R 8T4	
70780		13930	MYLAN PHARMACEUTICALS ULC	DIN OWNER	Y	Y	Y			85 ADVANCE ROAD	ETOBICOKE	ONTARIO	CANADA	M8Z 2S6	
70801		10292	ORBUS PHARMA INC	DIN OWNER	Y	Y	Y			20 KONRAD CRESCENT	MARKHAM	ONTARIO	CANADA	L3R 8T4	
70802		10292	ORBUS PHARMA INC	DIN OWNER	Y	Y	Y			20 KONRAD CRESCENT	MARKHAM	ONTARIO	CANADA	L3R 8T4	
70901		10942	MERCER GROUP LTD/CHILDRENS HEALTHCARE RESEARCH GROUP	DIN OWNER	Y	Y	Y			254 HORNBINE RD	REHOBOTH	MASSACHUSETTS	UNITED STATES	2769	
70902		10942	MERCER GROUP LTD/CHILDRENS HEALTHCARE RESEARCH GROUP	DIN OWNER	Y	Y	Y			254 HORNBINE RD	REHOBOTH	MASSACHUSETTS	UNITED STATES	2769	
70915		10855	KUUSPORT MANUFACTURING LIMITED	DIN OWNER	Y	Y	Y		UNIT 5 & 6A	450 TAPSCOTT ROAD	TORONTO	ONTARIO	CANADA	M1B 1Y4	
70932		7555	EURO-PHARM INTERNATIONAL CANADA INC	DIN OWNER	Y	Y	Y	N		9400  BOUL. LANGELIER	MONTREAL	QUEBEC	CANADA	H1P 3H8	
70933		7555	EURO-PHARM INTERNATIONAL CANADA INC	DIN OWNER	Y	Y	Y	N		9400  BOUL. LANGELIER	MONTREAL	QUEBEC	CANADA	H1P 3H8	
70939	NXP08	4828	NU-PHARM INC	DIN OWNER	Y	N	Y	N		"1165 CREDITSTONE RD, UNIT 2"	VAUGHAN	ONTARIO	CANADA	L4K 4N7	
70940	NXP08	4828	NU-PHARM INC	DIN OWNER	Y	N	Y	N		"1165 CREDITSTONE RD, UNIT 2"	VAUGHAN	ONTARIO	CANADA	L4K 4N7	
70941	NXP08	4828	NU-PHARM INC	DIN OWNER	Y	N	Y	N		"1165 CREDITSTONE RD, UNIT 2"	VAUGHAN	ONTARIO	CANADA	L4K 4N7	
70942	CIE95	3900	"CCA INDUSTRIES, INC."	DIN OWNER	Y	Y	Y	N		"65 CHALLENGER ROAD, SUITE 340"	RIDGEFIELD PARK	NEW JERSEY	UNITED STATES	7660	
70965	AOY95	3628	A&L LABORATORIES INC.	DIN OWNER	Y	N	N	N		1001 GLENWOOD AVENUE	MINNEAPOLIS	MINNESOTA	UNITED STATES	55405	
71001		10002	PHARMACIA ANIMAL HEALTH	DIN OWNER	Y	N	N			17300 TRANS-CANADA HIGHWAY	KIRKLAND	QUEBEC	CANADA	H9J 2M5	
71003		10292	ORBUS PHARMA INC	DIN OWNER	Y	Y	Y			20 KONRAD CRESCENT	MARKHAM	ONTARIO	CANADA	L3R 8T4	
71022		10139	IVAX PHARMACEUTICALS INCORPORATED	DIN OWNER	Y	N	N			4400 BISCAYNE BLVD	MIAMI	FLORIDA	UNITED STATES	33137	
71023		10139	IVAX PHARMACEUTICALS INCORPORATED	DIN OWNER	Y	N	N			4400 BISCAYNE BLVD	MIAMI	FLORIDA	UNITED STATES	33137	
71084	APX08	3636	APOTEX INC	DIN OWNER	Y	Y	Y	N		150 SIGNET DRIVE	TORONTO	ONTARIO	CANADA	M9L 1T9	
71092		9730	GEA FARM TECHNOLOGIES INC	DIN OWNER	Y	Y	Y			1880 COUNTRY FARM DRIVE	NAPERVILLE	ILLINOIS	UNITED STATES	60563	
71132		10793	MERIX PHARMACEUTICAL CORP.	DIN OWNER	Y	Y	N		3-204	18E DUNDEE ROAD	BARRINGTON	ILLINOIS	UNITED STATES	60010	
71165	PHH07	4917	PHARMEL INC	DIN OWNER	Y	Y	Y	N		"6111, AVENUE ROYALMOUNT, SUITE 100"	MONTREAL	QUEBEC	CANADA	H4P 2T4	
71169	PHH07	4917	PHARMEL INC	DIN OWNER	Y	Y	Y	N		"6111, AVENUE ROYALMOUNT, SUITE 100"	MONTREAL	QUEBEC	CANADA	H4P 2T4	
71189		15086	APTALIS PHARMA CANADA ULC	DIN OWNER	Y	N	N		500	85 ENTERPRISE BLVD	MARKHAM	ONTARIO	CANADA	L6G 0B5	
71286	NXP08	4828	NU-PHARM INC	DIN OWNER	Y	N	Y	N		"1165 CREDITSTONE RD, UNIT 2"	VAUGHAN	ONTARIO	CANADA	L4K 4N7	
71287	NXP08	4828	NU-PHARM INC	DIN OWNER	Y	N	Y	N		"1165 CREDITSTONE RD, UNIT 2"	VAUGHAN	ONTARIO	CANADA	L4K 4N7	
71352	PMS07	3550	PHARMASCIENCE INC	DIN OWNER	Y	Y	Y	N	100	"6111, ROYALMOUNT AVENUE"	MONTREAL	QUEBEC	CANADA	H4P 2T4	
71414		10997	BIOMED PHARMA	DIN OWNER	Y	Y	N			1565 BOUL LIONEL-BOULET	VARENNES	QUEBEC	CANADA	J3X 1P7	
71434	YNO08	5348	BAYER INC CONSUMER CARE	DIN OWNER	Y	N	Y	N		2920  MATHESON BLVD E	MISSISSAUGA	ONTARIO	CANADA	L4W 5R6	
71442		10225	DR REDDYS LABORATORIES INC	DIN OWNER	Y	Y	Y			107 COLLEGE ROAD EAST	PRINCETON	NEW JERSEY	UNITED STATES	8540	
71443		10225	DR REDDYS LABORATORIES INC	DIN OWNER	Y	Y	Y			107 COLLEGE ROAD EAST	PRINCETON	NEW JERSEY	UNITED STATES	8540	
71444		10225	DR REDDYS LABORATORIES INC	DIN OWNER	Y	Y	Y			107 COLLEGE ROAD EAST	PRINCETON	NEW JERSEY	UNITED STATES	8540	
71445		10225	DR REDDYS LABORATORIES INC	DIN OWNER	Y	Y	Y			107 COLLEGE ROAD EAST	PRINCETON	NEW JERSEY	UNITED STATES	8540	
71447	LZI95	6236	LONZA INC.	DIN OWNER	Y	Y	N	N		90 BOROLINE ROAD	ALLENDALE	NEW JERSEY	UNITED STATES	7401	
71448	LZI95	6236	LONZA INC.	DIN OWNER	Y	Y	N	N		90 BOROLINE ROAD	ALLENDALE	NEW JERSEY	UNITED STATES	7401	
71449	LZI95	6236	LONZA INC.	DIN OWNER	Y	Y	N	N		90 BOROLINE ROAD	ALLENDALE	NEW JERSEY	UNITED STATES	7401	
71516	LZI95	6236	LONZA INC.	DIN OWNER	Y	Y	N	N		90 BOROLINE ROAD	ALLENDALE	NEW JERSEY	UNITED STATES	7401	
71517	LZI95	6236	LONZA INC.	DIN OWNER	Y	Y	N	N		90 BOROLINE ROAD	ALLENDALE	NEW JERSEY	UNITED STATES	7401	
71518	LZI95	6236	LONZA INC.	DIN OWNER	Y	Y	N	N		90 BOROLINE ROAD	ALLENDALE	NEW JERSEY	UNITED STATES	7401	
71519	LZI95	6236	LONZA INC.	DIN OWNER	Y	Y	N	N		90 BOROLINE ROAD	ALLENDALE	NEW JERSEY	UNITED STATES	7401	
71520	LZI95	6236	LONZA INC.	DIN OWNER	Y	Y	N	N		90 BOROLINE ROAD	ALLENDALE	NEW JERSEY	UNITED STATES	7401	
71521	LZI95	6236	LONZA INC.	DIN OWNER	Y	Y	N	N		90 BOROLINE ROAD	ALLENDALE	NEW JERSEY	UNITED STATES	7401	
71556	LZI95	6236	LONZA INC.	DIN OWNER	Y	Y	N	N		90 BOROLINE ROAD	ALLENDALE	NEW JERSEY	UNITED STATES	7401	
71576	CSO95	5782	SUN-FUN PRODUCTS INC.	DIN OWNER	Y	Y	N	N		340 MARION ST.	DAYTONA BEACH	FLORIDA	UNITED STATES	32114	
71577	CSO95	5782	SUN-FUN PRODUCTS INC.	DIN OWNER	Y	Y	N	N		340 MARION ST.	DAYTONA BEACH	FLORIDA	UNITED STATES	32114	
71578	CSO95	5782	SUN-FUN PRODUCTS INC.	DIN OWNER	Y	Y	N	N		340 MARION ST.	DAYTONA BEACH	FLORIDA	UNITED STATES	32114	
71579	CSO95	5782	SUN-FUN PRODUCTS INC.	DIN OWNER	Y	Y	N	N		340 MARION ST.	DAYTONA BEACH	FLORIDA	UNITED STATES	32114	
71580	CSO95	5782	SUN-FUN PRODUCTS INC.	DIN OWNER	Y	Y	N	N		340 MARION ST.	DAYTONA BEACH	FLORIDA	UNITED STATES	32114	
71581	CSO95	5782	SUN-FUN PRODUCTS INC.	DIN OWNER	Y	Y	N	N		340 MARION ST.	DAYTONA BEACH	FLORIDA	UNITED STATES	32114	
71599		10846	NICE-PAK PRODUCTS INC	DIN OWNER	Y	Y	Y			TWO NICE PAK PARK	ORANGEBURG	NEW YORK	UNITED STATES	10962-1376	
71620	NBK35	4720	NORBROOK LABORATORIES LTD.	DIN OWNER	Y	N	N	N		"STATION WORKS, CAMLOUGH ROAD"	"NEWRY, COUNTY DOWN"	NORTHERN IRELAND	UNITED KINGDOM	BT35 6JP	
71633	PMS07	3550	PHARMASCIENCE INC	DIN OWNER	Y	Y	Y	N	100	"6111, ROYALMOUNT AVENUE"	MONTREAL	QUEBEC	CANADA	H4P 2T4	
71646	ALC08	3594	ALCON CANADA INC	DIN OWNER	Y	Y	Y	N		2665 MEADOWPINE BLVD	MISSISSAUGA	ONTARIO	CANADA	L5N 8C7	
71651		9201	SKINVISIBLE PHARMACEUTICALS INC	DIN OWNER	Y	Y	Y	N	10	6320 SOUTH SANDHILL ROAD	LAS VEGAS	NEVADA	UNITED STATES	89120	
71652		9201	SKINVISIBLE PHARMACEUTICALS INC	DIN OWNER	Y	Y	Y	N	10	6320 SOUTH SANDHILL ROAD	LAS VEGAS	NEVADA	UNITED STATES	89120	
71692	RAX08	8892	STERIMAX INC	DIN OWNER	Y	Y	Y			2770 PORTLAND DRIVE	OAKVILLE	ONTARIO	CANADA	L6H 6R4	
71710	LZI95	6236	LONZA INC.	DIN OWNER	Y	Y	N	N		90 BOROLINE ROAD	ALLENDALE	NEW JERSEY	UNITED STATES	7401	
71711	LZI95	6236	LONZA INC.	DIN OWNER	Y	Y	N	N		90 BOROLINE ROAD	ALLENDALE	NEW JERSEY	UNITED STATES	7401	
71712	LZI95	6236	LONZA INC.	DIN OWNER	Y	Y	N	N		90 BOROLINE ROAD	ALLENDALE	NEW JERSEY	UNITED STATES	7401	
71762	NPE08	4780	NUTRICORP INTERNATIONAL	DIN OWNER	Y	Y	Y	N		4025 RHODES DRIVE	WINDSOR	ONTARIO	CANADA	N8W 5B5	
71763	NPE08	4780	NUTRICORP INTERNATIONAL	DIN OWNER	Y	Y	Y	N		4025 RHODES DRIVE	WINDSOR	ONTARIO	CANADA	N8W 5B5	
71805		10292	ORBUS PHARMA INC	DIN OWNER	Y	Y	Y			20 KONRAD CRESCENT	MARKHAM	ONTARIO	CANADA	L3R 8T4	
71872	JAM08	4403	JAMIESON LABORATORIES LTD	DIN OWNER	Y	Y	N	N		4025 RHODES DRIVE	WINDSOR	ONTARIO	CANADA	N8W 5B5	
71873	JAM08	4403	JAMIESON LABORATORIES LTD	DIN OWNER	Y	Y	N	N		4025 RHODES DRIVE	WINDSOR	ONTARIO	CANADA	N8W 5B5	
71891	GUC10	4282	GUARDIAN CHEMICALS INC.	DIN OWNER	Y	Y	Y	N		155-55202 SH 825	STURGEON COUNTY	ALBERTA	CANADA	T8L 5C1	
71901	YNO08	5348	BAYER INC CONSUMER CARE	DIN OWNER	Y	N	Y	N		2920  MATHESON BLVD E	MISSISSAUGA	ONTARIO	CANADA	L4W 5R6	
71922		11163	PHARMA STRIDES CANADA CORPORATION	DIN OWNER	Y	Y	Y		BUREAU 206	1205 RUE AMPERE	BOUCHERVILLE	QUEBEC	CANADA	J4B 7M6	
71924		11163	PHARMA STRIDES CANADA CORPORATION	DIN OWNER	Y	Y	Y		BUREAU 206	1205 RUE AMPERE	BOUCHERVILLE	QUEBEC	CANADA	J4B 7M6	
71928	LZI95	6236	LONZA INC.	DIN OWNER	Y	Y	N	N		90 BOROLINE ROAD	ALLENDALE	NEW JERSEY	UNITED STATES	7401	
71929	LZI95	6236	LONZA INC.	DIN OWNER	Y	Y	N	N		90 BOROLINE ROAD	ALLENDALE	NEW JERSEY	UNITED STATES	7401	
71930	REK07	5010	RECKITT BENCKISER (CANADA) INC	DIN OWNER	Y	Y	Y	N	UNIT #2	1680 TECH AVENUE	MISSISSAUGA	ONTARIO	CANADA	L4W 5S9	
71931		11175	ADEPT CHEMICAL TECHNOLOGY INC.	DIN OWNER	Y	Y	Y			505 MCGREGOR AVE.	LONDON	ONTARIO	CANADA	N6J 2S8	
71957	PIA08	8481	PALADIN LABS INC	DIN OWNER	Y	Y	Y	N		"100 BLVD ALEXIS-NIHON, SUITE 600"	SAINT-LAURENT	QUEBEC	CANADA	H4M 2P2	
71960	PIA08	8481	PALADIN LABS INC	DIN OWNER	Y	Y	Y	N		"100 BLVD ALEXIS-NIHON, SUITE 600"	SAINT-LAURENT	QUEBEC	CANADA	H4M 2P2	
71961	PIA08	8481	PALADIN LABS INC	DIN OWNER	Y	Y	Y	N		"100 BLVD ALEXIS-NIHON, SUITE 600"	SAINT-LAURENT	QUEBEC	CANADA	H4M 2P2	
71962	PIA08	8481	PALADIN LABS INC	DIN OWNER	Y	Y	Y	N		"100 BLVD ALEXIS-NIHON, SUITE 600"	SAINT-LAURENT	QUEBEC	CANADA	H4M 2P2	
71967		8254	VERIDIEN CORPORATION	DIN OWNER	Y	N	Y	N		PO BOX 47097	ST. PETERSBURG	FLORIDA	UNITED STATES	33743-7097	
71982	LZI95	6236	LONZA INC.	DIN OWNER	Y	Y	N	N		90 BOROLINE ROAD	ALLENDALE	NEW JERSEY	UNITED STATES	7401	
71984	LZI95	6236	LONZA INC.	DIN OWNER	Y	Y	N	N		90 BOROLINE ROAD	ALLENDALE	NEW JERSEY	UNITED STATES	7401	
71988		8254	VERIDIEN CORPORATION	DIN OWNER	Y	N	Y	N		PO BOX 47097	ST. PETERSBURG	FLORIDA	UNITED STATES	33743-7097	
71990		10002	PHARMACIA ANIMAL HEALTH	DIN OWNER	Y	N	N			17300 TRANS-CANADA HIGHWAY	KIRKLAND	QUEBEC	CANADA	H9J 2M5	
72007	YNO08	5348	BAYER INC CONSUMER CARE	DIN OWNER	Y	N	Y	N		2920  MATHESON BLVD E	MISSISSAUGA	ONTARIO	CANADA	L4W 5R6	
72010	YNO08	5348	BAYER INC CONSUMER CARE	DIN OWNER	Y	N	Y	N		2920  MATHESON BLVD E	MISSISSAUGA	ONTARIO	CANADA	L4W 5R6	
72055	TAN08	5240	TANTA PHARMACEUTICALS INC	DIN OWNER	Y	Y	Y	N		1009 BURNS STREET EAST	WHITBY	ONTARIO	CANADA	L1N 6A6	
72074		11228	"CRADLE HOLDINGS INC., ERNO LASZLO D.B.A."	DIN OWNER	Y	N	Y			519 BROOME STREET	NEW YORK	NEW YORK	UNITED STATES	10013	
72078		10139	IVAX PHARMACEUTICALS INCORPORATED	DIN OWNER	Y	N	N			4400 BISCAYNE BLVD	MIAMI	FLORIDA	UNITED STATES	33137	
72092		12027	SANDOZ CANADA INCORPORATED	DIN OWNER	Y	Y	Y			145 JULES-LÉGER STREET	BOUCHERVILLE	QUEBEC	CANADA	J4B 7K8	
72100		12027	SANDOZ CANADA INCORPORATED	DIN OWNER	Y	Y	Y			145 JULES-LÉGER STREET	BOUCHERVILLE	QUEBEC	CANADA	J4B 7K8	
72101		7556	SWISS AMERICAN PRODUCTS INC.	DIN OWNER	Y	Y	Y	N	SUITE #126	2055 LUNA ROAD	CARROLLTON	TEXAS	UNITED STATES	75006	
72215		16647	SEARCHLIGHT PHARMA INC	DIN OWNER	Y	Y	N			"1600 RUE NOTRE DAME OUEST, SUITE 312"	MONTREAL	QUEBEC	CANADA	H3J 1M1	
72277	YNO08	5348	BAYER INC CONSUMER CARE	DIN OWNER	Y	N	Y	N		2920  MATHESON BLVD E	MISSISSAUGA	ONTARIO	CANADA	L4W 5R6	
72298	HAS95	6040	CHASE PRODUCTS COMPANY	DIN OWNER	Y	Y	Y	N		PO BOX/CP 70	MAYWOOD	ILLINOIS	UNITED STATES	60153	
72343	REK07	5010	RECKITT BENCKISER (CANADA) INC	DIN OWNER	Y	Y	Y	N	UNIT #2	1680 TECH AVENUE	MISSISSAUGA	ONTARIO	CANADA	L4W 5S9	
72372		11902	VALEANT CANADA LP/VALEANT CANADA S.E.C.	DIN OWNER	Y	Y	Y			2150 BOUL. ST-ELZEAR OUEST	LAVAL	QUEBEC	CANADA	H7L 4A8	
72373		11902	VALEANT CANADA LP/VALEANT CANADA S.E.C.	DIN OWNER	Y	Y	Y			2150 BOUL. ST-ELZEAR OUEST	LAVAL	QUEBEC	CANADA	H7L 4A8	
72374		11902	VALEANT CANADA LP/VALEANT CANADA S.E.C.	DIN OWNER	Y	Y	Y			2150 BOUL. ST-ELZEAR OUEST	LAVAL	QUEBEC	CANADA	H7L 4A8	
72375		11902	VALEANT CANADA LP/VALEANT CANADA S.E.C.	DIN OWNER	Y	Y	Y			2150 BOUL. ST-ELZEAR OUEST	LAVAL	QUEBEC	CANADA	H7L 4A8	
72395		10292	ORBUS PHARMA INC	DIN OWNER	Y	Y	Y			20 KONRAD CRESCENT	MARKHAM	ONTARIO	CANADA	L3R 8T4	
72396		10292	ORBUS PHARMA INC	DIN OWNER	Y	Y	Y			20 KONRAD CRESCENT	MARKHAM	ONTARIO	CANADA	L3R 8T4	
72435		11271	RANBAXY PHARMACEUTICALS CANADA INC.	DIN OWNER	Y	Y	Y			126 EAST DRIVE	BRAMPTON	ONTARIO	CANADA	L6T 1C1	
72446	APX08	3636	APOTEX INC	DIN OWNER	Y	Y	Y	N		150 SIGNET DRIVE	TORONTO	ONTARIO	CANADA	M9L 1T9	
72530	PMS07	3550	PHARMASCIENCE INC	DIN OWNER	Y	Y	Y	N	100	"6111, ROYALMOUNT AVENUE"	MONTREAL	QUEBEC	CANADA	H4P 2T4	
72555	AZC08	9307	ASTRAZENECA CANADA INC	DIN OWNER	Y	N	Y	N		"1004 MIDDLEGATE ROAD, SUITE 5000"	MISSISSAUGA	ONTARIO	CANADA	L4Y 1M4	
72558		10139	IVAX PHARMACEUTICALS INCORPORATED	DIN OWNER	Y	N	N			4400 BISCAYNE BLVD	MIAMI	FLORIDA	UNITED STATES	33137	
72559		10139	IVAX PHARMACEUTICALS INCORPORATED	DIN OWNER	Y	N	N			4400 BISCAYNE BLVD	MIAMI	FLORIDA	UNITED STATES	33137	
72578		11346	RACHEL PERRY INC.	DIN OWNER	Y	Y	Y			15140 KESWICK STREET	VAN NUYS	CALIFORNIA	UNITED STATES	91405	
72579		11343	MASSIMO GUARDUCCI SRL	DIN OWNER	Y	N	N			VIA TOSCANA 29-29/A	PRATO	SAONE ET LOIRE	ITALY	59100	
72584		11346	RACHEL PERRY INC.	DIN OWNER	Y	Y	Y			15140 KESWICK STREET	VAN NUYS	CALIFORNIA	UNITED STATES	91405	
72590	SFK08	5205	SEAFORD PHARMACEUTICALS INC	DIN OWNER	Y	Y	Y	N	UNIT 28	1530 DREW ROAD	MISSISSAUGA	ONTARIO	CANADA	L5S 1W8	
72612	CYE95	4000	CETYLITE INDUSTRIES INC.	DIN OWNER	Y	N	N	N		9051 RIVER ROAD	PENNSAUKEN	NEW JERSEY	UNITED STATES	08110-3203	
72625		7950	G&W LABORATORIES INC.	DIN OWNER	Y	Y	N			111 COOLIDGE ST.	SOUTH PLAINFIELD	NEW JERSEY	UNITED STATES	07080-3895	
72667	PMS07	3550	PHARMASCIENCE INC	DIN OWNER	Y	Y	Y	N	100	"6111, ROYALMOUNT AVENUE"	MONTREAL	QUEBEC	CANADA	H4P 2T4	
72694		11346	RACHEL PERRY INC.	DIN OWNER	Y	Y	Y			15140 KESWICK STREET	VAN NUYS	CALIFORNIA	UNITED STATES	91405	
72698		9752	ENGELHARD CORPORATION	DIN OWNER	Y	Y	Y			101 WOOD AVENUE	ISELIN	NEW JERSEY	UNITED STATES	8830	
72721	BEL08	5602	BELVEDERE INTERNATIONAL INC.	DIN OWNER	Y	Y	N	N		5675 KEATON CRESCENT	MISSISSAUGA	ONTARIO	CANADA	L5R 3G3	
72722	BEL08	5602	BELVEDERE INTERNATIONAL INC.	DIN OWNER	Y	Y	N	N		5675 KEATON CRESCENT	MISSISSAUGA	ONTARIO	CANADA	L5R 3G3	
72769	PMS07	3550	PHARMASCIENCE INC	DIN OWNER	Y	Y	Y	N	100	"6111, ROYALMOUNT AVENUE"	MONTREAL	QUEBEC	CANADA	H4P 2T4	
72787	PMS07	3550	PHARMASCIENCE INC	DIN OWNER	Y	Y	Y	N	100	"6111, ROYALMOUNT AVENUE"	MONTREAL	QUEBEC	CANADA	H4P 2T4	
72842		8178	DUMEX MEDICAL CANADA INC.	DIN OWNER	Y	N	N	N		104 SHORTING ROAD	TORONTO	ONTARIO	CANADA	M1S 3S4	
72843		8178	DUMEX MEDICAL CANADA INC.	DIN OWNER	Y	N	N	N		104 SHORTING ROAD	TORONTO	ONTARIO	CANADA	M1S 3S4	
72875		10139	IVAX PHARMACEUTICALS INCORPORATED	DIN OWNER	Y	N	N			4400 BISCAYNE BLVD	MIAMI	FLORIDA	UNITED STATES	33137	
72891	APX08	3636	APOTEX INC	DIN OWNER	Y	Y	Y	N		150 SIGNET DRIVE	TORONTO	ONTARIO	CANADA	M9L 1T9	
72900	ALC08	3594	ALCON CANADA INC	DIN OWNER	Y	Y	Y	N		2665 MEADOWPINE BLVD	MISSISSAUGA	ONTARIO	CANADA	L5N 8C7	
72903		10292	ORBUS PHARMA INC	DIN OWNER	Y	Y	Y			20 KONRAD CRESCENT	MARKHAM	ONTARIO	CANADA	L3R 8T4	
72904		10292	ORBUS PHARMA INC	DIN OWNER	Y	Y	Y			20 KONRAD CRESCENT	MARKHAM	ONTARIO	CANADA	L3R 8T4	
72905		10292	ORBUS PHARMA INC	DIN OWNER	Y	Y	Y			20 KONRAD CRESCENT	MARKHAM	ONTARIO	CANADA	L3R 8T4	
72906		10292	ORBUS PHARMA INC	DIN OWNER	Y	Y	Y			20 KONRAD CRESCENT	MARKHAM	ONTARIO	CANADA	L3R 8T4	
72959		11428	PERFECTA PRODUCTS INC.	DIN OWNER	Y	Y	N			131 W SOUTH RANGE ROAD	NORTH LIMA	OHIO	UNITED STATES	44452	128
72965	BQC07	3798	BRISTOL-MYERS SQUIBB CANADA	DIN OWNER	Y	Y	Y	N		"2344 BOUL. ALFRED-NOBEL, SUITE 300"	MONTRÉAL (ST-LAURENT)	QUEBEC	CANADA	H4S 0A4	
73049		8178	DUMEX MEDICAL CANADA INC.	DIN OWNER	Y	N	N	N		104 SHORTING ROAD	TORONTO	ONTARIO	CANADA	M1S 3S4	
73051		15772	ACTAVIS PHARMA COMPANY	DIN OWNER	Y	Y	Y			"6733 MISSISSAUGA ROAD, SUITE 400"	MISSISSAUGA	ONTARIO	CANADA	L5N 6J5	
73068	JPC10	4415	JAMP PHARMA CORPORATION	DIN OWNER	Y	Y	Y	N		1310 RUE NOBEL	BOUCHERVILLE	QUEBEC	CANADA	J4B 5H3	
73071	PDL07	4901	PRO DOC LIMITEE	DIN OWNER	Y	Y	N	N		2925 BOULEVARD INDUSTRIEL	LAVAL	QUEBEC	CANADA	H7L 3W9	
73079	NXP08	4828	NU-PHARM INC	DIN OWNER	Y	N	Y	N		"1165 CREDITSTONE RD, UNIT 2"	VAUGHAN	ONTARIO	CANADA	L4K 4N7	
73080	NXP08	4828	NU-PHARM INC	DIN OWNER	Y	N	Y	N		"1165 CREDITSTONE RD, UNIT 2"	VAUGHAN	ONTARIO	CANADA	L4K 4N7	
73081	NXP08	4828	NU-PHARM INC	DIN OWNER	Y	N	Y	N		"1165 CREDITSTONE RD, UNIT 2"	VAUGHAN	ONTARIO	CANADA	L4K 4N7	
73082	NXP08	4828	NU-PHARM INC	DIN OWNER	Y	N	Y	N		"1165 CREDITSTONE RD, UNIT 2"	VAUGHAN	ONTARIO	CANADA	L4K 4N7	
73083	NXP08	4828	NU-PHARM INC	DIN OWNER	Y	N	Y	N		"1165 CREDITSTONE RD, UNIT 2"	VAUGHAN	ONTARIO	CANADA	L4K 4N7	
73084	NXP08	4828	NU-PHARM INC	DIN OWNER	Y	N	Y	N		"1165 CREDITSTONE RD, UNIT 2"	VAUGHAN	ONTARIO	CANADA	L4K 4N7	
73085	NXP08	4828	NU-PHARM INC	DIN OWNER	Y	N	Y	N		"1165 CREDITSTONE RD, UNIT 2"	VAUGHAN	ONTARIO	CANADA	L4K 4N7	
73097	APX08	3636	APOTEX INC	DIN OWNER	Y	Y	Y	N		150 SIGNET DRIVE	TORONTO	ONTARIO	CANADA	M9L 1T9	
73099		16555	FRESENIUS KABI CANADA LTD	DIN OWNER	Y	Y	Y			"165 GALAXY BLVD, SUITE 100"	TORONTO	ONTARIO	CANADA	M9W 0C8	
73101	ZBE10	7037	WING QUON ENTERPRISES LTD.	DIN OWNER	Y	Y	N	N	105-115	6660 GRAYBAR ROAD	RICHMOND	BRITISH COLUMBIA	CANADA	V6W 1H9	
73213	NXP08	4828	NU-PHARM INC	DIN OWNER	Y	N	Y	N		"1165 CREDITSTONE RD, UNIT 2"	VAUGHAN	ONTARIO	CANADA	L4K 4N7	
73221		10990	VIVIER CANADA INCORPORATED	DIN OWNER	Y	N	N			288 ADRIEN-PATENAUDE	VAUDREUIL-DORION	QUEBEC	CANADA	J7V 5V5	
73239	PNL08	4935	PATHEON LABORATORIES	DIN OWNER	Y	N	N	N		921 GATEWAY DRIVE	BURLINGTON	ONTARIO	CANADA	L7L 5K5	
73279		11163	PHARMA STRIDES CANADA CORPORATION	DIN OWNER	Y	Y	Y		BUREAU 206	1205 RUE AMPERE	BOUCHERVILLE	QUEBEC	CANADA	J4B 7M6	
73280		11163	PHARMA STRIDES CANADA CORPORATION	DIN OWNER	Y	Y	Y		BUREAU 206	1205 RUE AMPERE	BOUCHERVILLE	QUEBEC	CANADA	J4B 7M6	
73281		11163	PHARMA STRIDES CANADA CORPORATION	DIN OWNER	Y	Y	Y		BUREAU 206	1205 RUE AMPERE	BOUCHERVILLE	QUEBEC	CANADA	J4B 7M6	
73282		11163	PHARMA STRIDES CANADA CORPORATION	DIN OWNER	Y	Y	Y		BUREAU 206	1205 RUE AMPERE	BOUCHERVILLE	QUEBEC	CANADA	J4B 7M6	
73290	CIE95	3900	"CCA INDUSTRIES, INC."	DIN OWNER	Y	Y	Y	N		"65 CHALLENGER ROAD, SUITE 340"	RIDGEFIELD PARK	NEW JERSEY	UNITED STATES	7660	
73301		11542	INTERPARFUMS USA LIMITED LIABILITY COMPANY	DIN OWNER	Y	N	N			551 FIFTH AVENUE	NEW YORK	NEW YORK	UNITED STATES	10176	
73302		11542	INTERPARFUMS USA LIMITED LIABILITY COMPANY	DIN OWNER	Y	N	N			551 FIFTH AVENUE	NEW YORK	NEW YORK	UNITED STATES	10176	
73381	NXP08	4828	NU-PHARM INC	DIN OWNER	Y	N	Y	N		"1165 CREDITSTONE RD, UNIT 2"	VAUGHAN	ONTARIO	CANADA	L4K 4N7	
73382	NXP08	4828	NU-PHARM INC	DIN OWNER	Y	N	Y	N		"1165 CREDITSTONE RD, UNIT 2"	VAUGHAN	ONTARIO	CANADA	L4K 4N7	
73388		6688	GEMINI PACKAGING LTD	DIN OWNER	Y	Y	Y	N	150	12071 JACOBSON	RICHMOND	BRITISH COLUMBIA	CANADA	V6W 1L5	
73392		12770	SHIRE HUMAN GENETIC THERAPIES INC	DIN OWNER	Y	N	N			300 SHIRE WAY	LEXINGTON	MASSACHUSETTS	UNITED STATES	2421	
73393	LZI95	6236	LONZA INC.	DIN OWNER	Y	Y	N	N		90 BOROLINE ROAD	ALLENDALE	NEW JERSEY	UNITED STATES	7401	
73394	LZI95	6236	LONZA INC.	DIN OWNER	Y	Y	N	N		90 BOROLINE ROAD	ALLENDALE	NEW JERSEY	UNITED STATES	7401	
73415	TAR08	5241	TARO PHARMACEUTICALS INC	DIN OWNER	Y	Y	N	N		130 EAST DRIVE	BRAMPTON	ONTARIO	CANADA	L6T 1C1	
73428	PMS07	3550	PHARMASCIENCE INC	DIN OWNER	Y	Y	Y	N	100	"6111, ROYALMOUNT AVENUE"	MONTREAL	QUEBEC	CANADA	H4P 2T4	
73431	NXP08	4828	NU-PHARM INC	DIN OWNER	Y	N	Y	N		"1165 CREDITSTONE RD, UNIT 2"	VAUGHAN	ONTARIO	CANADA	L4K 4N7	
73434	OMG07	4852	OMEGA LABORATORIES LTD	DIN OWNER	Y	Y	Y	N		11177 HAMON	MONTREAL	QUEBEC	CANADA	H3M 3E4	
73435		11271	RANBAXY PHARMACEUTICALS CANADA INC.	DIN OWNER	Y	Y	Y			126 EAST DRIVE	BRAMPTON	ONTARIO	CANADA	L6T 1C1	
73443	NXP08	4828	NU-PHARM INC	DIN OWNER	Y	N	Y	N		"1165 CREDITSTONE RD, UNIT 2"	VAUGHAN	ONTARIO	CANADA	L4K 4N7	
73444	NXP08	4828	NU-PHARM INC	DIN OWNER	Y	N	Y	N		"1165 CREDITSTONE RD, UNIT 2"	VAUGHAN	ONTARIO	CANADA	L4K 4N7	
73445	NXP08	4828	NU-PHARM INC	DIN OWNER	Y	N	Y	N		"1165 CREDITSTONE RD, UNIT 2"	VAUGHAN	ONTARIO	CANADA	L4K 4N7	
73446	NXP08	4828	NU-PHARM INC	DIN OWNER	Y	N	Y	N		"1165 CREDITSTONE RD, UNIT 2"	VAUGHAN	ONTARIO	CANADA	L4K 4N7	
73455	NXP08	4828	NU-PHARM INC	DIN OWNER	Y	N	Y	N		"1165 CREDITSTONE RD, UNIT 2"	VAUGHAN	ONTARIO	CANADA	L4K 4N7	
73473	PHH07	4917	PHARMEL INC	DIN OWNER	Y	Y	Y	N		"6111, AVENUE ROYALMOUNT, SUITE 100"	MONTREAL	QUEBEC	CANADA	H4P 2T4	
73477	PIA08	8481	PALADIN LABS INC	DIN OWNER	Y	Y	Y	N		"100 BLVD ALEXIS-NIHON, SUITE 600"	SAINT-LAURENT	QUEBEC	CANADA	H4M 2P2	
73481		10762	CIPHER PHARMACEUTICALS INC	DIN OWNER	Y	Y	Y			"2345 ARGENTIA ROAD, SUITE 100A"	MISSISSAUGA	ONTARIO	CANADA	L5N 8K4	
73500	APX08	3636	APOTEX INC	DIN OWNER	Y	Y	Y	N		150 SIGNET DRIVE	TORONTO	ONTARIO	CANADA	M9L 1T9	
73501	MCL08	4569	MCNEIL CONSUMER HEALTHCARE DIVISION OF JOHNSON & JOHNSON INC	DIN OWNER	Y	Y	Y	N		88 MCNABB STREET	MARKHAM	ONTARIO	CANADA	L3R 5L2	
73508		11642	HOSPIRA HEALTHCARE CORPORATION	DIN OWNER	Y	Y	Y			17300 TRANS-CANADA HIGHWAY	KIRKLAND	QUEBEC	CANADA	H9J 2M5	
73514	BQC07	3798	BRISTOL-MYERS SQUIBB CANADA	DIN OWNER	Y	Y	Y	N		"2344 BOUL. ALFRED-NOBEL, SUITE 300"	MONTRÉAL (ST-LAURENT)	QUEBEC	CANADA	H4S 0A4	
73563	XYG07	6837	LABORATOIRES CONFAB INC	DIN OWNER	Y	Y	Y	N		4355 BOUL. SIR WILFRID LAURIER	ST-HUBERT	QUEBEC	CANADA	J3Y 3X3	
73564	TPB07	6684	THERAPHARMA INC.	DIN OWNER	Y	Y	N	N		4355 SIR WILFRID LAURIER	ST-HUBERT	QUEBEC	CANADA	J3Y 3X3	
73575		11505	NATIONAL THERAPY PRODUCTS INC.	DIN OWNER	Y	Y	Y		2	191 ROWNTREE DAIRY ROAD	WOODBRIDGE	ONTARIO	CANADA	L4L 8B8	
73576	BAX08	3699	BAXTER CORPORATION	DIN OWNER	Y	Y	Y	N		7125 MISSISSAUGA ROAD	MISSISSAUGA	ONTARIO	CANADA	L5N 0C2	
73577	BAX08	3699	BAXTER CORPORATION	DIN OWNER	Y	Y	Y	N		7125 MISSISSAUGA ROAD	MISSISSAUGA	ONTARIO	CANADA	L5N 0C2	
73578	BAX08	3699	BAXTER CORPORATION	DIN OWNER	Y	Y	Y	N		7125 MISSISSAUGA ROAD	MISSISSAUGA	ONTARIO	CANADA	L5N 0C2	
73582	TAR08	5241	TARO PHARMACEUTICALS INC	DIN OWNER	Y	Y	N	N		130 EAST DRIVE	BRAMPTON	ONTARIO	CANADA	L6T 1C1	
73584	TAR08	5241	TARO PHARMACEUTICALS INC	DIN OWNER	Y	Y	N	N		130 EAST DRIVE	BRAMPTON	ONTARIO	CANADA	L6T 1C1	
73585	TAR08	5241	TARO PHARMACEUTICALS INC	DIN OWNER	Y	Y	N	N		130 EAST DRIVE	BRAMPTON	ONTARIO	CANADA	L6T 1C1	
73617	RIV07	5034	LABORATOIRE RIVA INC	DIN OWNER	Y	Y	N	N		660 BOUL. INDUSTRIEL	BLAINVILLE	QUEBEC	CANADA	J7C 3V4	
73621	DPC07	4065	DOMINION PHARMACAL	DIN OWNER	Y	Y	Y	N	SUITE 100	"6111, AVENUE ROYALMOUNT"	MONTREAL	QUEBEC	CANADA	H4P 2T4	
73625	PHH07	4917	PHARMEL INC	DIN OWNER	Y	Y	Y	N		"6111, AVENUE ROYALMOUNT, SUITE 100"	MONTREAL	QUEBEC	CANADA	H4P 2T4	
73659	PHH07	4917	PHARMEL INC	DIN OWNER	Y	Y	Y	N		"6111, AVENUE ROYALMOUNT, SUITE 100"	MONTREAL	QUEBEC	CANADA	H4P 2T4	
73660	PHH07	4917	PHARMEL INC	DIN OWNER	Y	Y	Y	N		"6111, AVENUE ROYALMOUNT, SUITE 100"	MONTREAL	QUEBEC	CANADA	H4P 2T4	
73661	DPC07	4065	DOMINION PHARMACAL	DIN OWNER	Y	Y	Y	N	SUITE 100	"6111, AVENUE ROYALMOUNT"	MONTREAL	QUEBEC	CANADA	H4P 2T4	
73662	DPC07	4065	DOMINION PHARMACAL	DIN OWNER	Y	Y	Y	N	SUITE 100	"6111, AVENUE ROYALMOUNT"	MONTREAL	QUEBEC	CANADA	H4P 2T4	
73663	PMS07	3550	PHARMASCIENCE INC	DIN OWNER	Y	Y	Y	N	100	"6111, ROYALMOUNT AVENUE"	MONTREAL	QUEBEC	CANADA	H4P 2T4	
73664	PMS07	3550	PHARMASCIENCE INC	DIN OWNER	Y	Y	Y	N	100	"6111, ROYALMOUNT AVENUE"	MONTREAL	QUEBEC	CANADA	H4P 2T4	
73670	TAR08	5241	TARO PHARMACEUTICALS INC	DIN OWNER	Y	Y	N	N		130 EAST DRIVE	BRAMPTON	ONTARIO	CANADA	L6T 1C1	
73672	PDD07	4897	PRODEMDIS ENR.	DIN OWNER	Y	Y	N	N		4355 SIR WILFRID LAURIER	ST-HUBERT	QUEBEC	CANADA	J3Y 3X3	
73679	PMT07	4933	PHARMETICS (2011) INC	DIN OWNER	Y	Y	Y	N		3695 AUTOROUTE DES LAURENTIDES	LAVAL	QUEBEC	CANADA	H7L 3H7	
73717		11804	SOLSTICE NEUROSCIENCES LLC	DIN OWNER	Y	Y	N			"4010 DUPONT CIRCLE, SUITE L-07"	LOUISVILLE	KENTUCKY	UNITED STATES	40207	
73763	NXP08	4828	NU-PHARM INC	DIN OWNER	Y	N	Y	N		"1165 CREDITSTONE RD, UNIT 2"	VAUGHAN	ONTARIO	CANADA	L4K 4N7	
73764	NXP08	4828	NU-PHARM INC	DIN OWNER	Y	N	Y	N		"1165 CREDITSTONE RD, UNIT 2"	VAUGHAN	ONTARIO	CANADA	L4K 4N7	
73771	TPB07	6684	THERAPHARMA INC.	DIN OWNER	Y	Y	N	N		4355 SIR WILFRID LAURIER	ST-HUBERT	QUEBEC	CANADA	J3Y 3X3	
73776	PMT07	4933	PHARMETICS (2011) INC	DIN OWNER	Y	Y	Y	N		3695 AUTOROUTE DES LAURENTIDES	LAVAL	QUEBEC	CANADA	H7L 3H7	
73777	PMT07	4933	PHARMETICS (2011) INC	DIN OWNER	Y	Y	Y	N		3695 AUTOROUTE DES LAURENTIDES	LAVAL	QUEBEC	CANADA	H7L 3H7	
73808	GCC08	4231	GERMIPHENE CORPORATION	DIN OWNER	Y	Y	Y	N		1379 COLBORNE STREET EAST	BRANTFORD	ONTARIO	CANADA	N3T 5M1	
73818		7555	EURO-PHARM INTERNATIONAL CANADA INC	DIN OWNER	Y	Y	Y	N		9400  BOUL. LANGELIER	MONTREAL	QUEBEC	CANADA	H1P 3H8	
73826		11577	AMS HOMECARE INC.	DIN OWNER	Y	Y	Y			1360 CLIVEDEN AVE.	DELTA	BRITISH COLUMBIA	CANADA	V3M 6K2	
73827		11577	AMS HOMECARE INC.	DIN OWNER	Y	Y	Y			1360 CLIVEDEN AVE.	DELTA	BRITISH COLUMBIA	CANADA	V3M 6K2	
73835	ETD95	5938	"E.T. BROWNE DRUG CO., INC."	DIN OWNER	Y	Y	N	N		440 SLYVAN AVENUE	ENGLEWOOD CLIFFS	NEW JERSEY	UNITED STATES	7632	1613
73857	TPB07	6684	THERAPHARMA INC.	DIN OWNER	Y	Y	N	N		4355 SIR WILFRID LAURIER	ST-HUBERT	QUEBEC	CANADA	J3Y 3X3	
73860	PMT07	4933	PHARMETICS (2011) INC	DIN OWNER	Y	Y	Y	N		3695 AUTOROUTE DES LAURENTIDES	LAVAL	QUEBEC	CANADA	H7L 3H7	
73861	PMT07	4933	PHARMETICS (2011) INC	DIN OWNER	Y	Y	Y	N		3695 AUTOROUTE DES LAURENTIDES	LAVAL	QUEBEC	CANADA	H7L 3H7	
73862	PMT07	4933	PHARMETICS (2011) INC	DIN OWNER	Y	Y	Y	N		3695 AUTOROUTE DES LAURENTIDES	LAVAL	QUEBEC	CANADA	H7L 3H7	
73863	MCL08	4569	MCNEIL CONSUMER HEALTHCARE DIVISION OF JOHNSON & JOHNSON INC	DIN OWNER	Y	Y	Y	N		88 MCNABB STREET	MARKHAM	ONTARIO	CANADA	L3R 5L2	
73907		11577	AMS HOMECARE INC.	DIN OWNER	Y	Y	Y			1360 CLIVEDEN AVE.	DELTA	BRITISH COLUMBIA	CANADA	V3M 6K2	
73910		8060	ETHYPHARM INC	DIN OWNER	Y	Y	N		SUITE 2400	1000 DE LA GAUCHETIERE OUEST	MONTREAL	QUEBEC	CANADA	H3B 4W5	
73911		8060	ETHYPHARM INC	DIN OWNER	Y	Y	N		SUITE 2400	1000 DE LA GAUCHETIERE OUEST	MONTREAL	QUEBEC	CANADA	H3B 4W5	
73912		8060	ETHYPHARM INC	DIN OWNER	Y	Y	N		SUITE 2400	1000 DE LA GAUCHETIERE OUEST	MONTREAL	QUEBEC	CANADA	H3B 4W5	
73913		8060	ETHYPHARM INC	DIN OWNER	Y	Y	N		SUITE 2400	1000 DE LA GAUCHETIERE OUEST	MONTREAL	QUEBEC	CANADA	H3B 4W5	
73914		8060	ETHYPHARM INC	DIN OWNER	Y	Y	N		SUITE 2400	1000 DE LA GAUCHETIERE OUEST	MONTREAL	QUEBEC	CANADA	H3B 4W5	
73926		10577	CHIEF MEDICAL SUPPLIES LTD	DIN OWNER	Y	Y	Y			411-19 ST SE	CALGARY	ALBERTA	CANADA	T2E 6J7	
73928		10577	CHIEF MEDICAL SUPPLIES LTD	DIN OWNER	Y	Y	Y			411-19 ST SE	CALGARY	ALBERTA	CANADA	T2E 6J7	
73987	XYG07	6837	LABORATOIRES CONFAB INC	DIN OWNER	Y	Y	Y	N		4355 BOUL. SIR WILFRID LAURIER	ST-HUBERT	QUEBEC	CANADA	J3Y 3X3	
74006	JPC10	4415	JAMP PHARMA CORPORATION	DIN OWNER	Y	Y	Y	N		1310 RUE NOBEL	BOUCHERVILLE	QUEBEC	CANADA	J4B 5H3	
74008	JPC10	4415	JAMP PHARMA CORPORATION	DIN OWNER	Y	Y	Y	N		1310 RUE NOBEL	BOUCHERVILLE	QUEBEC	CANADA	J4B 5H3	
74013	PMT07	4933	PHARMETICS (2011) INC	DIN OWNER	Y	Y	Y	N		3695 AUTOROUTE DES LAURENTIDES	LAVAL	QUEBEC	CANADA	H7L 3H7	
74059		11693	GOLF AMERICA OF SOUTHWEST FLORIDA INC	DIN OWNER	Y	Y	Y			2049 CROWN DRIVE	ST AUGUSTINE	FLORIDA	UNITED STATES	32092	
74081		10139	IVAX PHARMACEUTICALS INCORPORATED	DIN OWNER	Y	N	N			4400 BISCAYNE BLVD	MIAMI	FLORIDA	UNITED STATES	33137	
74082		10139	IVAX PHARMACEUTICALS INCORPORATED	DIN OWNER	Y	N	N			4400 BISCAYNE BLVD	MIAMI	FLORIDA	UNITED STATES	33137	
74101		16555	FRESENIUS KABI CANADA LTD	DIN OWNER	Y	Y	Y			"165 GALAXY BLVD, SUITE 100"	TORONTO	ONTARIO	CANADA	M9W 0C8	
74103	PMT07	4933	PHARMETICS (2011) INC	DIN OWNER	Y	Y	Y	N		3695 AUTOROUTE DES LAURENTIDES	LAVAL	QUEBEC	CANADA	H7L 3H7	
74104	PMT07	4933	PHARMETICS (2011) INC	DIN OWNER	Y	Y	Y	N		3695 AUTOROUTE DES LAURENTIDES	LAVAL	QUEBEC	CANADA	H7L 3H7	
74129	PHH07	4917	PHARMEL INC	DIN OWNER	Y	Y	Y	N		"6111, AVENUE ROYALMOUNT, SUITE 100"	MONTREAL	QUEBEC	CANADA	H4P 2T4	
74130	PHH07	4917	PHARMEL INC	DIN OWNER	Y	Y	Y	N		"6111, AVENUE ROYALMOUNT, SUITE 100"	MONTREAL	QUEBEC	CANADA	H4P 2T4	
74141	LZI95	6236	LONZA INC.	DIN OWNER	Y	Y	N	N		90 BOROLINE ROAD	ALLENDALE	NEW JERSEY	UNITED STATES	7401	
74222	BGM08	3744	BIO AGRI MIX LP	DIN OWNER	Y	Y	Y	N		11 ELLENS STREET	MITCHELL	ONTARIO	CANADA	N0K 1N0	399
74223	BGM08	3744	BIO AGRI MIX LP	DIN OWNER	Y	Y	Y	N		11 ELLENS STREET	MITCHELL	ONTARIO	CANADA	N0K 1N0	399
74224	BGM08	3744	BIO AGRI MIX LP	DIN OWNER	Y	Y	Y	N		11 ELLENS STREET	MITCHELL	ONTARIO	CANADA	N0K 1N0	399
74259		10292	ORBUS PHARMA INC	DIN OWNER	Y	Y	Y			20 KONRAD CRESCENT	MARKHAM	ONTARIO	CANADA	L3R 8T4	
74261	TAR08	5241	TARO PHARMACEUTICALS INC	DIN OWNER	Y	Y	N	N		130 EAST DRIVE	BRAMPTON	ONTARIO	CANADA	L6T 1C1	
74289	BAK08	3695	BAKER CUMMINS INC	DIN OWNER	Y	N	N	N	3900	1 PLACE VILLE-MARIE	MONTRÉAL	QUEBEC	CANADA	H3B 4M7	
74290	BAK08	3695	BAKER CUMMINS INC	DIN OWNER	Y	N	N	N	3900	1 PLACE VILLE-MARIE	MONTRÉAL	QUEBEC	CANADA	H3B 4M7	
74300		12545	SUPPLEMENTS AROMATIK INC.	DIN OWNER	Y	Y	Y			"2334, BOUL. MARIE-VICTORIN"	VARENNES	QUEBEC	CANADA	J3X 1R4	87
74309		12027	SANDOZ CANADA INCORPORATED	DIN OWNER	Y	Y	Y			145 JULES-LÉGER STREET	BOUCHERVILLE	QUEBEC	CANADA	J4B 7K8	
74310		12027	SANDOZ CANADA INCORPORATED	DIN OWNER	Y	Y	Y			145 JULES-LÉGER STREET	BOUCHERVILLE	QUEBEC	CANADA	J4B 7K8	
74315	SIL07	5123	SABEX INC	DIN OWNER	Y	N	N	N		145 RUE JULES-LEGER	BOUCHERVILLE	QUEBEC	CANADA	J4B 7K8	
74339	DPC07	4065	DOMINION PHARMACAL	DIN OWNER	Y	Y	Y	N	SUITE 100	"6111, AVENUE ROYALMOUNT"	MONTREAL	QUEBEC	CANADA	H4P 2T4	
74340	DPC07	4065	DOMINION PHARMACAL	DIN OWNER	Y	Y	Y	N	SUITE 100	"6111, AVENUE ROYALMOUNT"	MONTREAL	QUEBEC	CANADA	H4P 2T4	
74347		11163	PHARMA STRIDES CANADA CORPORATION	DIN OWNER	Y	Y	Y		BUREAU 206	1205 RUE AMPERE	BOUCHERVILLE	QUEBEC	CANADA	J4B 7M6	
74349		11163	PHARMA STRIDES CANADA CORPORATION	DIN OWNER	Y	Y	Y		BUREAU 206	1205 RUE AMPERE	BOUCHERVILLE	QUEBEC	CANADA	J4B 7M6	
74350		11163	PHARMA STRIDES CANADA CORPORATION	DIN OWNER	Y	Y	Y		BUREAU 206	1205 RUE AMPERE	BOUCHERVILLE	QUEBEC	CANADA	J4B 7M6	
74351		11163	PHARMA STRIDES CANADA CORPORATION	DIN OWNER	Y	Y	Y		BUREAU 206	1205 RUE AMPERE	BOUCHERVILLE	QUEBEC	CANADA	J4B 7M6	
74352		11163	PHARMA STRIDES CANADA CORPORATION	DIN OWNER	Y	Y	Y		BUREAU 206	1205 RUE AMPERE	BOUCHERVILLE	QUEBEC	CANADA	J4B 7M6	
74362	TPB07	6684	THERAPHARMA INC.	DIN OWNER	Y	Y	N	N		4355 SIR WILFRID LAURIER	ST-HUBERT	QUEBEC	CANADA	J3Y 3X3	
74370		11805	DECON LABS INC	DIN OWNER	Y	Y	Y			460 GLENNIE CIRCLE	KING OF PRUSSIA	PENNSYLVANIA	UNITED STATES	19406	
74382	PMT07	4933	PHARMETICS (2011) INC	DIN OWNER	Y	Y	Y	N		3695 AUTOROUTE DES LAURENTIDES	LAVAL	QUEBEC	CANADA	H7L 3H7	
74383	PMT07	4933	PHARMETICS (2011) INC	DIN OWNER	Y	Y	Y	N		3695 AUTOROUTE DES LAURENTIDES	LAVAL	QUEBEC	CANADA	H7L 3H7	
74384	PMT07	4933	PHARMETICS (2011) INC	DIN OWNER	Y	Y	Y	N		3695 AUTOROUTE DES LAURENTIDES	LAVAL	QUEBEC	CANADA	H7L 3H7	
74385	PMT07	4933	PHARMETICS (2011) INC	DIN OWNER	Y	Y	Y	N		3695 AUTOROUTE DES LAURENTIDES	LAVAL	QUEBEC	CANADA	H7L 3H7	
74386	PMT07	4933	PHARMETICS (2011) INC	DIN OWNER	Y	Y	Y	N		3695 AUTOROUTE DES LAURENTIDES	LAVAL	QUEBEC	CANADA	H7L 3H7	
74387	PMT07	4933	PHARMETICS (2011) INC	DIN OWNER	Y	Y	Y	N		3695 AUTOROUTE DES LAURENTIDES	LAVAL	QUEBEC	CANADA	H7L 3H7	
74395		11918	GORDON FEEDS	DIN OWNER	Y	Y	Y			RR# 5	GEORGETOWN	ONTARIO	CANADA	L7G 4S8	
74396		8460	BIMEDA-MTC ANIMAL HEALTH INC	DIN OWNER	Y	Y	Y	N		420 BEAVERDALE RD.	CAMBRIDGE	ONTARIO	CANADA	N3W 2W4	
74397		8460	BIMEDA-MTC ANIMAL HEALTH INC	DIN OWNER	Y	Y	Y	N		420 BEAVERDALE RD.	CAMBRIDGE	ONTARIO	CANADA	N3W 2W4	
74401	PMS07	3550	PHARMASCIENCE INC	DIN OWNER	Y	Y	Y	N	100	"6111, ROYALMOUNT AVENUE"	MONTREAL	QUEBEC	CANADA	H4P 2T4	
74426	JPC10	4415	JAMP PHARMA CORPORATION	DIN OWNER	Y	Y	Y	N		1310 RUE NOBEL	BOUCHERVILLE	QUEBEC	CANADA	J4B 5H3	
74428	PMT07	4933	PHARMETICS (2011) INC	DIN OWNER	Y	Y	Y	N		3695 AUTOROUTE DES LAURENTIDES	LAVAL	QUEBEC	CANADA	H7L 3H7	
74429	PMT07	4933	PHARMETICS (2011) INC	DIN OWNER	Y	Y	Y	N		3695 AUTOROUTE DES LAURENTIDES	LAVAL	QUEBEC	CANADA	H7L 3H7	
74439	JSO08	7259	JANSSEN INC	DIN OWNER	Y	N	Y	N		19 GREEN BELT DRIVE	TORONTO	ONTARIO	CANADA	M3C 1L9	
74443		8460	BIMEDA-MTC ANIMAL HEALTH INC	DIN OWNER	Y	Y	Y	N		420 BEAVERDALE RD.	CAMBRIDGE	ONTARIO	CANADA	N3W 2W4	
74479	BAK08	3695	BAKER CUMMINS INC	DIN OWNER	Y	N	N	N	3900	1 PLACE VILLE-MARIE	MONTRÉAL	QUEBEC	CANADA	H3B 4M7	
74480	BAK08	3695	BAKER CUMMINS INC	DIN OWNER	Y	N	N	N	3900	1 PLACE VILLE-MARIE	MONTRÉAL	QUEBEC	CANADA	H3B 4M7	
74481	BAK08	3695	BAKER CUMMINS INC	DIN OWNER	Y	N	N	N	3900	1 PLACE VILLE-MARIE	MONTRÉAL	QUEBEC	CANADA	H3B 4M7	
74482	BAK08	3695	BAKER CUMMINS INC	DIN OWNER	Y	N	N	N	3900	1 PLACE VILLE-MARIE	MONTRÉAL	QUEBEC	CANADA	H3B 4M7	
74484	BAK08	3695	BAKER CUMMINS INC	DIN OWNER	Y	N	N	N	3900	1 PLACE VILLE-MARIE	MONTRÉAL	QUEBEC	CANADA	H3B 4M7	
74497		11802	BROMED PHARMACEUTICALS INC.	DIN OWNER	Y	N	N			10 BARR ROAD	AJAX	ONTARIO	CANADA	L1S 3X9	
74498		11802	BROMED PHARMACEUTICALS INC.	DIN OWNER	Y	N	N			10 BARR ROAD	AJAX	ONTARIO	CANADA	L1S 3X9	
74499		11802	BROMED PHARMACEUTICALS INC.	DIN OWNER	Y	N	N			10 BARR ROAD	AJAX	ONTARIO	CANADA	L1S 3X9	
74504		11802	BROMED PHARMACEUTICALS INC.	DIN OWNER	Y	N	N			10 BARR ROAD	AJAX	ONTARIO	CANADA	L1S 3X9	
74505		11802	BROMED PHARMACEUTICALS INC.	DIN OWNER	Y	N	N			10 BARR ROAD	AJAX	ONTARIO	CANADA	L1S 3X9	
74514		14412	AA PHARMA INC	DIN OWNER	Y	Y	Y		UNITS 1 & 2	1165 CREDITSTONE ROAD	VAUGHAN	ONTARIO	CANADA	L4K 4N7	
74532	DBJ95	6898	FERNDALE LABORATORIES INC.	DIN OWNER	Y	Y	Y	N		780 WEST EIGHT MILE ROAD	FERNDALE	MICHIGAN	UNITED STATES	48220-2422	
74599	PHH07	4917	PHARMEL INC	DIN OWNER	Y	Y	Y	N		"6111, AVENUE ROYALMOUNT, SUITE 100"	MONTREAL	QUEBEC	CANADA	H4P 2T4	
74611	PMT07	4933	PHARMETICS (2011) INC	DIN OWNER	Y	Y	Y	N		3695 AUTOROUTE DES LAURENTIDES	LAVAL	QUEBEC	CANADA	H7L 3H7	
74636		10292	ORBUS PHARMA INC	DIN OWNER	Y	Y	Y			20 KONRAD CRESCENT	MARKHAM	ONTARIO	CANADA	L3R 8T4	
74641		12173	FRESENIUS MEDICAL CARE DEUTCHLAND GMBH	DIN OWNER	Y	N	N			ELSE KRONER STRASSE 1	BAD HOMBURG	HESSEN	GERMANY	61352	
74643	PMT07	4933	PHARMETICS (2011) INC	DIN OWNER	Y	Y	Y	N		3695 AUTOROUTE DES LAURENTIDES	LAVAL	QUEBEC	CANADA	H7L 3H7	
74644	PMT07	4933	PHARMETICS (2011) INC	DIN OWNER	Y	Y	Y	N		3695 AUTOROUTE DES LAURENTIDES	LAVAL	QUEBEC	CANADA	H7L 3H7	
74645		12173	FRESENIUS MEDICAL CARE DEUTCHLAND GMBH	DIN OWNER	Y	N	N			ELSE KRONER STRASSE 1	BAD HOMBURG	HESSEN	GERMANY	61352	
74646		12173	FRESENIUS MEDICAL CARE DEUTCHLAND GMBH	DIN OWNER	Y	N	N			ELSE KRONER STRASSE 1	BAD HOMBURG	HESSEN	GERMANY	61352	
74664	ALC08	3594	ALCON CANADA INC	DIN OWNER	Y	Y	Y	N		2665 MEADOWPINE BLVD	MISSISSAUGA	ONTARIO	CANADA	L5N 8C7	
74672	PHH07	4917	PHARMEL INC	DIN OWNER	Y	Y	Y	N		"6111, AVENUE ROYALMOUNT, SUITE 100"	MONTREAL	QUEBEC	CANADA	H4P 2T4	
74687		11642	HOSPIRA HEALTHCARE CORPORATION	DIN OWNER	Y	Y	Y			17300 TRANS-CANADA HIGHWAY	KIRKLAND	QUEBEC	CANADA	H9J 2M5	
74769		10139	IVAX PHARMACEUTICALS INCORPORATED	DIN OWNER	Y	N	N			4400 BISCAYNE BLVD	MIAMI	FLORIDA	UNITED STATES	33137	
74770		10139	IVAX PHARMACEUTICALS INCORPORATED	DIN OWNER	Y	N	N			4400 BISCAYNE BLVD	MIAMI	FLORIDA	UNITED STATES	33137	
74788		10577	CHIEF MEDICAL SUPPLIES LTD	DIN OWNER	Y	Y	Y			411-19 ST SE	CALGARY	ALBERTA	CANADA	T2E 6J7	
74789		10577	CHIEF MEDICAL SUPPLIES LTD	DIN OWNER	Y	Y	Y			411-19 ST SE	CALGARY	ALBERTA	CANADA	T2E 6J7	
74794		10577	CHIEF MEDICAL SUPPLIES LTD	DIN OWNER	Y	Y	Y			411-19 ST SE	CALGARY	ALBERTA	CANADA	T2E 6J7	
74795	PMS07	3550	PHARMASCIENCE INC	DIN OWNER	Y	Y	Y	N	100	"6111, ROYALMOUNT AVENUE"	MONTREAL	QUEBEC	CANADA	H4P 2T4	
74813		11787	KERSTIN FLORIAN INTERNATIONAL	DIN OWNER	Y	N	Y			"20492 CRESCENT BAY DRIVE, SUITE 100"	LAKE FOREST	CALIFORNIA	UNITED STATES	92630	
74815		11221	E.B. BOTANICALS LLC	DIN OWNER	Y	Y	Y			50 CHURCH STREET	MONTCLAIR	NEW JERSEY	UNITED STATES	7042	
74857		12027	SANDOZ CANADA INCORPORATED	DIN OWNER	Y	Y	Y			145 JULES-LÉGER STREET	BOUCHERVILLE	QUEBEC	CANADA	J4B 7K8	
74858		12027	SANDOZ CANADA INCORPORATED	DIN OWNER	Y	Y	Y			145 JULES-LÉGER STREET	BOUCHERVILLE	QUEBEC	CANADA	J4B 7K8	
74859		12027	SANDOZ CANADA INCORPORATED	DIN OWNER	Y	Y	Y			145 JULES-LÉGER STREET	BOUCHERVILLE	QUEBEC	CANADA	J4B 7K8	
74860		12027	SANDOZ CANADA INCORPORATED	DIN OWNER	Y	Y	Y			145 JULES-LÉGER STREET	BOUCHERVILLE	QUEBEC	CANADA	J4B 7K8	
74861	VLH07	5362	LUNDBECK CANADA INC	DIN OWNER	Y	N	Y	N		"2600 ALFRED-NOBEL, SUITE 400"	MONTREAL	QUEBEC	CANADA	H4S 0A9	
74863	VLH07	5362	LUNDBECK CANADA INC	DIN OWNER	Y	N	Y	N		"2600 ALFRED-NOBEL, SUITE 400"	MONTREAL	QUEBEC	CANADA	H4S 0A9	
74888	PMT07	4933	PHARMETICS (2011) INC	DIN OWNER	Y	Y	Y	N		3695 AUTOROUTE DES LAURENTIDES	LAVAL	QUEBEC	CANADA	H7L 3H7	
74907		11357	INSTITUTO GRIFOLS S.A.	DIN OWNER	Y	Y	N			"POLIGONO LEVANTE. C/ CAN GUASCH, 2"	PARETS DEL VALLES	BARCELONA	SPAIN	8150	
74915	KIG10	6921	KINESYS PHARMACEUTICAL INC	DIN OWNER	Y	N	N	N	118	12920 84TH AVENUE	SURREY	BRITISH COLUMBIA	CANADA	V3W 1K7	
74917	JGD95	4412	PERRIGO INTERNATIONAL	DIN OWNER	Y	Y	Y	N		515 EASTERN AVE	ALLEGAN	MICHIGAN	UNITED STATES	49010-1327	
74928	PMT07	4933	PHARMETICS (2011) INC	DIN OWNER	Y	Y	Y	N		3695 AUTOROUTE DES LAURENTIDES	LAVAL	QUEBEC	CANADA	H7L 3H7	
74929	PMT07	4933	PHARMETICS (2011) INC	DIN OWNER	Y	Y	Y	N		3695 AUTOROUTE DES LAURENTIDES	LAVAL	QUEBEC	CANADA	H7L 3H7	
74936	DUI07	4086	DUCHESNAY INC	DIN OWNER	Y	Y	N	N		950 MICHELE-BOHEC BLVD	BLAINVILLE	QUEBEC	CANADA	J7C 5E2	
75007		10139	IVAX PHARMACEUTICALS INCORPORATED	DIN OWNER	Y	N	N			4400 BISCAYNE BLVD	MIAMI	FLORIDA	UNITED STATES	33137	
75018		11656	PENDOPHARM DIVISION OF DE PHARMASCIENCE INC	DIN OWNER	Y	Y	Y		SUITE 100	"6111, AVENUE ROYALMOUNT"	MONTREAL	QUEBEC	CANADA	H4P 2T4	
75020		11656	PENDOPHARM DIVISION OF DE PHARMASCIENCE INC	DIN OWNER	Y	Y	Y		SUITE 100	"6111, AVENUE ROYALMOUNT"	MONTREAL	QUEBEC	CANADA	H4P 2T4	
75032		11421	PRIME HEALTH LTD.	DIN OWNER	Y	Y	Y		UNIT 109	1551 BROADWAY STREET	PORT COQUITLAM	BRITISH COLUMBIA	CANADA	V3C 3N9	
75054	APX08	3636	APOTEX INC	DIN OWNER	Y	Y	Y	N		150 SIGNET DRIVE	TORONTO	ONTARIO	CANADA	M9L 1T9	
75056		11802	BROMED PHARMACEUTICALS INC.	DIN OWNER	Y	N	N			10 BARR ROAD	AJAX	ONTARIO	CANADA	L1S 3X9	
75074		11656	PENDOPHARM DIVISION OF DE PHARMASCIENCE INC	DIN OWNER	Y	Y	Y		SUITE 100	"6111, AVENUE ROYALMOUNT"	MONTREAL	QUEBEC	CANADA	H4P 2T4	
75105	BAK08	3695	BAKER CUMMINS INC	DIN OWNER	Y	N	N	N	3900	1 PLACE VILLE-MARIE	MONTRÉAL	QUEBEC	CANADA	H3B 4M7	
75106	BAK08	3695	BAKER CUMMINS INC	DIN OWNER	Y	N	N	N	3900	1 PLACE VILLE-MARIE	MONTRÉAL	QUEBEC	CANADA	H3B 4M7	
75110	BAK08	3695	BAKER CUMMINS INC	DIN OWNER	Y	N	N	N	3900	1 PLACE VILLE-MARIE	MONTRÉAL	QUEBEC	CANADA	H3B 4M7	
75111	BAK08	3695	BAKER CUMMINS INC	DIN OWNER	Y	N	N	N	3900	1 PLACE VILLE-MARIE	MONTRÉAL	QUEBEC	CANADA	H3B 4M7	
75112	BAK08	3695	BAKER CUMMINS INC	DIN OWNER	Y	N	N	N	3900	1 PLACE VILLE-MARIE	MONTRÉAL	QUEBEC	CANADA	H3B 4M7	
75113	BAK08	3695	BAKER CUMMINS INC	DIN OWNER	Y	N	N	N	3900	1 PLACE VILLE-MARIE	MONTRÉAL	QUEBEC	CANADA	H3B 4M7	
75114	BAK08	3695	BAKER CUMMINS INC	DIN OWNER	Y	N	N	N	3900	1 PLACE VILLE-MARIE	MONTRÉAL	QUEBEC	CANADA	H3B 4M7	
75130	PHH07	4917	PHARMEL INC	DIN OWNER	Y	Y	Y	N		"6111, AVENUE ROYALMOUNT, SUITE 100"	MONTREAL	QUEBEC	CANADA	H4P 2T4	
75131	DPC07	4065	DOMINION PHARMACAL	DIN OWNER	Y	Y	Y	N	SUITE 100	"6111, AVENUE ROYALMOUNT"	MONTREAL	QUEBEC	CANADA	H4P 2T4	
75155		15645	ZOETIS CANADA INC	DIN OWNER	Y	Y	Y			16740 TRANS CANADA HIGHWAY	KIRKLAND	QUEBEC	CANADA	H9H 4M7	
75185	PHH07	4917	PHARMEL INC	DIN OWNER	Y	Y	Y	N		"6111, AVENUE ROYALMOUNT, SUITE 100"	MONTREAL	QUEBEC	CANADA	H4P 2T4	
75192		11849	FAIRTRADE INTERNATIONAL CO. LTD.	DIN OWNER	Y	Y	Y			"12 COCKFOSTERS PARADE, COCKFOSTER ROAD"	BARNET	HERTFORDSHIRE	UNITED KINGDOM	EN4 0BX	
75218	BAK08	3695	BAKER CUMMINS INC	DIN OWNER	Y	N	N	N	3900	1 PLACE VILLE-MARIE	MONTRÉAL	QUEBEC	CANADA	H3B 4M7	
75219	BAK08	3695	BAKER CUMMINS INC	DIN OWNER	Y	N	N	N	3900	1 PLACE VILLE-MARIE	MONTRÉAL	QUEBEC	CANADA	H3B 4M7	
75220		12027	SANDOZ CANADA INCORPORATED	DIN OWNER	Y	Y	Y			145 JULES-LÉGER STREET	BOUCHERVILLE	QUEBEC	CANADA	J4B 7K8	
75221		12027	SANDOZ CANADA INCORPORATED	DIN OWNER	Y	Y	Y			145 JULES-LÉGER STREET	BOUCHERVILLE	QUEBEC	CANADA	J4B 7K8	
75240	TAR08	5241	TARO PHARMACEUTICALS INC	DIN OWNER	Y	Y	N	N		130 EAST DRIVE	BRAMPTON	ONTARIO	CANADA	L6T 1C1	
75253		8927	MASON CHEMICAL COMPANY	DIN OWNER	Y	Y	N	N		"723 WEST ALGONQUIN ROAD, SUITE B"	ARLINGTON HEIGHTS	ILLINOIS	UNITED STATES	60005	
75255	DEZ08	4032	DEB CANADA	DIN OWNER	Y	Y	N	N		42 THOMPSON ROAD WEST	WATERFORD	ONTARIO	CANADA	N0E 1Y0	730
75257	DEZ08	4032	DEB CANADA	DIN OWNER	Y	Y	N	N		42 THOMPSON ROAD WEST	WATERFORD	ONTARIO	CANADA	N0E 1Y0	730
75260		8927	MASON CHEMICAL COMPANY	DIN OWNER	Y	Y	N	N		"723 WEST ALGONQUIN ROAD, SUITE B"	ARLINGTON HEIGHTS	ILLINOIS	UNITED STATES	60005	
75281		11849	FAIRTRADE INTERNATIONAL CO. LTD.	DIN OWNER	Y	Y	Y			"12 COCKFOSTERS PARADE, COCKFOSTER ROAD"	BARNET	HERTFORDSHIRE	UNITED KINGDOM	EN4 0BX	
75284	TAN08	5240	TANTA PHARMACEUTICALS INC	DIN OWNER	Y	Y	Y	N		1009 BURNS STREET EAST	WHITBY	ONTARIO	CANADA	L1N 6A6	
75300		8482	BIOGEN CANADA INC	DIN OWNER	Y	Y	Y	N		"90 BURNHAMTHORPE ROAD WEST, SUITE 1100"	MISSISSAUGA	ONTARIO	CANADA	L5B 3C3	
75312		11421	PRIME HEALTH LTD.	DIN OWNER	Y	Y	Y		UNIT 109	1551 BROADWAY STREET	PORT COQUITLAM	BRITISH COLUMBIA	CANADA	V3C 3N9	
75313		9410	OCTAPHARMA PHARMAZEUTIKA PRODUKTIONSGES M B H	DIN OWNER	Y	Y	Y			OBERLAAER STRASSE 235	VIENNA	VIENNE	AUSTRIA	1100	
75382	PFI07	4908	PFIZER CANADA INC	DIN OWNER	Y	Y	Y	N		17300 TRANS-CANADA HIGHWAY	KIRKLAND	QUEBEC	CANADA	H9J 2M5	
75384	PFI07	4908	PFIZER CANADA INC	DIN OWNER	Y	Y	Y	N		17300 TRANS-CANADA HIGHWAY	KIRKLAND	QUEBEC	CANADA	H9J 2M5	
75388		11902	VALEANT CANADA LP/VALEANT CANADA S.E.C.	DIN OWNER	Y	Y	Y			2150 BOUL. ST-ELZEAR OUEST	LAVAL	QUEBEC	CANADA	H7L 4A8	
75399		11656	PENDOPHARM DIVISION OF DE PHARMASCIENCE INC	DIN OWNER	Y	Y	Y		SUITE 100	"6111, AVENUE ROYALMOUNT"	MONTREAL	QUEBEC	CANADA	H4P 2T4	
75416		8541	VITA HEALTH PRODUCTS INC	DIN OWNER	Y	N	Y	N		150 BEGHIN AVENUE	WINNIPEG	MANITOBA	CANADA	R2J 3W2	
75417		8541	VITA HEALTH PRODUCTS INC	DIN OWNER	Y	N	Y	N		150 BEGHIN AVENUE	WINNIPEG	MANITOBA	CANADA	R2J 3W2	
75419		11922	"RANDALL INTERNATIONAL, LLC"	DIN OWNER	Y	Y	Y			2885 LOKER AVE EAST	CARLSBAD	CALIFORNIA	UNITED STATES	92008	
75435		15645	ZOETIS CANADA INC	DIN OWNER	Y	Y	Y			16740 TRANS CANADA HIGHWAY	KIRKLAND	QUEBEC	CANADA	H9H 4M7	
75439	EPD08	3966	ELANCO DIVISION ELI LILLY CANADA INC	DIN OWNER	Y	N	N	N		"150 RESEARCH LANE, SUITE 120"	GUELPH	ONTARIO	CANADA	N1G 4T2	
75476		4207	FRESENIUS MEDICAL CARE CANADA INC	DIN OWNER	Y	Y	Y	N	110	45 STAPLES AVE.	RICHMOND HILL	ONTARIO	CANADA	L4B 4W6	
75477		4207	FRESENIUS MEDICAL CARE CANADA INC	DIN OWNER	Y	Y	Y	N	110	45 STAPLES AVE.	RICHMOND HILL	ONTARIO	CANADA	L4B 4W6	
75478		4207	FRESENIUS MEDICAL CARE CANADA INC	DIN OWNER	Y	Y	Y	N	110	45 STAPLES AVE.	RICHMOND HILL	ONTARIO	CANADA	L4B 4W6	
75496		12027	SANDOZ CANADA INCORPORATED	DIN OWNER	Y	Y	Y			145 JULES-LÉGER STREET	BOUCHERVILLE	QUEBEC	CANADA	J4B 7K8	
75533	PBN07	4878	PHARMALAB INC.	DIN OWNER	Y	Y	Y	N		8750 BOUL GUILLAUME-COUTURE	LEVIS	QUEBEC	CANADA	G6V 9G9	100
75547	BGM08	3744	BIO AGRI MIX LP	DIN OWNER	Y	Y	Y	N		11 ELLENS STREET	MITCHELL	ONTARIO	CANADA	N0K 1N0	399
75548	BGM08	3744	BIO AGRI MIX LP	DIN OWNER	Y	Y	Y	N		11 ELLENS STREET	MITCHELL	ONTARIO	CANADA	N0K 1N0	399
75568	PBN07	4878	PHARMALAB INC.	DIN OWNER	Y	Y	Y	N		8750 BOUL GUILLAUME-COUTURE	LEVIS	QUEBEC	CANADA	G6V 9G9	100
75569	PBN07	4878	PHARMALAB INC.	DIN OWNER	Y	Y	Y	N		8750 BOUL GUILLAUME-COUTURE	LEVIS	QUEBEC	CANADA	G6V 9G9	100
75570	TAN08	5240	TANTA PHARMACEUTICALS INC	DIN OWNER	Y	Y	Y	N		1009 BURNS STREET EAST	WHITBY	ONTARIO	CANADA	L1N 6A6	
75573		12027	SANDOZ CANADA INCORPORATED	DIN OWNER	Y	Y	Y			145 JULES-LÉGER STREET	BOUCHERVILLE	QUEBEC	CANADA	J4B 7K8	
75574	PBN07	4878	PHARMALAB INC.	DIN OWNER	Y	Y	Y	N		8750 BOUL GUILLAUME-COUTURE	LEVIS	QUEBEC	CANADA	G6V 9G9	100
75590	SEV07	5096	SERVIER CANADA INC	DIN OWNER	Y	N	N	N		235 BOUL. ARMAND-FRAPPIER  - PARC SCIENTIF. ET DE HAUTE TECH. DE LAVAL	LAVAL	QUEBEC	CANADA	H7V 4A7	
75592	SEV07	5096	SERVIER CANADA INC	DIN OWNER	Y	N	N	N		235 BOUL. ARMAND-FRAPPIER  - PARC SCIENTIF. ET DE HAUTE TECH. DE LAVAL	LAVAL	QUEBEC	CANADA	H7V 4A7	
75593	SEV07	5096	SERVIER CANADA INC	DIN OWNER	Y	N	N	N		235 BOUL. ARMAND-FRAPPIER  - PARC SCIENTIF. ET DE HAUTE TECH. DE LAVAL	LAVAL	QUEBEC	CANADA	H7V 4A7	
75598	PFI07	4908	PFIZER CANADA INC	DIN OWNER	Y	Y	Y	N		17300 TRANS-CANADA HIGHWAY	KIRKLAND	QUEBEC	CANADA	H9J 2M5	
75605	PFI07	4908	PFIZER CANADA INC	DIN OWNER	Y	Y	Y	N		17300 TRANS-CANADA HIGHWAY	KIRKLAND	QUEBEC	CANADA	H9J 2M5	
75629	TAN08	5240	TANTA PHARMACEUTICALS INC	DIN OWNER	Y	Y	Y	N		1009 BURNS STREET EAST	WHITBY	ONTARIO	CANADA	L1N 6A6	
75678		12341	RHEMA SPECIALITIES LTD.	DIN OWNER	Y	Y	Y			1751 BRIGANTINE DRIVE	COQUITLAM	BRITISH COLUMBIA	CANADA	V3K 7B4	
75685		12538	SANOFI-AVENTIS CANADA INC	DIN OWNER	Y	N	Y			2905 PLACE LOUIS-R. RENAUD	LAVAL	QUEBEC	CANADA	H7V 0A3	
75734		11772	BODYGLIDE	DIN OWNER	Y	Y	Y		380	12443 BELL RED ROAD	BELLEVUE	WASHINGTON	UNITED STATES	98005	
75735	TAN08	5240	TANTA PHARMACEUTICALS INC	DIN OWNER	Y	Y	Y	N		1009 BURNS STREET EAST	WHITBY	ONTARIO	CANADA	L1N 6A6	
75787		10139	IVAX PHARMACEUTICALS INCORPORATED	DIN OWNER	Y	N	N			4400 BISCAYNE BLVD	MIAMI	FLORIDA	UNITED STATES	33137	
75788		10139	IVAX PHARMACEUTICALS INCORPORATED	DIN OWNER	Y	N	N			4400 BISCAYNE BLVD	MIAMI	FLORIDA	UNITED STATES	33137	
75801	JGD95	4412	PERRIGO INTERNATIONAL	DIN OWNER	Y	Y	Y	N		515 EASTERN AVE	ALLEGAN	MICHIGAN	UNITED STATES	49010-1327	
75803		10577	CHIEF MEDICAL SUPPLIES LTD	DIN OWNER	Y	Y	Y			411-19 ST SE	CALGARY	ALBERTA	CANADA	T2E 6J7	
75806		10577	CHIEF MEDICAL SUPPLIES LTD	DIN OWNER	Y	Y	Y			411-19 ST SE	CALGARY	ALBERTA	CANADA	T2E 6J7	
75807		10577	CHIEF MEDICAL SUPPLIES LTD	DIN OWNER	Y	Y	Y			411-19 ST SE	CALGARY	ALBERTA	CANADA	T2E 6J7	
75809		10577	CHIEF MEDICAL SUPPLIES LTD	DIN OWNER	Y	Y	Y			411-19 ST SE	CALGARY	ALBERTA	CANADA	T2E 6J7	
75813		10577	CHIEF MEDICAL SUPPLIES LTD	DIN OWNER	Y	Y	Y			411-19 ST SE	CALGARY	ALBERTA	CANADA	T2E 6J7	
75816		8927	MASON CHEMICAL COMPANY	DIN OWNER	Y	Y	N	N		"723 WEST ALGONQUIN ROAD, SUITE B"	ARLINGTON HEIGHTS	ILLINOIS	UNITED STATES	60005	
75817		8927	MASON CHEMICAL COMPANY	DIN OWNER	Y	Y	N	N		"723 WEST ALGONQUIN ROAD, SUITE B"	ARLINGTON HEIGHTS	ILLINOIS	UNITED STATES	60005	
75818		8927	MASON CHEMICAL COMPANY	DIN OWNER	Y	Y	N	N		"723 WEST ALGONQUIN ROAD, SUITE B"	ARLINGTON HEIGHTS	ILLINOIS	UNITED STATES	60005	
75822		12422	GLYMED PLUS CANADA	DIN OWNER	Y	Y	N			"1720 HOWARD AVENUE, SUITE 155"	WINDSOR	ONTARIO	CANADA	N8X 5A6	
75838		12422	GLYMED PLUS CANADA	DIN OWNER	Y	Y	N			"1720 HOWARD AVENUE, SUITE 155"	WINDSOR	ONTARIO	CANADA	N8X 5A6	
75845	CHT95	3892	"CHESTER LABS, INC."	DIN OWNER	Y	N	N	N	A	1900 SECTION ROAD	CINCINNATI	OHIO	UNITED STATES	45237	
75859	CHT95	3892	"CHESTER LABS, INC."	DIN OWNER	Y	N	N	N	A	1900 SECTION ROAD	CINCINNATI	OHIO	UNITED STATES	45237	
75885		8927	MASON CHEMICAL COMPANY	DIN OWNER	Y	Y	N	N		"723 WEST ALGONQUIN ROAD, SUITE B"	ARLINGTON HEIGHTS	ILLINOIS	UNITED STATES	60005	
75892	YNO08	5348	BAYER INC CONSUMER CARE	DIN OWNER	Y	N	Y	N		2920  MATHESON BLVD E	MISSISSAUGA	ONTARIO	CANADA	L4W 5R6	
75908		12435	INTERNATIONAL PHARMACEUTICAL GENERICS LTD	DIN OWNER	Y	N	N			4-77 AURIGA DRIVE	OTTAWA	ONTARIO	CANADA	K2E 7Z7	
75909		12435	INTERNATIONAL PHARMACEUTICAL GENERICS LTD	DIN OWNER	Y	N	N			4-77 AURIGA DRIVE	OTTAWA	ONTARIO	CANADA	K2E 7Z7	
75910		8927	MASON CHEMICAL COMPANY	DIN OWNER	Y	Y	N	N		"723 WEST ALGONQUIN ROAD, SUITE B"	ARLINGTON HEIGHTS	ILLINOIS	UNITED STATES	60005	
75925		12422	GLYMED PLUS CANADA	DIN OWNER	Y	Y	N			"1720 HOWARD AVENUE, SUITE 155"	WINDSOR	ONTARIO	CANADA	N8X 5A6	
75927		12422	GLYMED PLUS CANADA	DIN OWNER	Y	Y	N			"1720 HOWARD AVENUE, SUITE 155"	WINDSOR	ONTARIO	CANADA	N8X 5A6	
75960		16555	FRESENIUS KABI CANADA LTD	DIN OWNER	Y	Y	Y			"165 GALAXY BLVD, SUITE 100"	TORONTO	ONTARIO	CANADA	M9W 0C8	
75961	CHT95	3892	"CHESTER LABS, INC."	DIN OWNER	Y	N	N	N	A	1900 SECTION ROAD	CINCINNATI	OHIO	UNITED STATES	45237	
75963	MCL08	4569	MCNEIL CONSUMER HEALTHCARE DIVISION OF JOHNSON & JOHNSON INC	DIN OWNER	Y	Y	Y	N		88 MCNABB STREET	MARKHAM	ONTARIO	CANADA	L3R 5L2	
75995		12027	SANDOZ CANADA INCORPORATED	DIN OWNER	Y	Y	Y			145 JULES-LÉGER STREET	BOUCHERVILLE	QUEBEC	CANADA	J4B 7K8	
75996		12027	SANDOZ CANADA INCORPORATED	DIN OWNER	Y	Y	Y			145 JULES-LÉGER STREET	BOUCHERVILLE	QUEBEC	CANADA	J4B 7K8	
75997		12027	SANDOZ CANADA INCORPORATED	DIN OWNER	Y	Y	Y			145 JULES-LÉGER STREET	BOUCHERVILLE	QUEBEC	CANADA	J4B 7K8	
76048		8927	MASON CHEMICAL COMPANY	DIN OWNER	Y	Y	N	N		"723 WEST ALGONQUIN ROAD, SUITE B"	ARLINGTON HEIGHTS	ILLINOIS	UNITED STATES	60005	
76051		8927	MASON CHEMICAL COMPANY	DIN OWNER	Y	Y	N	N		"723 WEST ALGONQUIN ROAD, SUITE B"	ARLINGTON HEIGHTS	ILLINOIS	UNITED STATES	60005	
76052		8927	MASON CHEMICAL COMPANY	DIN OWNER	Y	Y	N	N		"723 WEST ALGONQUIN ROAD, SUITE B"	ARLINGTON HEIGHTS	ILLINOIS	UNITED STATES	60005	
76053		8927	MASON CHEMICAL COMPANY	DIN OWNER	Y	Y	N	N		"723 WEST ALGONQUIN ROAD, SUITE B"	ARLINGTON HEIGHTS	ILLINOIS	UNITED STATES	60005	
76083		12482	KINDERCARE CANADA LIMITED	DIN OWNER	Y	Y	Y			100 NORFINCH DRIVE	TORONTO	ONTARIO	CANADA	M3N 1X1	
76084		12212	JUPITER CONSUMER PRODUCTS LTD.	DIN OWNER	Y	Y	N			349 WILD CAT ROAD	TORONTO	ONTARIO	CANADA	M3J 2S3	
76101	PGA08	4911	PROCTER & GAMBLE INC	DIN OWNER	Y	N	N	N		4711 YONGE STREET	TORONTO	ONTARIO	CANADA	M2N 6K8	
76111	ECO08	4114	ECOLAB CO	DIN OWNER	Y	Y	Y	N		5105 TOMKEN ROAD	MISSISSAUGA	ONTARIO	CANADA	L4W 2X5	
76116		11505	NATIONAL THERAPY PRODUCTS INC.	DIN OWNER	Y	Y	Y		2	191 ROWNTREE DAIRY ROAD	WOODBRIDGE	ONTARIO	CANADA	L4L 8B8	
76127		12545	SUPPLEMENTS AROMATIK INC.	DIN OWNER	Y	Y	Y			"2334, BOUL. MARIE-VICTORIN"	VARENNES	QUEBEC	CANADA	J3X 1R4	87
76128		12545	SUPPLEMENTS AROMATIK INC.	DIN OWNER	Y	Y	Y			"2334, BOUL. MARIE-VICTORIN"	VARENNES	QUEBEC	CANADA	J3X 1R4	87
76141		12301	SKINTECH 2000 INC.	DIN OWNER	Y	Y	Y			1511 EAST COMMERCIAL BLVD.	FORT LAUDERDALE	FLORIDA	UNITED STATES	33334	
76143	MCL08	4569	MCNEIL CONSUMER HEALTHCARE DIVISION OF JOHNSON & JOHNSON INC	DIN OWNER	Y	Y	Y	N		88 MCNABB STREET	MARKHAM	ONTARIO	CANADA	L3R 5L2	
76154	BGM08	3744	BIO AGRI MIX LP	DIN OWNER	Y	Y	Y	N		11 ELLENS STREET	MITCHELL	ONTARIO	CANADA	N0K 1N0	399
76156		12545	SUPPLEMENTS AROMATIK INC.	DIN OWNER	Y	Y	Y			"2334, BOUL. MARIE-VICTORIN"	VARENNES	QUEBEC	CANADA	J3X 1R4	87
76180	ETD95	5938	"E.T. BROWNE DRUG CO., INC."	DIN OWNER	Y	Y	N	N		440 SLYVAN AVENUE	ENGLEWOOD CLIFFS	NEW JERSEY	UNITED STATES	7632	1613
76194	YNO08	5348	BAYER INC CONSUMER CARE	DIN OWNER	Y	N	Y	N		2920  MATHESON BLVD E	MISSISSAUGA	ONTARIO	CANADA	L4W 5R6	
76197	PBN07	4878	PHARMALAB INC.	DIN OWNER	Y	Y	Y	N		8750 BOUL GUILLAUME-COUTURE	LEVIS	QUEBEC	CANADA	G6V 9G9	100
76207	BGM08	3744	BIO AGRI MIX LP	DIN OWNER	Y	Y	Y	N		11 ELLENS STREET	MITCHELL	ONTARIO	CANADA	N0K 1N0	399
76209		12538	SANOFI-AVENTIS CANADA INC	DIN OWNER	Y	N	Y			2905 PLACE LOUIS-R. RENAUD	LAVAL	QUEBEC	CANADA	H7V 0A3	
76211	JGD95	4412	PERRIGO INTERNATIONAL	DIN OWNER	Y	Y	Y	N		515 EASTERN AVE	ALLEGAN	MICHIGAN	UNITED STATES	49010-1327	
76212	JGD95	4412	PERRIGO INTERNATIONAL	DIN OWNER	Y	Y	Y	N		515 EASTERN AVE	ALLEGAN	MICHIGAN	UNITED STATES	49010-1327	
76219		14907	MARCAN PHARMACEUTICALS INC	DIN OWNER	Y	N	N		SUITE 4	77 AURIGA DRIVE	OTTAWA	ONTARIO	CANADA	K2E 7Z7	
76223		8916	METHAPHARM INC	DIN OWNER	Y	Y	Y	N		81 SINCLAIR BLVD	BRANTFORD	ONTARIO	CANADA	N3S 7X6	
76224		8916	METHAPHARM INC	DIN OWNER	Y	Y	Y	N		81 SINCLAIR BLVD	BRANTFORD	ONTARIO	CANADA	N3S 7X6	
76228	PBN07	4878	PHARMALAB INC.	DIN OWNER	Y	Y	Y	N		8750 BOUL GUILLAUME-COUTURE	LEVIS	QUEBEC	CANADA	G6V 9G9	100
76246	PBN07	4878	PHARMALAB INC.	DIN OWNER	Y	Y	Y	N		8750 BOUL GUILLAUME-COUTURE	LEVIS	QUEBEC	CANADA	G6V 9G9	100
76251	APX08	3636	APOTEX INC	DIN OWNER	Y	Y	Y	N		150 SIGNET DRIVE	TORONTO	ONTARIO	CANADA	M9L 1T9	
76252	APX08	3636	APOTEX INC	DIN OWNER	Y	Y	Y	N		150 SIGNET DRIVE	TORONTO	ONTARIO	CANADA	M9L 1T9	
76262		9533	E.I. DUPONT CANADA COMPANY	DIN OWNER	Y	N	N			1919 MINNESOTA CT	MISSISSAUGA	ONTARIO	CANADA	L5N 0C9	
76267		10293	APOLLO HEALTH AND BEAUTY CARE INC.	DIN OWNER	Y	Y	N			1 APOLLO PLACE	TORONTO	ONTARIO	CANADA	M3J 0H2	
76268		10293	APOLLO HEALTH AND BEAUTY CARE INC.	DIN OWNER	Y	Y	N			1 APOLLO PLACE	TORONTO	ONTARIO	CANADA	M3J 0H2	
76269		10293	APOLLO HEALTH AND BEAUTY CARE INC.	DIN OWNER	Y	Y	N			1 APOLLO PLACE	TORONTO	ONTARIO	CANADA	M3J 0H2	
76296	PBN07	4878	PHARMALAB INC.	DIN OWNER	Y	Y	Y	N		8750 BOUL GUILLAUME-COUTURE	LEVIS	QUEBEC	CANADA	G6V 9G9	100
76297	PBN07	4878	PHARMALAB INC.	DIN OWNER	Y	Y	Y	N		8750 BOUL GUILLAUME-COUTURE	LEVIS	QUEBEC	CANADA	G6V 9G9	100
76306	PBN07	4878	PHARMALAB INC.	DIN OWNER	Y	Y	Y	N		8750 BOUL GUILLAUME-COUTURE	LEVIS	QUEBEC	CANADA	G6V 9G9	100
76319	MCL08	4569	MCNEIL CONSUMER HEALTHCARE DIVISION OF JOHNSON & JOHNSON INC	DIN OWNER	Y	Y	Y	N		88 MCNABB STREET	MARKHAM	ONTARIO	CANADA	L3R 5L2	
76324	TAN08	5240	TANTA PHARMACEUTICALS INC	DIN OWNER	Y	Y	Y	N		1009 BURNS STREET EAST	WHITBY	ONTARIO	CANADA	L1N 6A6	
76336		12551	SLOAN JANSAN	DIN OWNER	Y	Y	N			10500 SEYMOUR AVENUE	FRANKLIN PARK	ILLINOIS	UNITED STATES	60131	
76337		12551	SLOAN JANSAN	DIN OWNER	Y	Y	N			10500 SEYMOUR AVENUE	FRANKLIN PARK	ILLINOIS	UNITED STATES	60131	
76341	TAN08	5240	TANTA PHARMACEUTICALS INC	DIN OWNER	Y	Y	Y	N		1009 BURNS STREET EAST	WHITBY	ONTARIO	CANADA	L1N 6A6	
76342	PMT07	4933	PHARMETICS (2011) INC	DIN OWNER	Y	Y	Y	N		3695 AUTOROUTE DES LAURENTIDES	LAVAL	QUEBEC	CANADA	H7L 3H7	
76344	JPC10	4415	JAMP PHARMA CORPORATION	DIN OWNER	Y	Y	Y	N		1310 RUE NOBEL	BOUCHERVILLE	QUEBEC	CANADA	J4B 5H3	
76358		12551	SLOAN JANSAN	DIN OWNER	Y	Y	N			10500 SEYMOUR AVENUE	FRANKLIN PARK	ILLINOIS	UNITED STATES	60131	
76359		12551	SLOAN JANSAN	DIN OWNER	Y	Y	N			10500 SEYMOUR AVENUE	FRANKLIN PARK	ILLINOIS	UNITED STATES	60131	
76361		12435	INTERNATIONAL PHARMACEUTICAL GENERICS LTD	DIN OWNER	Y	N	N			4-77 AURIGA DRIVE	OTTAWA	ONTARIO	CANADA	K2E 7Z7	
76389	YNO08	5348	BAYER INC CONSUMER CARE	DIN OWNER	Y	N	Y	N		2920  MATHESON BLVD E	MISSISSAUGA	ONTARIO	CANADA	L4W 5R6	
76390	YNO08	5348	BAYER INC CONSUMER CARE	DIN OWNER	Y	N	Y	N		2920  MATHESON BLVD E	MISSISSAUGA	ONTARIO	CANADA	L4W 5R6	
76391	HAS95	6040	CHASE PRODUCTS COMPANY	DIN OWNER	Y	Y	Y	N		PO BOX/CP 70	MAYWOOD	ILLINOIS	UNITED STATES	60153	
76417	PHH07	4917	PHARMEL INC	DIN OWNER	Y	Y	Y	N		"6111, AVENUE ROYALMOUNT, SUITE 100"	MONTREAL	QUEBEC	CANADA	H4P 2T4	
76433	PDD07	4897	PRODEMDIS ENR.	DIN OWNER	Y	Y	N	N		4355 SIR WILFRID LAURIER	ST-HUBERT	QUEBEC	CANADA	J3Y 3X3	
76454	PMS07	3550	PHARMASCIENCE INC	DIN OWNER	Y	Y	Y	N	100	"6111, ROYALMOUNT AVENUE"	MONTREAL	QUEBEC	CANADA	H4P 2T4	
76474	AVV95	5575	"ALVA-AMCO PHARMACAL COMPANIES, INC."	DIN OWNER	Y	Y	Y	N		7711 MERRIMAC AVENUE	NILES	ILLINOIS	UNITED STATES	60714-3423	
76508		12538	SANOFI-AVENTIS CANADA INC	DIN OWNER	Y	N	Y			2905 PLACE LOUIS-R. RENAUD	LAVAL	QUEBEC	CANADA	H7V 0A3	
76515	CIE95	3900	"CCA INDUSTRIES, INC."	DIN OWNER	Y	Y	Y	N		"65 CHALLENGER ROAD, SUITE 340"	RIDGEFIELD PARK	NEW JERSEY	UNITED STATES	7660	
76521	CHT95	3892	"CHESTER LABS, INC."	DIN OWNER	Y	N	N	N	A	1900 SECTION ROAD	CINCINNATI	OHIO	UNITED STATES	45237	
76523	APX08	3636	APOTEX INC	DIN OWNER	Y	Y	Y	N		150 SIGNET DRIVE	TORONTO	ONTARIO	CANADA	M9L 1T9	
76543		12652	CANADA LIFE SCIENCES	DIN OWNER	Y	Y	Y			RR #5 15408 CLAYHILL ROAD	GEORGETOWN	ONTARIO	CANADA	L7G 4S8	
76554		11656	PENDOPHARM DIVISION OF DE PHARMASCIENCE INC	DIN OWNER	Y	Y	Y		SUITE 100	"6111, AVENUE ROYALMOUNT"	MONTREAL	QUEBEC	CANADA	H4P 2T4	
76562	TAN08	5240	TANTA PHARMACEUTICALS INC	DIN OWNER	Y	Y	Y	N		1009 BURNS STREET EAST	WHITBY	ONTARIO	CANADA	L1N 6A6	
76563	TAN08	5240	TANTA PHARMACEUTICALS INC	DIN OWNER	Y	Y	Y	N		1009 BURNS STREET EAST	WHITBY	ONTARIO	CANADA	L1N 6A6	
76572		15645	ZOETIS CANADA INC	DIN OWNER	Y	Y	Y			16740 TRANS CANADA HIGHWAY	KIRKLAND	QUEBEC	CANADA	H9H 4M7	
76573		15645	ZOETIS CANADA INC	DIN OWNER	Y	Y	Y			16740 TRANS CANADA HIGHWAY	KIRKLAND	QUEBEC	CANADA	H9H 4M7	
76574		15645	ZOETIS CANADA INC	DIN OWNER	Y	Y	Y			16740 TRANS CANADA HIGHWAY	KIRKLAND	QUEBEC	CANADA	H9H 4M7	
76576		10293	APOLLO HEALTH AND BEAUTY CARE INC.	DIN OWNER	Y	Y	N			1 APOLLO PLACE	TORONTO	ONTARIO	CANADA	M3J 0H2	
76626	DEZ08	4032	DEB CANADA	DIN OWNER	Y	Y	N	N		42 THOMPSON ROAD WEST	WATERFORD	ONTARIO	CANADA	N0E 1Y0	730
76627	DEZ08	4032	DEB CANADA	DIN OWNER	Y	Y	N	N		42 THOMPSON ROAD WEST	WATERFORD	ONTARIO	CANADA	N0E 1Y0	730
76632	PDH07	4900	"PFIZER CANADA INC., CONSUMER HEALTHCARE DIVISION"	DIN OWNER	Y	Y	Y	N		88 MCNABB	MARKHAM	ONTARIO	CANADA	L3R 5L2	
76641	PMS07	3550	PHARMASCIENCE INC	DIN OWNER	Y	Y	Y	N	100	"6111, ROYALMOUNT AVENUE"	MONTREAL	QUEBEC	CANADA	H4P 2T4	
76642	PMS07	3550	PHARMASCIENCE INC	DIN OWNER	Y	Y	Y	N	100	"6111, ROYALMOUNT AVENUE"	MONTREAL	QUEBEC	CANADA	H4P 2T4	
76672		12652	CANADA LIFE SCIENCES	DIN OWNER	Y	Y	Y			RR #5 15408 CLAYHILL ROAD	GEORGETOWN	ONTARIO	CANADA	L7G 4S8	
76675	JPC10	4415	JAMP PHARMA CORPORATION	DIN OWNER	Y	Y	Y	N		1310 RUE NOBEL	BOUCHERVILLE	QUEBEC	CANADA	J4B 5H3	
76677		12652	CANADA LIFE SCIENCES	DIN OWNER	Y	Y	Y			RR #5 15408 CLAYHILL ROAD	GEORGETOWN	ONTARIO	CANADA	L7G 4S8	
76680		8541	VITA HEALTH PRODUCTS INC	DIN OWNER	Y	N	Y	N		150 BEGHIN AVENUE	WINNIPEG	MANITOBA	CANADA	R2J 3W2	
76701	APX08	3636	APOTEX INC	DIN OWNER	Y	Y	Y	N		150 SIGNET DRIVE	TORONTO	ONTARIO	CANADA	M9L 1T9	
76733	JPC10	4415	JAMP PHARMA CORPORATION	DIN OWNER	Y	Y	Y	N		1310 RUE NOBEL	BOUCHERVILLE	QUEBEC	CANADA	J4B 5H3	
76734	JPC10	4415	JAMP PHARMA CORPORATION	DIN OWNER	Y	Y	Y	N		1310 RUE NOBEL	BOUCHERVILLE	QUEBEC	CANADA	J4B 5H3	
76735	JPC10	4415	JAMP PHARMA CORPORATION	DIN OWNER	Y	Y	Y	N		1310 RUE NOBEL	BOUCHERVILLE	QUEBEC	CANADA	J4B 5H3	
76750		12299	MARKWINS BEAUTY PRODUCTS INC	DIN OWNER	Y	Y	Y			"267 MATHESON BLVD EAST, UNIT 1"	MISSISSAUGA	ONTARIO	CANADA	L4Z 1X8	
76751		12299	MARKWINS BEAUTY PRODUCTS INC	DIN OWNER	Y	Y	Y			"267 MATHESON BLVD EAST, UNIT 1"	MISSISSAUGA	ONTARIO	CANADA	L4Z 1X8	
76752		12299	MARKWINS BEAUTY PRODUCTS INC	DIN OWNER	Y	Y	Y			"267 MATHESON BLVD EAST, UNIT 1"	MISSISSAUGA	ONTARIO	CANADA	L4Z 1X8	
76753		12299	MARKWINS BEAUTY PRODUCTS INC	DIN OWNER	Y	Y	Y			"267 MATHESON BLVD EAST, UNIT 1"	MISSISSAUGA	ONTARIO	CANADA	L4Z 1X8	
76754		12299	MARKWINS BEAUTY PRODUCTS INC	DIN OWNER	Y	Y	Y			"267 MATHESON BLVD EAST, UNIT 1"	MISSISSAUGA	ONTARIO	CANADA	L4Z 1X8	
76755		12299	MARKWINS BEAUTY PRODUCTS INC	DIN OWNER	Y	Y	Y			"267 MATHESON BLVD EAST, UNIT 1"	MISSISSAUGA	ONTARIO	CANADA	L4Z 1X8	
76756	DPC07	4065	DOMINION PHARMACAL	DIN OWNER	Y	Y	Y	N	SUITE 100	"6111, AVENUE ROYALMOUNT"	MONTREAL	QUEBEC	CANADA	H4P 2T4	
76757	DPC07	4065	DOMINION PHARMACAL	DIN OWNER	Y	Y	Y	N	SUITE 100	"6111, AVENUE ROYALMOUNT"	MONTREAL	QUEBEC	CANADA	H4P 2T4	
76758	DPC07	4065	DOMINION PHARMACAL	DIN OWNER	Y	Y	Y	N	SUITE 100	"6111, AVENUE ROYALMOUNT"	MONTREAL	QUEBEC	CANADA	H4P 2T4	
76759		12299	MARKWINS BEAUTY PRODUCTS INC	DIN OWNER	Y	Y	Y			"267 MATHESON BLVD EAST, UNIT 1"	MISSISSAUGA	ONTARIO	CANADA	L4Z 1X8	
76760	PHH07	4917	PHARMEL INC	DIN OWNER	Y	Y	Y	N		"6111, AVENUE ROYALMOUNT, SUITE 100"	MONTREAL	QUEBEC	CANADA	H4P 2T4	
76761	PHH07	4917	PHARMEL INC	DIN OWNER	Y	Y	Y	N		"6111, AVENUE ROYALMOUNT, SUITE 100"	MONTREAL	QUEBEC	CANADA	H4P 2T4	
76762	PHH07	4917	PHARMEL INC	DIN OWNER	Y	Y	Y	N		"6111, AVENUE ROYALMOUNT, SUITE 100"	MONTREAL	QUEBEC	CANADA	H4P 2T4	
76798	APX08	3636	APOTEX INC	DIN OWNER	Y	Y	Y	N		150 SIGNET DRIVE	TORONTO	ONTARIO	CANADA	M9L 1T9	
76807	DPC07	4065	DOMINION PHARMACAL	DIN OWNER	Y	Y	Y	N	SUITE 100	"6111, AVENUE ROYALMOUNT"	MONTREAL	QUEBEC	CANADA	H4P 2T4	
76808	DPC07	4065	DOMINION PHARMACAL	DIN OWNER	Y	Y	Y	N	SUITE 100	"6111, AVENUE ROYALMOUNT"	MONTREAL	QUEBEC	CANADA	H4P 2T4	
76835		12652	CANADA LIFE SCIENCES	DIN OWNER	Y	Y	Y			RR #5 15408 CLAYHILL ROAD	GEORGETOWN	ONTARIO	CANADA	L7G 4S8	
76853		12482	KINDERCARE CANADA LIMITED	DIN OWNER	Y	Y	Y			100 NORFINCH DRIVE	TORONTO	ONTARIO	CANADA	M3N 1X1	
76868		12669	FIRST AID RESEARCH CORPORATION	DIN OWNER	Y	Y	Y		2003	3375 PARK AVENUE	WANTAGH	NEW YORK	UNITED STATES	11793	
76874		12652	CANADA LIFE SCIENCES	DIN OWNER	Y	Y	Y			RR #5 15408 CLAYHILL ROAD	GEORGETOWN	ONTARIO	CANADA	L7G 4S8	
76893		12669	FIRST AID RESEARCH CORPORATION	DIN OWNER	Y	Y	Y		2003	3375 PARK AVENUE	WANTAGH	NEW YORK	UNITED STATES	11793	
76905		12545	SUPPLEMENTS AROMATIK INC.	DIN OWNER	Y	Y	Y			"2334, BOUL. MARIE-VICTORIN"	VARENNES	QUEBEC	CANADA	J3X 1R4	87
76923	MCL08	4569	MCNEIL CONSUMER HEALTHCARE DIVISION OF JOHNSON & JOHNSON INC	DIN OWNER	Y	Y	Y	N		88 MCNABB STREET	MARKHAM	ONTARIO	CANADA	L3R 5L2	
76927	APX08	3636	APOTEX INC	DIN OWNER	Y	Y	Y	N		150 SIGNET DRIVE	TORONTO	ONTARIO	CANADA	M9L 1T9	
76933		8916	METHAPHARM INC	DIN OWNER	Y	Y	Y	N		81 SINCLAIR BLVD	BRANTFORD	ONTARIO	CANADA	N3S 7X6	
76955		11362	OMRIX BIOPHARMACEUTICALS LTD	DIN OWNER	Y	Y	Y			"MDA BLOOD BANK, SHEBA HOSPITAL, RAMAT-GAN"	KIRYAT ONO	TEL-AVIV	ISRAEL	5510801	888
76972	MCL08	4569	MCNEIL CONSUMER HEALTHCARE DIVISION OF JOHNSON & JOHNSON INC	DIN OWNER	Y	Y	Y	N		88 MCNABB STREET	MARKHAM	ONTARIO	CANADA	L3R 5L2	
76991		12646	AFRICAN EXTRACTS CC	DIN OWNER	Y	N	N			10 INDUSTRY ROAD	PAARDEN EILAND	SAONE ET LOIRE	SOUTH AFRICA	7420	
76993	YNO08	5348	BAYER INC CONSUMER CARE	DIN OWNER	Y	N	Y	N		2920  MATHESON BLVD E	MISSISSAUGA	ONTARIO	CANADA	L4W 5R6	
77025	BRO95	5655	BIRKO CORPORATION	DIN OWNER	Y	Y	Y	N		9152 YOSEMITE STREET	HENDERSON	COLORADO	UNITED STATES	80640-8027	
77071	OBT08	10028	COBALT PHARMACEUTICALS COMPANY	DIN OWNER	Y	Y	N			"6733 MISSISSAUGA ROAD, SUITE 400"	MISSISSAUGA	ONTARIO	CANADA	L5N 6J5	
77087		14318	TEVA CANADA LIMITED	DIN OWNER	Y	Y	N			30 NOVOPHARM COURT	TORONTO	ONTARIO	CANADA	M1B 2K9	
77105		14339	WARNER CHILCOTT CANADA CO	DIN OWNER	Y	N	N		500	85 ENTERPRISE BLVD	MARKHAM	ONTARIO	CANADA	L6G 0B5	
77226	JPC10	4415	JAMP PHARMA CORPORATION	DIN OWNER	Y	Y	Y	N		1310 RUE NOBEL	BOUCHERVILLE	QUEBEC	CANADA	J4B 5H3	
77237	DPC07	4065	DOMINION PHARMACAL	DIN OWNER	Y	Y	Y	N	SUITE 100	"6111, AVENUE ROYALMOUNT"	MONTREAL	QUEBEC	CANADA	H4P 2T4	
77238	DPC07	4065	DOMINION PHARMACAL	DIN OWNER	Y	Y	Y	N	SUITE 100	"6111, AVENUE ROYALMOUNT"	MONTREAL	QUEBEC	CANADA	H4P 2T4	
77239	PHH07	4917	PHARMEL INC	DIN OWNER	Y	Y	Y	N		"6111, AVENUE ROYALMOUNT, SUITE 100"	MONTREAL	QUEBEC	CANADA	H4P 2T4	
77240	PHH07	4917	PHARMEL INC	DIN OWNER	Y	Y	Y	N		"6111, AVENUE ROYALMOUNT, SUITE 100"	MONTREAL	QUEBEC	CANADA	H4P 2T4	
77252		12733	M & J COSMETICS SA	DIN OWNER	Y	Y	N			8 IMPASSE COLOMBELLE	"1218 GRAND SACONNEX, GENEVA"	SAONE ET LOIRE	SWITZERLAND	2889	
77253		12733	M & J COSMETICS SA	DIN OWNER	Y	Y	N			8 IMPASSE COLOMBELLE	"1218 GRAND SACONNEX, GENEVA"	SAONE ET LOIRE	SWITZERLAND	2889	
77294		13951	CROWN LABORATORIES INC.	DIN OWNER	Y	Y	N			349 LAFE COX DRIVE	JOHNSON CITY	TENNESSEE	UNITED STATES	37604	
77296		11587	MEDLINE INDUSTRIES INCORPORATED	DIN OWNER	Y	N	N			1 MEDLINE PLACE	MUNDELEIN	ILLINOIS	UNITED STATES	60060	
77297		14907	MARCAN PHARMACEUTICALS INC	DIN OWNER	Y	N	N		SUITE 4	77 AURIGA DRIVE	OTTAWA	ONTARIO	CANADA	K2E 7Z7	
77298		14907	MARCAN PHARMACEUTICALS INC	DIN OWNER	Y	N	N		SUITE 4	77 AURIGA DRIVE	OTTAWA	ONTARIO	CANADA	K2E 7Z7	
77327		7238	CMI COSMETIC MANUFACTURERS CORP	DIN OWNER	Y	Y	Y	N		90 MOYAL COURT	CONCORD	ONTARIO	CANADA	L4K 4R8	
77345		12027	SANDOZ CANADA INCORPORATED	DIN OWNER	Y	Y	Y			145 JULES-LÉGER STREET	BOUCHERVILLE	QUEBEC	CANADA	J4B 7K8	
77404		11256	CIPLA LTD	DIN OWNER	Y	Y	N			"CIPLA HOUSE, PENNINSULA BUSINESS PARK, GANPATRAO KADAM MARG, LOWER PAREL"	"MUMBAI,"	MAHARASHTRA	INDIA	400013	
77452	SDQ95	6574	STEPAN COMPANY	DIN OWNER	Y	Y	N	N		22 W. FRONTAGE ROAD	NORTHFIELD	ILLINOIS	UNITED STATES	60093	
77467	APX08	3636	APOTEX INC	DIN OWNER	Y	Y	Y	N		150 SIGNET DRIVE	TORONTO	ONTARIO	CANADA	M9L 1T9	
77474		12435	INTERNATIONAL PHARMACEUTICAL GENERICS LTD	DIN OWNER	Y	N	N			4-77 AURIGA DRIVE	OTTAWA	ONTARIO	CANADA	K2E 7Z7	
77478	TAN08	5240	TANTA PHARMACEUTICALS INC	DIN OWNER	Y	Y	Y	N		1009 BURNS STREET EAST	WHITBY	ONTARIO	CANADA	L1N 6A6	
77479	TAN08	5240	TANTA PHARMACEUTICALS INC	DIN OWNER	Y	Y	Y	N		1009 BURNS STREET EAST	WHITBY	ONTARIO	CANADA	L1N 6A6	
77501		16555	FRESENIUS KABI CANADA LTD	DIN OWNER	Y	Y	Y			"165 GALAXY BLVD, SUITE 100"	TORONTO	ONTARIO	CANADA	M9W 0C8	
77502		16555	FRESENIUS KABI CANADA LTD	DIN OWNER	Y	Y	Y			"165 GALAXY BLVD, SUITE 100"	TORONTO	ONTARIO	CANADA	M9W 0C8	
77503		16555	FRESENIUS KABI CANADA LTD	DIN OWNER	Y	Y	Y			"165 GALAXY BLVD, SUITE 100"	TORONTO	ONTARIO	CANADA	M9W 0C8	
77504		16555	FRESENIUS KABI CANADA LTD	DIN OWNER	Y	Y	Y			"165 GALAXY BLVD, SUITE 100"	TORONTO	ONTARIO	CANADA	M9W 0C8	
77505		16555	FRESENIUS KABI CANADA LTD	DIN OWNER	Y	Y	Y			"165 GALAXY BLVD, SUITE 100"	TORONTO	ONTARIO	CANADA	M9W 0C8	
77507		12807	DENNIS GREEN LTD.	DIN OWNER	Y	Y	Y		88	12850 EAST 40TH AVE.	DENVER	COLORADO	UNITED STATES	80239	
77516	PDH07	4900	"PFIZER CANADA INC., CONSUMER HEALTHCARE DIVISION"	DIN OWNER	Y	Y	Y	N		88 MCNABB	MARKHAM	ONTARIO	CANADA	L3R 5L2	
77520	WNM10	7936	WN PHARMACEUTICALS LTD.	DIN OWNER	Y	Y	N	N		2000 BRIGANTINE DRIVE	COQUITLAM	BRITISH COLUMBIA	CANADA	V3K 7B5	
77521		9201	SKINVISIBLE PHARMACEUTICALS INC	DIN OWNER	Y	Y	Y	N	10	6320 SOUTH SANDHILL ROAD	LAS VEGAS	NEVADA	UNITED STATES	89120	
77532	KIG10	6921	KINESYS PHARMACEUTICAL INC	DIN OWNER	Y	N	N	N	118	12920 84TH AVENUE	SURREY	BRITISH COLUMBIA	CANADA	V3W 1K7	
77534	KIG10	6921	KINESYS PHARMACEUTICAL INC	DIN OWNER	Y	N	N	N	118	12920 84TH AVENUE	SURREY	BRITISH COLUMBIA	CANADA	V3W 1K7	
77535	OMG07	4852	OMEGA LABORATORIES LTD	DIN OWNER	Y	Y	Y	N		11177 HAMON	MONTREAL	QUEBEC	CANADA	H3M 3E4	
77537		12733	M & J COSMETICS SA	DIN OWNER	Y	Y	N			8 IMPASSE COLOMBELLE	"1218 GRAND SACONNEX, GENEVA"	SAONE ET LOIRE	SWITZERLAND	2889	
77538		12733	M & J COSMETICS SA	DIN OWNER	Y	Y	N			8 IMPASSE COLOMBELLE	"1218 GRAND SACONNEX, GENEVA"	SAONE ET LOIRE	SWITZERLAND	2889	
77559	MRO95	4652	"MICROGEN, INC."	DIN OWNER	Y	Y	Y	N	102	33 CLINTON RD	WEST CALDWELL	NEW JERSEY	UNITED STATES	7006	
77579	APX08	3636	APOTEX INC	DIN OWNER	Y	Y	Y	N		150 SIGNET DRIVE	TORONTO	ONTARIO	CANADA	M9L 1T9	
77609		9870	CUMBERLAND SWAN HOLDINGS INC.	DIN OWNER	Y	Y	N			1 SWAN DRIVE	SMYRNA	TENNESSEE	UNITED STATES	37167	
77625	JPC10	4415	JAMP PHARMA CORPORATION	DIN OWNER	Y	Y	Y	N		1310 RUE NOBEL	BOUCHERVILLE	QUEBEC	CANADA	J4B 5H3	
77626	JPC10	4415	JAMP PHARMA CORPORATION	DIN OWNER	Y	Y	Y	N		1310 RUE NOBEL	BOUCHERVILLE	QUEBEC	CANADA	J4B 5H3	
77634	JPC10	4415	JAMP PHARMA CORPORATION	DIN OWNER	Y	Y	Y	N		1310 RUE NOBEL	BOUCHERVILLE	QUEBEC	CANADA	J4B 5H3	
77665		11656	PENDOPHARM DIVISION OF DE PHARMASCIENCE INC	DIN OWNER	Y	Y	Y		SUITE 100	"6111, AVENUE ROYALMOUNT"	MONTREAL	QUEBEC	CANADA	H4P 2T4	
77666		12435	INTERNATIONAL PHARMACEUTICAL GENERICS LTD	DIN OWNER	Y	N	N			4-77 AURIGA DRIVE	OTTAWA	ONTARIO	CANADA	K2E 7Z7	
77667		8927	MASON CHEMICAL COMPANY	DIN OWNER	Y	Y	N	N		"723 WEST ALGONQUIN ROAD, SUITE B"	ARLINGTON HEIGHTS	ILLINOIS	UNITED STATES	60005	
77670	JPC10	4415	JAMP PHARMA CORPORATION	DIN OWNER	Y	Y	Y	N		1310 RUE NOBEL	BOUCHERVILLE	QUEBEC	CANADA	J4B 5H3	
77680	JPC10	4415	JAMP PHARMA CORPORATION	DIN OWNER	Y	Y	Y	N		1310 RUE NOBEL	BOUCHERVILLE	QUEBEC	CANADA	J4B 5H3	
77717	JPC10	4415	JAMP PHARMA CORPORATION	DIN OWNER	Y	Y	Y	N		1310 RUE NOBEL	BOUCHERVILLE	QUEBEC	CANADA	J4B 5H3	
77718		12299	MARKWINS BEAUTY PRODUCTS INC	DIN OWNER	Y	Y	Y			"267 MATHESON BLVD EAST, UNIT 1"	MISSISSAUGA	ONTARIO	CANADA	L4Z 1X8	
77719		12299	MARKWINS BEAUTY PRODUCTS INC	DIN OWNER	Y	Y	Y			"267 MATHESON BLVD EAST, UNIT 1"	MISSISSAUGA	ONTARIO	CANADA	L4Z 1X8	
77720		12299	MARKWINS BEAUTY PRODUCTS INC	DIN OWNER	Y	Y	Y			"267 MATHESON BLVD EAST, UNIT 1"	MISSISSAUGA	ONTARIO	CANADA	L4Z 1X8	
77744		12874	"JASON NATURAL PRODUCTS, INC."	DIN OWNER	Y	N	N			8468 WARNER DRIVE	CULVER CITY	CALIFORNIA	UNITED STATES	90232-2484	
77746		11772	BODYGLIDE	DIN OWNER	Y	Y	Y		380	12443 BELL RED ROAD	BELLEVUE	WASHINGTON	UNITED STATES	98005	
77766		12462	MATRIX ENVIRONMENTAL SOLUTIONS LTD	DIN OWNER	Y	N	N			463 DAWSON ROAD N	WINNIPEG	MANITOBA	CANADA	R2J 0S8	
77767	JPC10	4415	JAMP PHARMA CORPORATION	DIN OWNER	Y	Y	Y	N		1310 RUE NOBEL	BOUCHERVILLE	QUEBEC	CANADA	J4B 5H3	
77771		12545	SUPPLEMENTS AROMATIK INC.	DIN OWNER	Y	Y	Y			"2334, BOUL. MARIE-VICTORIN"	VARENNES	QUEBEC	CANADA	J3X 1R4	87
77788		9408	THE CLOROX COMPANY	DIN OWNER	Y	N	N	N		1221 BROADWAY	OAKLAND	CALIFORNIA	UNITED STATES	94612-1888	
77789	JPC10	4415	JAMP PHARMA CORPORATION	DIN OWNER	Y	Y	Y	N		1310 RUE NOBEL	BOUCHERVILLE	QUEBEC	CANADA	J4B 5H3	
77790	JPC10	4415	JAMP PHARMA CORPORATION	DIN OWNER	Y	Y	Y	N		1310 RUE NOBEL	BOUCHERVILLE	QUEBEC	CANADA	J4B 5H3	
77804		12265	BARRIER THERAPEUTICS CANADA INC.	DIN OWNER	Y	N	N			6635 BOUL. HENRI-BOURASSA OUEST	MONTREAL	QUEBEC	CANADA	H4R 1E1	
77805		12419	"OCULUS INNOVATIVE SCIENCES, INC."	DIN OWNER	Y	Y	N			1129 N. MCDOWELL BLVD.	PETALUMA	CALIFORNIA	UNITED STATES	94954	
77813		12974	PHARMALINE INCORPORATED	DIN OWNER	Y	Y	Y		118	5200 DIXIE ROAD	MISSISSAUGA	ONTARIO	CANADA	L4W 1E4	
77841	APX08	3636	APOTEX INC	DIN OWNER	Y	Y	Y	N		150 SIGNET DRIVE	TORONTO	ONTARIO	CANADA	M9L 1T9	
77842	APX08	3636	APOTEX INC	DIN OWNER	Y	Y	Y	N		150 SIGNET DRIVE	TORONTO	ONTARIO	CANADA	M9L 1T9	
77843	APX08	3636	APOTEX INC	DIN OWNER	Y	Y	Y	N		150 SIGNET DRIVE	TORONTO	ONTARIO	CANADA	M9L 1T9	
77861	JPC10	4415	JAMP PHARMA CORPORATION	DIN OWNER	Y	Y	Y	N		1310 RUE NOBEL	BOUCHERVILLE	QUEBEC	CANADA	J4B 5H3	
77862	PBN07	4878	PHARMALAB INC.	DIN OWNER	Y	Y	Y	N		8750 BOUL GUILLAUME-COUTURE	LEVIS	QUEBEC	CANADA	G6V 9G9	100
77897		11587	MEDLINE INDUSTRIES INCORPORATED	DIN OWNER	Y	N	N			1 MEDLINE PLACE	MUNDELEIN	ILLINOIS	UNITED STATES	60060	
77902		13019	HESS & CLARK INC	DIN OWNER	Y	Y	Y			110 HOPKINS DRIVE	RANDOLPH	WISCONSIN	UNITED STATES	53956	
77904		9408	THE CLOROX COMPANY	DIN OWNER	Y	N	N	N		1221 BROADWAY	OAKLAND	CALIFORNIA	UNITED STATES	94612-1888	
77905		9408	THE CLOROX COMPANY	DIN OWNER	Y	N	N	N		1221 BROADWAY	OAKLAND	CALIFORNIA	UNITED STATES	94612-1888	
77906		9408	THE CLOROX COMPANY	DIN OWNER	Y	N	N	N		1221 BROADWAY	OAKLAND	CALIFORNIA	UNITED STATES	94612-1888	
77929	WNM10	7936	WN PHARMACEUTICALS LTD.	DIN OWNER	Y	Y	N	N		2000 BRIGANTINE DRIVE	COQUITLAM	BRITISH COLUMBIA	CANADA	V3K 7B5	
77930		11163	PHARMA STRIDES CANADA CORPORATION	DIN OWNER	Y	Y	Y		BUREAU 206	1205 RUE AMPERE	BOUCHERVILLE	QUEBEC	CANADA	J4B 7M6	
77931		11163	PHARMA STRIDES CANADA CORPORATION	DIN OWNER	Y	Y	Y		BUREAU 206	1205 RUE AMPERE	BOUCHERVILLE	QUEBEC	CANADA	J4B 7M6	
77939	PHH07	4917	PHARMEL INC	DIN OWNER	Y	Y	Y	N		"6111, AVENUE ROYALMOUNT, SUITE 100"	MONTREAL	QUEBEC	CANADA	H4P 2T4	
77954		13041	"PERSONAL CARE DIVISION, HAIN-CELESTIAL GROUP, INC."	DIN OWNER	Y	Y	N			8468 WARNER DRIVE	CULVER CITY	CALIFORNIA	UNITED STATES	90232	
77955		13041	"PERSONAL CARE DIVISION, HAIN-CELESTIAL GROUP, INC."	DIN OWNER	Y	Y	N			8468 WARNER DRIVE	CULVER CITY	CALIFORNIA	UNITED STATES	90232	
77964		9408	THE CLOROX COMPANY	DIN OWNER	Y	N	N	N		1221 BROADWAY	OAKLAND	CALIFORNIA	UNITED STATES	94612-1888	
77970	TAN08	5240	TANTA PHARMACEUTICALS INC	DIN OWNER	Y	Y	Y	N		1009 BURNS STREET EAST	WHITBY	ONTARIO	CANADA	L1N 6A6	
77971	TAN08	5240	TANTA PHARMACEUTICALS INC	DIN OWNER	Y	Y	Y	N		1009 BURNS STREET EAST	WHITBY	ONTARIO	CANADA	L1N 6A6	
77978	PHH07	4917	PHARMEL INC	DIN OWNER	Y	Y	Y	N		"6111, AVENUE ROYALMOUNT, SUITE 100"	MONTREAL	QUEBEC	CANADA	H4P 2T4	
77979	PHH07	4917	PHARMEL INC	DIN OWNER	Y	Y	Y	N		"6111, AVENUE ROYALMOUNT, SUITE 100"	MONTREAL	QUEBEC	CANADA	H4P 2T4	
77980	PHH07	4917	PHARMEL INC	DIN OWNER	Y	Y	Y	N		"6111, AVENUE ROYALMOUNT, SUITE 100"	MONTREAL	QUEBEC	CANADA	H4P 2T4	
77981	DPC07	4065	DOMINION PHARMACAL	DIN OWNER	Y	Y	Y	N	SUITE 100	"6111, AVENUE ROYALMOUNT"	MONTREAL	QUEBEC	CANADA	H4P 2T4	
77982	DPC07	4065	DOMINION PHARMACAL	DIN OWNER	Y	Y	Y	N	SUITE 100	"6111, AVENUE ROYALMOUNT"	MONTREAL	QUEBEC	CANADA	H4P 2T4	
77983	DPC07	4065	DOMINION PHARMACAL	DIN OWNER	Y	Y	Y	N	SUITE 100	"6111, AVENUE ROYALMOUNT"	MONTREAL	QUEBEC	CANADA	H4P 2T4	
77984	DPC07	4065	DOMINION PHARMACAL	DIN OWNER	Y	Y	Y	N	SUITE 100	"6111, AVENUE ROYALMOUNT"	MONTREAL	QUEBEC	CANADA	H4P 2T4	
77985	PHH07	4917	PHARMEL INC	DIN OWNER	Y	Y	Y	N		"6111, AVENUE ROYALMOUNT, SUITE 100"	MONTREAL	QUEBEC	CANADA	H4P 2T4	
77990	PMT07	4933	PHARMETICS (2011) INC	DIN OWNER	Y	Y	Y	N		3695 AUTOROUTE DES LAURENTIDES	LAVAL	QUEBEC	CANADA	H7L 3H7	
77993	PMT07	4933	PHARMETICS (2011) INC	DIN OWNER	Y	Y	Y	N		3695 AUTOROUTE DES LAURENTIDES	LAVAL	QUEBEC	CANADA	H7L 3H7	
78000	PHH07	4917	PHARMEL INC	DIN OWNER	Y	Y	Y	N		"6111, AVENUE ROYALMOUNT, SUITE 100"	MONTREAL	QUEBEC	CANADA	H4P 2T4	
78002	DPC07	4065	DOMINION PHARMACAL	DIN OWNER	Y	Y	Y	N	SUITE 100	"6111, AVENUE ROYALMOUNT"	MONTREAL	QUEBEC	CANADA	H4P 2T4	
78007	PMT07	4933	PHARMETICS (2011) INC	DIN OWNER	Y	Y	Y	N		3695 AUTOROUTE DES LAURENTIDES	LAVAL	QUEBEC	CANADA	H7L 3H7	
78008	PMT07	4933	PHARMETICS (2011) INC	DIN OWNER	Y	Y	Y	N		3695 AUTOROUTE DES LAURENTIDES	LAVAL	QUEBEC	CANADA	H7L 3H7	
78011		10577	CHIEF MEDICAL SUPPLIES LTD	DIN OWNER	Y	Y	Y			411-19 ST SE	CALGARY	ALBERTA	CANADA	T2E 6J7	
78026	CBJ95	5703	CARIBBEAN BREEZE INTERNATIONAL INC.	DIN OWNER	Y	Y	Y	N		2383 SHANNON ROAD	FERNANOINA BEACH	FLORIDA	UNITED STATES	32034	
78027	CBJ95	5703	CARIBBEAN BREEZE INTERNATIONAL INC.	DIN OWNER	Y	Y	Y	N		2383 SHANNON ROAD	FERNANOINA BEACH	FLORIDA	UNITED STATES	32034	
78036	BPW95	3795	ABC COMPOUNDING CO. INC.	DIN OWNER	Y	N	N	N		6970 JONESBORO RD	MORROW	GEORGIA	UNITED STATES	30260	
78042	EPD08	3966	ELANCO DIVISION ELI LILLY CANADA INC	DIN OWNER	Y	N	N	N		"150 RESEARCH LANE, SUITE 120"	GUELPH	ONTARIO	CANADA	N1G 4T2	
78048	CBJ95	5703	CARIBBEAN BREEZE INTERNATIONAL INC.	DIN OWNER	Y	Y	Y	N		2383 SHANNON ROAD	FERNANOINA BEACH	FLORIDA	UNITED STATES	32034	
78049	CBJ95	5703	CARIBBEAN BREEZE INTERNATIONAL INC.	DIN OWNER	Y	Y	Y	N		2383 SHANNON ROAD	FERNANOINA BEACH	FLORIDA	UNITED STATES	32034	
78050	CBJ95	5703	CARIBBEAN BREEZE INTERNATIONAL INC.	DIN OWNER	Y	Y	Y	N		2383 SHANNON ROAD	FERNANOINA BEACH	FLORIDA	UNITED STATES	32034	
78051	CBJ95	5703	CARIBBEAN BREEZE INTERNATIONAL INC.	DIN OWNER	Y	Y	Y	N		2383 SHANNON ROAD	FERNANOINA BEACH	FLORIDA	UNITED STATES	32034	
78052	CBJ95	5703	CARIBBEAN BREEZE INTERNATIONAL INC.	DIN OWNER	Y	Y	Y	N		2383 SHANNON ROAD	FERNANOINA BEACH	FLORIDA	UNITED STATES	32034	
78053		12184	PRIME SOURCE	DIN OWNER	Y	Y	N			"ONE CITY PLACE DRIVE, SUITE 200"	ST. LOUIS	MISSOURI	UNITED STATES	63141	
78064	PMT07	4933	PHARMETICS (2011) INC	DIN OWNER	Y	Y	Y	N		3695 AUTOROUTE DES LAURENTIDES	LAVAL	QUEBEC	CANADA	H7L 3H7	
78065	MCL08	4569	MCNEIL CONSUMER HEALTHCARE DIVISION OF JOHNSON & JOHNSON INC	DIN OWNER	Y	Y	Y	N		88 MCNABB STREET	MARKHAM	ONTARIO	CANADA	L3R 5L2	
78073		8927	MASON CHEMICAL COMPANY	DIN OWNER	Y	Y	N	N		"723 WEST ALGONQUIN ROAD, SUITE B"	ARLINGTON HEIGHTS	ILLINOIS	UNITED STATES	60005	
78074		15772	ACTAVIS PHARMA COMPANY	DIN OWNER	Y	Y	Y			"6733 MISSISSAUGA ROAD, SUITE 400"	MISSISSAUGA	ONTARIO	CANADA	L5N 6J5	
78075		8927	MASON CHEMICAL COMPANY	DIN OWNER	Y	Y	N	N		"723 WEST ALGONQUIN ROAD, SUITE B"	ARLINGTON HEIGHTS	ILLINOIS	UNITED STATES	60005	
78076		8927	MASON CHEMICAL COMPANY	DIN OWNER	Y	Y	N	N		"723 WEST ALGONQUIN ROAD, SUITE B"	ARLINGTON HEIGHTS	ILLINOIS	UNITED STATES	60005	
78077		8927	MASON CHEMICAL COMPANY	DIN OWNER	Y	Y	N	N		"723 WEST ALGONQUIN ROAD, SUITE B"	ARLINGTON HEIGHTS	ILLINOIS	UNITED STATES	60005	
78088		7555	EURO-PHARM INTERNATIONAL CANADA INC	DIN OWNER	Y	Y	Y	N		9400  BOUL. LANGELIER	MONTREAL	QUEBEC	CANADA	H1P 3H8	
78113	PMT07	4933	PHARMETICS (2011) INC	DIN OWNER	Y	Y	Y	N		3695 AUTOROUTE DES LAURENTIDES	LAVAL	QUEBEC	CANADA	H7L 3H7	
78115	TLI07	5266	LABORATOIRES TRIANON INC	DIN OWNER	Y	Y	N	N		660 BOULEVARD INDUSTRIEL	BLAINVILLE	QUEBEC	CANADA	J7C 3V4	
78122	PMT07	4933	PHARMETICS (2011) INC	DIN OWNER	Y	Y	Y	N		3695 AUTOROUTE DES LAURENTIDES	LAVAL	QUEBEC	CANADA	H7L 3H7	
78128		12484	ARMSTRONG MANUFACTURING INC	DIN OWNER	Y	Y	Y			2485 HAINES ROAD	MISSISSAUGA	ONTARIO	CANADA	L4Y 1Y7	
78132	APX08	3636	APOTEX INC	DIN OWNER	Y	Y	Y	N		150 SIGNET DRIVE	TORONTO	ONTARIO	CANADA	M9L 1T9	
78133		10144	ORALABS INC	DIN OWNER	Y	Y	Y			18685 EAST PLAZA DRIVE	PARKER	COLORADO	UNITED STATES	80134	
78134		10144	ORALABS INC	DIN OWNER	Y	Y	Y			18685 EAST PLAZA DRIVE	PARKER	COLORADO	UNITED STATES	80134	
78137		7555	EURO-PHARM INTERNATIONAL CANADA INC	DIN OWNER	Y	Y	Y	N		9400  BOUL. LANGELIER	MONTREAL	QUEBEC	CANADA	H1P 3H8	
78140	PIA08	8481	PALADIN LABS INC	DIN OWNER	Y	Y	Y	N		"100 BLVD ALEXIS-NIHON, SUITE 600"	SAINT-LAURENT	QUEBEC	CANADA	H4M 2P2	
78141	APX08	3636	APOTEX INC	DIN OWNER	Y	Y	Y	N		150 SIGNET DRIVE	TORONTO	ONTARIO	CANADA	M9L 1T9	
78151		12861	ALVEDA PHARMACEUTICALS INC	DIN OWNER	Y	Y	Y		1500	10 KING STREET EAST	TORONTO	ONTARIO	CANADA	M5C 1C3	
78182		13091	PROFESSIONAL CLEANER PRODUCT LTD	DIN OWNER	Y	Y	Y		7	1769 BRITANNIA RD. E.	MISSISSAUGA	ONTARIO	CANADA	L4W 4E2	
78190	PMS07	3550	PHARMASCIENCE INC	DIN OWNER	Y	Y	Y	N	100	"6111, ROYALMOUNT AVENUE"	MONTREAL	QUEBEC	CANADA	H4P 2T4	
78231	JPC10	4415	JAMP PHARMA CORPORATION	DIN OWNER	Y	Y	Y	N		1310 RUE NOBEL	BOUCHERVILLE	QUEBEC	CANADA	J4B 5H3	
78237		13117	SWISHER HYGIENE FRANCHISE CORPORATION	DIN OWNER	Y	N	N			"570 ALDEN ROAD, UNIT 5"	MARKHAM	ONTARIO	CANADA	L3R 8N5	
78241	PDD07	4897	PRODEMDIS ENR.	DIN OWNER	Y	Y	N	N		4355 SIR WILFRID LAURIER	ST-HUBERT	QUEBEC	CANADA	J3Y 3X3	
78250	PFI07	4908	PFIZER CANADA INC	DIN OWNER	Y	Y	Y	N		17300 TRANS-CANADA HIGHWAY	KIRKLAND	QUEBEC	CANADA	H9J 2M5	
78251	PFI07	4908	PFIZER CANADA INC	DIN OWNER	Y	Y	Y	N		17300 TRANS-CANADA HIGHWAY	KIRKLAND	QUEBEC	CANADA	H9J 2M5	
78252	TPB07	6684	THERAPHARMA INC.	DIN OWNER	Y	Y	N	N		4355 SIR WILFRID LAURIER	ST-HUBERT	QUEBEC	CANADA	J3Y 3X3	
78253	TPB07	6684	THERAPHARMA INC.	DIN OWNER	Y	Y	N	N		4355 SIR WILFRID LAURIER	ST-HUBERT	QUEBEC	CANADA	J3Y 3X3	
78254	TPB07	6684	THERAPHARMA INC.	DIN OWNER	Y	Y	N	N		4355 SIR WILFRID LAURIER	ST-HUBERT	QUEBEC	CANADA	J3Y 3X3	
78257		11642	HOSPIRA HEALTHCARE CORPORATION	DIN OWNER	Y	Y	Y			17300 TRANS-CANADA HIGHWAY	KIRKLAND	QUEBEC	CANADA	H9J 2M5	
78293	TPB07	6684	THERAPHARMA INC.	DIN OWNER	Y	Y	N	N		4355 SIR WILFRID LAURIER	ST-HUBERT	QUEBEC	CANADA	J3Y 3X3	
78294	TPB07	6684	THERAPHARMA INC.	DIN OWNER	Y	Y	N	N		4355 SIR WILFRID LAURIER	ST-HUBERT	QUEBEC	CANADA	J3Y 3X3	
78295	TPB07	6684	THERAPHARMA INC.	DIN OWNER	Y	Y	N	N		4355 SIR WILFRID LAURIER	ST-HUBERT	QUEBEC	CANADA	J3Y 3X3	
78296	TPB07	6684	THERAPHARMA INC.	DIN OWNER	Y	Y	N	N		4355 SIR WILFRID LAURIER	ST-HUBERT	QUEBEC	CANADA	J3Y 3X3	
78306	APX08	3636	APOTEX INC	DIN OWNER	Y	Y	Y	N		150 SIGNET DRIVE	TORONTO	ONTARIO	CANADA	M9L 1T9	
78336		12007	PARTNAR ANIMAL HEALTH INC	DIN OWNER	Y	Y	Y			14057 ILDERTON ROAD	ILDERTON	ONTARIO	CANADA	N0M 2A0	
78354		13930	MYLAN PHARMACEUTICALS ULC	DIN OWNER	Y	Y	Y			85 ADVANCE ROAD	ETOBICOKE	ONTARIO	CANADA	M8Z 2S6	
78361		12861	ALVEDA PHARMACEUTICALS INC	DIN OWNER	Y	Y	Y		1500	10 KING STREET EAST	TORONTO	ONTARIO	CANADA	M5C 1C3	
78371	APX08	3636	APOTEX INC	DIN OWNER	Y	Y	Y	N		150 SIGNET DRIVE	TORONTO	ONTARIO	CANADA	M9L 1T9	
78374	APX08	3636	APOTEX INC	DIN OWNER	Y	Y	Y	N		150 SIGNET DRIVE	TORONTO	ONTARIO	CANADA	M9L 1T9	
78375	APX08	3636	APOTEX INC	DIN OWNER	Y	Y	Y	N		150 SIGNET DRIVE	TORONTO	ONTARIO	CANADA	M9L 1T9	
78379		13150	GEMINI HEALTH PRODUCTS LLC	DIN OWNER	Y	Y	Y		SUITE 300	8529 MEADOWBRIDGE RD	MECHANICSVILLE	VIRGINIA	UNITED STATES	23116	
78386	APX08	3636	APOTEX INC	DIN OWNER	Y	Y	Y	N		150 SIGNET DRIVE	TORONTO	ONTARIO	CANADA	M9L 1T9	
78401	JPC10	4415	JAMP PHARMA CORPORATION	DIN OWNER	Y	Y	Y	N		1310 RUE NOBEL	BOUCHERVILLE	QUEBEC	CANADA	J4B 5H3	
78403		13052	LAURA GELLER MAKEUP	DIN OWNER	Y	Y	Y			"575 LEXINGTON AVE, 4TH FLOOR"	NEW YORK	NEW YORK	UNITED STATES	10022	
78404		13052	LAURA GELLER MAKEUP	DIN OWNER	Y	Y	Y			"575 LEXINGTON AVE, 4TH FLOOR"	NEW YORK	NEW YORK	UNITED STATES	10022	
78407		11122	"WYETH ANIMAL HEALTH, DIVISION OF WYETH CANADA"	DIN OWNER	Y	N	N			17300 TRANSCANADA HWY	KIRKLAND	QUEBEC	CANADA	H9J 2M5	
78419		7531	NOVARTIS ANIMAL HEALTH CANADA INC	DIN OWNER	Y	N	Y	N		"2000 ARGENTIA ROAD, SUITE 400 PLAZA 3"	MISSISSAUGA	ONTARIO	CANADA	L5N 1V9	
78421	BOE07	3617	BOEHRINGER INGELHEIM (CANADA) LTD LTEE	DIN OWNER	Y	Y	Y	N		5180 SOUTH SERVICE ROAD	BURLINGTON	ONTARIO	CANADA	L7L 5H4	
78438	DPC07	4065	DOMINION PHARMACAL	DIN OWNER	Y	Y	Y	N	SUITE 100	"6111, AVENUE ROYALMOUNT"	MONTREAL	QUEBEC	CANADA	H4P 2T4	
78442	DPC07	4065	DOMINION PHARMACAL	DIN OWNER	Y	Y	Y	N	SUITE 100	"6111, AVENUE ROYALMOUNT"	MONTREAL	QUEBEC	CANADA	H4P 2T4	
78471	PHH07	4917	PHARMEL INC	DIN OWNER	Y	Y	Y	N		"6111, AVENUE ROYALMOUNT, SUITE 100"	MONTREAL	QUEBEC	CANADA	H4P 2T4	
78472	PHH07	4917	PHARMEL INC	DIN OWNER	Y	Y	Y	N		"6111, AVENUE ROYALMOUNT, SUITE 100"	MONTREAL	QUEBEC	CANADA	H4P 2T4	
78473	PHH07	4917	PHARMEL INC	DIN OWNER	Y	Y	Y	N		"6111, AVENUE ROYALMOUNT, SUITE 100"	MONTREAL	QUEBEC	CANADA	H4P 2T4	
78486	NOP08	4773	NOVOPHARM LIMITED	DIN OWNER	Y	Y	N	N		30 NOVOPHARM COURT	TORONTO	ONTARIO	CANADA	M1B 2K9	
78505		4207	FRESENIUS MEDICAL CARE CANADA INC	DIN OWNER	Y	Y	Y	N	110	45 STAPLES AVE.	RICHMOND HILL	ONTARIO	CANADA	L4B 4W6	
78506		4207	FRESENIUS MEDICAL CARE CANADA INC	DIN OWNER	Y	Y	Y	N	110	45 STAPLES AVE.	RICHMOND HILL	ONTARIO	CANADA	L4B 4W6	
78507		4207	FRESENIUS MEDICAL CARE CANADA INC	DIN OWNER	Y	Y	Y	N	110	45 STAPLES AVE.	RICHMOND HILL	ONTARIO	CANADA	L4B 4W6	
78512		11271	RANBAXY PHARMACEUTICALS CANADA INC.	DIN OWNER	Y	Y	Y			126 EAST DRIVE	BRAMPTON	ONTARIO	CANADA	L6T 1C1	
78513		11271	RANBAXY PHARMACEUTICALS CANADA INC.	DIN OWNER	Y	Y	Y			126 EAST DRIVE	BRAMPTON	ONTARIO	CANADA	L6T 1C1	
78514		11271	RANBAXY PHARMACEUTICALS CANADA INC.	DIN OWNER	Y	Y	Y			126 EAST DRIVE	BRAMPTON	ONTARIO	CANADA	L6T 1C1	
78515		11271	RANBAXY PHARMACEUTICALS CANADA INC.	DIN OWNER	Y	Y	Y			126 EAST DRIVE	BRAMPTON	ONTARIO	CANADA	L6T 1C1	
78556	TAN08	5240	TANTA PHARMACEUTICALS INC	DIN OWNER	Y	Y	Y	N		1009 BURNS STREET EAST	WHITBY	ONTARIO	CANADA	L1N 6A6	
78562	JSO08	7259	JANSSEN INC	DIN OWNER	Y	N	Y	N		19 GREEN BELT DRIVE	TORONTO	ONTARIO	CANADA	M3C 1L9	
78572		12861	ALVEDA PHARMACEUTICALS INC	DIN OWNER	Y	Y	Y		1500	10 KING STREET EAST	TORONTO	ONTARIO	CANADA	M5C 1C3	
78577		12861	ALVEDA PHARMACEUTICALS INC	DIN OWNER	Y	Y	Y		1500	10 KING STREET EAST	TORONTO	ONTARIO	CANADA	M5C 1C3	
78579		12861	ALVEDA PHARMACEUTICALS INC	DIN OWNER	Y	Y	Y		1500	10 KING STREET EAST	TORONTO	ONTARIO	CANADA	M5C 1C3	
78582		12861	ALVEDA PHARMACEUTICALS INC	DIN OWNER	Y	Y	Y		1500	10 KING STREET EAST	TORONTO	ONTARIO	CANADA	M5C 1C3	
78583		12861	ALVEDA PHARMACEUTICALS INC	DIN OWNER	Y	Y	Y		1500	10 KING STREET EAST	TORONTO	ONTARIO	CANADA	M5C 1C3	
78585	APX08	3636	APOTEX INC	DIN OWNER	Y	Y	Y	N		150 SIGNET DRIVE	TORONTO	ONTARIO	CANADA	M9L 1T9	
78586	APX08	3636	APOTEX INC	DIN OWNER	Y	Y	Y	N		150 SIGNET DRIVE	TORONTO	ONTARIO	CANADA	M9L 1T9	
78644		8927	MASON CHEMICAL COMPANY	DIN OWNER	Y	Y	N	N		"723 WEST ALGONQUIN ROAD, SUITE B"	ARLINGTON HEIGHTS	ILLINOIS	UNITED STATES	60005	
78645		8927	MASON CHEMICAL COMPANY	DIN OWNER	Y	Y	N	N		"723 WEST ALGONQUIN ROAD, SUITE B"	ARLINGTON HEIGHTS	ILLINOIS	UNITED STATES	60005	
78653	BPW95	3795	ABC COMPOUNDING CO. INC.	DIN OWNER	Y	N	N	N		6970 JONESBORO RD	MORROW	GEORGIA	UNITED STATES	30260	
78702	TAR08	5241	TARO PHARMACEUTICALS INC	DIN OWNER	Y	Y	N	N		130 EAST DRIVE	BRAMPTON	ONTARIO	CANADA	L6T 1C1	
78731	GCC08	4231	GERMIPHENE CORPORATION	DIN OWNER	Y	Y	Y	N		1379 COLBORNE STREET EAST	BRANTFORD	ONTARIO	CANADA	N3T 5M1	
78757		14464	CRLS	DIN OWNER	Y	Y	Y			"333-24 AVENUE SW, SUITE 300"	CALGARY	ALBERTA	CANADA	T2S 3E6	1381
78759		14464	CRLS	DIN OWNER	Y	Y	Y			"333-24 AVENUE SW, SUITE 300"	CALGARY	ALBERTA	CANADA	T2S 3E6	1381
78760		11625	CONTINUUM	DIN OWNER	Y	Y	Y		SUITE 300	333 24TH AVENUE SW	CALGARY	ALBERTA	CANADA	T2S 3E6	
78761		11625	CONTINUUM	DIN OWNER	Y	Y	Y		SUITE 300	333 24TH AVENUE SW	CALGARY	ALBERTA	CANADA	T2S 3E6	
78762		11625	CONTINUUM	DIN OWNER	Y	Y	Y		SUITE 300	333 24TH AVENUE SW	CALGARY	ALBERTA	CANADA	T2S 3E6	
78763		11625	CONTINUUM	DIN OWNER	Y	Y	Y		SUITE 300	333 24TH AVENUE SW	CALGARY	ALBERTA	CANADA	T2S 3E6	
78764		11625	CONTINUUM	DIN OWNER	Y	Y	Y		SUITE 300	333 24TH AVENUE SW	CALGARY	ALBERTA	CANADA	T2S 3E6	
78765		11625	CONTINUUM	DIN OWNER	Y	Y	Y		SUITE 300	333 24TH AVENUE SW	CALGARY	ALBERTA	CANADA	T2S 3E6	
78784		14907	MARCAN PHARMACEUTICALS INC	DIN OWNER	Y	N	N		SUITE 4	77 AURIGA DRIVE	OTTAWA	ONTARIO	CANADA	K2E 7Z7	
78785		14907	MARCAN PHARMACEUTICALS INC	DIN OWNER	Y	N	N		SUITE 4	77 AURIGA DRIVE	OTTAWA	ONTARIO	CANADA	K2E 7Z7	
78789		17094	APTEVO BIOTHERAPEUTICS LLC	DIN OWNER	Y	N	N			"920 CASSATT ROAD, SUITE 100"	BERWYN	PENNSYLVANIA	UNITED STATES	19312	
78790		17094	APTEVO BIOTHERAPEUTICS LLC	DIN OWNER	Y	N	N			"920 CASSATT ROAD, SUITE 100"	BERWYN	PENNSYLVANIA	UNITED STATES	19312	
78802	ALL07	3574	ALLERGAN INC	DIN OWNER	Y	Y	Y	N	SUITE 500	85 ENTERPRISE BLVD	MARKHAM	ONTARIO	CANADA	L6G 0B5	
78878		13257	BE PRODUCTS COMPANY LLC	DIN OWNER	Y	N	Y			1007 CHESTNUT STREET	NEWTON	MASSACHUSETTS	UNITED STATES	2462	
78925	PMS07	3550	PHARMASCIENCE INC	DIN OWNER	Y	Y	Y	N	100	"6111, ROYALMOUNT AVENUE"	MONTREAL	QUEBEC	CANADA	H4P 2T4	
78927	PMS07	3550	PHARMASCIENCE INC	DIN OWNER	Y	Y	Y	N	100	"6111, ROYALMOUNT AVENUE"	MONTREAL	QUEBEC	CANADA	H4P 2T4	
78931	APX08	3636	APOTEX INC	DIN OWNER	Y	Y	Y	N		150 SIGNET DRIVE	TORONTO	ONTARIO	CANADA	M9L 1T9	
78943		13001	ACTAVIS GROUP PTC EHF	DIN OWNER	Y	N	N			REYKJAVIKURVEGI 78	HAFNARFJORDUR	SAONE ET LOIRE	ICELAND	220	
78944		13001	ACTAVIS GROUP PTC EHF	DIN OWNER	Y	N	N			REYKJAVIKURVEGI 78	HAFNARFJORDUR	SAONE ET LOIRE	ICELAND	220	
78945		13001	ACTAVIS GROUP PTC EHF	DIN OWNER	Y	N	N			REYKJAVIKURVEGI 78	HAFNARFJORDUR	SAONE ET LOIRE	ICELAND	220	
78946		13001	ACTAVIS GROUP PTC EHF	DIN OWNER	Y	N	N			REYKJAVIKURVEGI 78	HAFNARFJORDUR	SAONE ET LOIRE	ICELAND	220	
78949		12422	GLYMED PLUS CANADA	DIN OWNER	Y	Y	N			"1720 HOWARD AVENUE, SUITE 155"	WINDSOR	ONTARIO	CANADA	N8X 5A6	
78952	NFG08	4398	INTERVET CANADA CORP	DIN OWNER	Y	Y	Y	N		16750 ROUTE TRANSCANADIENNE	KIRKLAND	QUEBEC	CANADA	H9H 4M7	
78967		9533	E.I. DUPONT CANADA COMPANY	DIN OWNER	Y	N	N			1919 MINNESOTA CT	MISSISSAUGA	ONTARIO	CANADA	L5N 0C9	
78968		9533	E.I. DUPONT CANADA COMPANY	DIN OWNER	Y	N	N			1919 MINNESOTA CT	MISSISSAUGA	ONTARIO	CANADA	L5N 0C9	
78969		9533	E.I. DUPONT CANADA COMPANY	DIN OWNER	Y	N	N			1919 MINNESOTA CT	MISSISSAUGA	ONTARIO	CANADA	L5N 0C9	
78970	JAS08	4406	S.C. JOHNSON AND SON LTD	DIN OWNER	Y	Y	Y	N		1 WEBSTER STREET	BRANTFORD	ONTARIO	CANADA	N3T 5R1	
78986		14907	MARCAN PHARMACEUTICALS INC	DIN OWNER	Y	N	N		SUITE 4	77 AURIGA DRIVE	OTTAWA	ONTARIO	CANADA	K2E 7Z7	
78987		14907	MARCAN PHARMACEUTICALS INC	DIN OWNER	Y	N	N		SUITE 4	77 AURIGA DRIVE	OTTAWA	ONTARIO	CANADA	K2E 7Z7	
79010	PMS07	3550	PHARMASCIENCE INC	DIN OWNER	Y	Y	Y	N	100	"6111, ROYALMOUNT AVENUE"	MONTREAL	QUEBEC	CANADA	H4P 2T4	
79013	SDQ95	6574	STEPAN COMPANY	DIN OWNER	Y	Y	N	N		22 W. FRONTAGE ROAD	NORTHFIELD	ILLINOIS	UNITED STATES	60093	
79015		14424	"AMAKRIS PRODUCTS, INC."	DIN OWNER	Y	Y	Y			16 A ELGIN ST. SUITE 327	THORNHILL	ONTARIO	CANADA	L3T 4T4	
79022		9533	E.I. DUPONT CANADA COMPANY	DIN OWNER	Y	N	N			1919 MINNESOTA CT	MISSISSAUGA	ONTARIO	CANADA	L5N 0C9	
79043	APX08	3636	APOTEX INC	DIN OWNER	Y	Y	Y	N		150 SIGNET DRIVE	TORONTO	ONTARIO	CANADA	M9L 1T9	
79054		7555	EURO-PHARM INTERNATIONAL CANADA INC	DIN OWNER	Y	Y	Y	N		9400  BOUL. LANGELIER	MONTREAL	QUEBEC	CANADA	H1P 3H8	
79059		7555	EURO-PHARM INTERNATIONAL CANADA INC	DIN OWNER	Y	Y	Y	N		9400  BOUL. LANGELIER	MONTREAL	QUEBEC	CANADA	H1P 3H8	
79060		7555	EURO-PHARM INTERNATIONAL CANADA INC	DIN OWNER	Y	Y	Y	N		9400  BOUL. LANGELIER	MONTREAL	QUEBEC	CANADA	H1P 3H8	
79061		7555	EURO-PHARM INTERNATIONAL CANADA INC	DIN OWNER	Y	Y	Y	N		9400  BOUL. LANGELIER	MONTREAL	QUEBEC	CANADA	H1P 3H8	
79072		10293	APOLLO HEALTH AND BEAUTY CARE INC.	DIN OWNER	Y	Y	N			1 APOLLO PLACE	TORONTO	ONTARIO	CANADA	M3J 0H2	
79091		8585	CROC BLOC PRODUCTS INC.	DIN OWNER	Y	Y	N	N		1-200 ZENWAY BLVD	VAUGHAN	ONTARIO	CANADA	L4H 0L6	
79109		13344	NUTRAMEDICS HEALTH CORPORATION	DIN OWNER	Y	N	Y		UNIT 113	19110 24TH AVENUE	SURREY	BRITISH COLUMBIA	CANADA	V3S 3S9	
79119		13930	MYLAN PHARMACEUTICALS ULC	DIN OWNER	Y	Y	Y			85 ADVANCE ROAD	ETOBICOKE	ONTARIO	CANADA	M8Z 2S6	
79120		13930	MYLAN PHARMACEUTICALS ULC	DIN OWNER	Y	Y	Y			85 ADVANCE ROAD	ETOBICOKE	ONTARIO	CANADA	M8Z 2S6	
79121		13930	MYLAN PHARMACEUTICALS ULC	DIN OWNER	Y	Y	Y			85 ADVANCE ROAD	ETOBICOKE	ONTARIO	CANADA	M8Z 2S6	
79123		13365	CARGO COSMETICS CORP	DIN OWNER	Y	Y	Y		102	1440 DON MILLS ROAD	TORONTO	ONTARIO	CANADA	M3B 3M1	
79172	PMS07	3550	PHARMASCIENCE INC	DIN OWNER	Y	Y	Y	N	100	"6111, ROYALMOUNT AVENUE"	MONTREAL	QUEBEC	CANADA	H4P 2T4	
79173	PMS07	3550	PHARMASCIENCE INC	DIN OWNER	Y	Y	Y	N	100	"6111, ROYALMOUNT AVENUE"	MONTREAL	QUEBEC	CANADA	H4P 2T4	
79174	PMS07	3550	PHARMASCIENCE INC	DIN OWNER	Y	Y	Y	N	100	"6111, ROYALMOUNT AVENUE"	MONTREAL	QUEBEC	CANADA	H4P 2T4	
79188		8541	VITA HEALTH PRODUCTS INC	DIN OWNER	Y	N	Y	N		150 BEGHIN AVENUE	WINNIPEG	MANITOBA	CANADA	R2J 3W2	
79241		14464	CRLS	DIN OWNER	Y	Y	Y			"333-24 AVENUE SW, SUITE 300"	CALGARY	ALBERTA	CANADA	T2S 3E6	1381
79243	DPC07	4065	DOMINION PHARMACAL	DIN OWNER	Y	Y	Y	N	SUITE 100	"6111, AVENUE ROYALMOUNT"	MONTREAL	QUEBEC	CANADA	H4P 2T4	
79254		9859	PRIME ENTERPRISES INC	DIN OWNER	Y	Y	N			16363 NW 49TH AVE.	MIAMI LAKES	FLORIDA	UNITED STATES	33014-6316	
79258	PHH07	4917	PHARMEL INC	DIN OWNER	Y	Y	Y	N		"6111, AVENUE ROYALMOUNT, SUITE 100"	MONTREAL	QUEBEC	CANADA	H4P 2T4	
79270		13389	VI-JON INC	DIN OWNER	Y	Y	N			8800 PAGE AVENUE	ST.LOUIS	MISSOURI	UNITED STATES	63114	
79272	PMS07	3550	PHARMASCIENCE INC	DIN OWNER	Y	Y	Y	N	100	"6111, ROYALMOUNT AVENUE"	MONTREAL	QUEBEC	CANADA	H4P 2T4	
79273	PMS07	3550	PHARMASCIENCE INC	DIN OWNER	Y	Y	Y	N	100	"6111, ROYALMOUNT AVENUE"	MONTREAL	QUEBEC	CANADA	H4P 2T4	
79277	TAN08	5240	TANTA PHARMACEUTICALS INC	DIN OWNER	Y	Y	Y	N		1009 BURNS STREET EAST	WHITBY	ONTARIO	CANADA	L1N 6A6	
79282	DPC07	4065	DOMINION PHARMACAL	DIN OWNER	Y	Y	Y	N	SUITE 100	"6111, AVENUE ROYALMOUNT"	MONTREAL	QUEBEC	CANADA	H4P 2T4	
79283	PHH07	4917	PHARMEL INC	DIN OWNER	Y	Y	Y	N		"6111, AVENUE ROYALMOUNT, SUITE 100"	MONTREAL	QUEBEC	CANADA	H4P 2T4	
79284	PHH07	4917	PHARMEL INC	DIN OWNER	Y	Y	Y	N		"6111, AVENUE ROYALMOUNT, SUITE 100"	MONTREAL	QUEBEC	CANADA	H4P 2T4	
79285	PHH07	4917	PHARMEL INC	DIN OWNER	Y	Y	Y	N		"6111, AVENUE ROYALMOUNT, SUITE 100"	MONTREAL	QUEBEC	CANADA	H4P 2T4	
79286	PHH07	4917	PHARMEL INC	DIN OWNER	Y	Y	Y	N		"6111, AVENUE ROYALMOUNT, SUITE 100"	MONTREAL	QUEBEC	CANADA	H4P 2T4	
79299	TAN08	5240	TANTA PHARMACEUTICALS INC	DIN OWNER	Y	Y	Y	N		1009 BURNS STREET EAST	WHITBY	ONTARIO	CANADA	L1N 6A6	
79300	DPC07	4065	DOMINION PHARMACAL	DIN OWNER	Y	Y	Y	N	SUITE 100	"6111, AVENUE ROYALMOUNT"	MONTREAL	QUEBEC	CANADA	H4P 2T4	
79301	DPC07	4065	DOMINION PHARMACAL	DIN OWNER	Y	Y	Y	N	SUITE 100	"6111, AVENUE ROYALMOUNT"	MONTREAL	QUEBEC	CANADA	H4P 2T4	
79302	DPC07	4065	DOMINION PHARMACAL	DIN OWNER	Y	Y	Y	N	SUITE 100	"6111, AVENUE ROYALMOUNT"	MONTREAL	QUEBEC	CANADA	H4P 2T4	
79303	DPC07	4065	DOMINION PHARMACAL	DIN OWNER	Y	Y	Y	N	SUITE 100	"6111, AVENUE ROYALMOUNT"	MONTREAL	QUEBEC	CANADA	H4P 2T4	
79304	DPC07	4065	DOMINION PHARMACAL	DIN OWNER	Y	Y	Y	N	SUITE 100	"6111, AVENUE ROYALMOUNT"	MONTREAL	QUEBEC	CANADA	H4P 2T4	
79305	DPC07	4065	DOMINION PHARMACAL	DIN OWNER	Y	Y	Y	N	SUITE 100	"6111, AVENUE ROYALMOUNT"	MONTREAL	QUEBEC	CANADA	H4P 2T4	
79306	DPC07	4065	DOMINION PHARMACAL	DIN OWNER	Y	Y	Y	N	SUITE 100	"6111, AVENUE ROYALMOUNT"	MONTREAL	QUEBEC	CANADA	H4P 2T4	
79307	DPC07	4065	DOMINION PHARMACAL	DIN OWNER	Y	Y	Y	N	SUITE 100	"6111, AVENUE ROYALMOUNT"	MONTREAL	QUEBEC	CANADA	H4P 2T4	
79318		9985	GLAXOSMITHKLINE INC	DIN OWNER	Y	N	Y			7333 MISSISSAUGA ROAD	MISSISSAUGA	ONTARIO	CANADA	L5N 6L4	
79326	DPC07	4065	DOMINION PHARMACAL	DIN OWNER	Y	Y	Y	N	SUITE 100	"6111, AVENUE ROYALMOUNT"	MONTREAL	QUEBEC	CANADA	H4P 2T4	
79327	DPC07	4065	DOMINION PHARMACAL	DIN OWNER	Y	Y	Y	N	SUITE 100	"6111, AVENUE ROYALMOUNT"	MONTREAL	QUEBEC	CANADA	H4P 2T4	
79328	DPC07	4065	DOMINION PHARMACAL	DIN OWNER	Y	Y	Y	N	SUITE 100	"6111, AVENUE ROYALMOUNT"	MONTREAL	QUEBEC	CANADA	H4P 2T4	
79337	DPC07	4065	DOMINION PHARMACAL	DIN OWNER	Y	Y	Y	N	SUITE 100	"6111, AVENUE ROYALMOUNT"	MONTREAL	QUEBEC	CANADA	H4P 2T4	
79338	DPC07	4065	DOMINION PHARMACAL	DIN OWNER	Y	Y	Y	N	SUITE 100	"6111, AVENUE ROYALMOUNT"	MONTREAL	QUEBEC	CANADA	H4P 2T4	
79339	DPC07	4065	DOMINION PHARMACAL	DIN OWNER	Y	Y	Y	N	SUITE 100	"6111, AVENUE ROYALMOUNT"	MONTREAL	QUEBEC	CANADA	H4P 2T4	
79340	DPC07	4065	DOMINION PHARMACAL	DIN OWNER	Y	Y	Y	N	SUITE 100	"6111, AVENUE ROYALMOUNT"	MONTREAL	QUEBEC	CANADA	H4P 2T4	
79342	PHH07	4917	PHARMEL INC	DIN OWNER	Y	Y	Y	N		"6111, AVENUE ROYALMOUNT, SUITE 100"	MONTREAL	QUEBEC	CANADA	H4P 2T4	
79343	DPC07	4065	DOMINION PHARMACAL	DIN OWNER	Y	Y	Y	N	SUITE 100	"6111, AVENUE ROYALMOUNT"	MONTREAL	QUEBEC	CANADA	H4P 2T4	
79368	HLR07	4328	HOFFMANN-LA ROCHE LIMITED	DIN OWNER	Y	Y	Y	N		7070 MISSISSAUGA ROAD	MISSISSAUGA	ONTARIO	CANADA	L5N 5M8	
79369	HLR07	4328	HOFFMANN-LA ROCHE LIMITED	DIN OWNER	Y	Y	Y	N		7070 MISSISSAUGA ROAD	MISSISSAUGA	ONTARIO	CANADA	L5N 5M8	
79370	HLR07	4328	HOFFMANN-LA ROCHE LIMITED	DIN OWNER	Y	Y	Y	N		7070 MISSISSAUGA ROAD	MISSISSAUGA	ONTARIO	CANADA	L5N 5M8	
79371	HLR07	4328	HOFFMANN-LA ROCHE LIMITED	DIN OWNER	Y	Y	Y	N		7070 MISSISSAUGA ROAD	MISSISSAUGA	ONTARIO	CANADA	L5N 5M8	
79372	HLR07	4328	HOFFMANN-LA ROCHE LIMITED	DIN OWNER	Y	Y	Y	N		7070 MISSISSAUGA ROAD	MISSISSAUGA	ONTARIO	CANADA	L5N 5M8	
79373	HLR07	4328	HOFFMANN-LA ROCHE LIMITED	DIN OWNER	Y	Y	Y	N		7070 MISSISSAUGA ROAD	MISSISSAUGA	ONTARIO	CANADA	L5N 5M8	
79374	HLR07	4328	HOFFMANN-LA ROCHE LIMITED	DIN OWNER	Y	Y	Y	N		7070 MISSISSAUGA ROAD	MISSISSAUGA	ONTARIO	CANADA	L5N 5M8	
79375	HLR07	4328	HOFFMANN-LA ROCHE LIMITED	DIN OWNER	Y	Y	Y	N		7070 MISSISSAUGA ROAD	MISSISSAUGA	ONTARIO	CANADA	L5N 5M8	
79376	HLR07	4328	HOFFMANN-LA ROCHE LIMITED	DIN OWNER	Y	Y	Y	N		7070 MISSISSAUGA ROAD	MISSISSAUGA	ONTARIO	CANADA	L5N 5M8	
79377	HLR07	4328	HOFFMANN-LA ROCHE LIMITED	DIN OWNER	Y	Y	Y	N		7070 MISSISSAUGA ROAD	MISSISSAUGA	ONTARIO	CANADA	L5N 5M8	
79378	HLR07	4328	HOFFMANN-LA ROCHE LIMITED	DIN OWNER	Y	Y	Y	N		7070 MISSISSAUGA ROAD	MISSISSAUGA	ONTARIO	CANADA	L5N 5M8	
79379	HLR07	4328	HOFFMANN-LA ROCHE LIMITED	DIN OWNER	Y	Y	Y	N		7070 MISSISSAUGA ROAD	MISSISSAUGA	ONTARIO	CANADA	L5N 5M8	
79380	HLR07	4328	HOFFMANN-LA ROCHE LIMITED	DIN OWNER	Y	Y	Y	N		7070 MISSISSAUGA ROAD	MISSISSAUGA	ONTARIO	CANADA	L5N 5M8	
79381	HLR07	4328	HOFFMANN-LA ROCHE LIMITED	DIN OWNER	Y	Y	Y	N		7070 MISSISSAUGA ROAD	MISSISSAUGA	ONTARIO	CANADA	L5N 5M8	
79382	HLR07	4328	HOFFMANN-LA ROCHE LIMITED	DIN OWNER	Y	Y	Y	N		7070 MISSISSAUGA ROAD	MISSISSAUGA	ONTARIO	CANADA	L5N 5M8	
79383	PHH07	4917	PHARMEL INC	DIN OWNER	Y	Y	Y	N		"6111, AVENUE ROYALMOUNT, SUITE 100"	MONTREAL	QUEBEC	CANADA	H4P 2T4	
79384	PHH07	4917	PHARMEL INC	DIN OWNER	Y	Y	Y	N		"6111, AVENUE ROYALMOUNT, SUITE 100"	MONTREAL	QUEBEC	CANADA	H4P 2T4	
79385	PHH07	4917	PHARMEL INC	DIN OWNER	Y	Y	Y	N		"6111, AVENUE ROYALMOUNT, SUITE 100"	MONTREAL	QUEBEC	CANADA	H4P 2T4	
79386	PHH07	4917	PHARMEL INC	DIN OWNER	Y	Y	Y	N		"6111, AVENUE ROYALMOUNT, SUITE 100"	MONTREAL	QUEBEC	CANADA	H4P 2T4	
79389	DPC07	4065	DOMINION PHARMACAL	DIN OWNER	Y	Y	Y	N	SUITE 100	"6111, AVENUE ROYALMOUNT"	MONTREAL	QUEBEC	CANADA	H4P 2T4	
79390	DPC07	4065	DOMINION PHARMACAL	DIN OWNER	Y	Y	Y	N	SUITE 100	"6111, AVENUE ROYALMOUNT"	MONTREAL	QUEBEC	CANADA	H4P 2T4	
79391	DPC07	4065	DOMINION PHARMACAL	DIN OWNER	Y	Y	Y	N	SUITE 100	"6111, AVENUE ROYALMOUNT"	MONTREAL	QUEBEC	CANADA	H4P 2T4	
79392	DPC07	4065	DOMINION PHARMACAL	DIN OWNER	Y	Y	Y	N	SUITE 100	"6111, AVENUE ROYALMOUNT"	MONTREAL	QUEBEC	CANADA	H4P 2T4	
79393	DPC07	4065	DOMINION PHARMACAL	DIN OWNER	Y	Y	Y	N	SUITE 100	"6111, AVENUE ROYALMOUNT"	MONTREAL	QUEBEC	CANADA	H4P 2T4	
79394	DPC07	4065	DOMINION PHARMACAL	DIN OWNER	Y	Y	Y	N	SUITE 100	"6111, AVENUE ROYALMOUNT"	MONTREAL	QUEBEC	CANADA	H4P 2T4	
79401		15645	ZOETIS CANADA INC	DIN OWNER	Y	Y	Y			16740 TRANS CANADA HIGHWAY	KIRKLAND	QUEBEC	CANADA	H9H 4M7	
79404	DPC07	4065	DOMINION PHARMACAL	DIN OWNER	Y	Y	Y	N	SUITE 100	"6111, AVENUE ROYALMOUNT"	MONTREAL	QUEBEC	CANADA	H4P 2T4	
79411	RIV07	5034	LABORATOIRE RIVA INC	DIN OWNER	Y	Y	N	N		660 BOUL. INDUSTRIEL	BLAINVILLE	QUEBEC	CANADA	J7C 3V4	
79413		3568	AMGEN CANADA INC	DIN OWNER	Y	Y	Y	N		"6775 FINANCIAL DRIVE, SUITE 100"	MISSISSAUGA	ONTARIO	CANADA	L5N 0A4	
79463	DPC07	4065	DOMINION PHARMACAL	DIN OWNER	Y	Y	Y	N	SUITE 100	"6111, AVENUE ROYALMOUNT"	MONTREAL	QUEBEC	CANADA	H4P 2T4	
79464	DPC07	4065	DOMINION PHARMACAL	DIN OWNER	Y	Y	Y	N	SUITE 100	"6111, AVENUE ROYALMOUNT"	MONTREAL	QUEBEC	CANADA	H4P 2T4	
79465	DPC07	4065	DOMINION PHARMACAL	DIN OWNER	Y	Y	Y	N	SUITE 100	"6111, AVENUE ROYALMOUNT"	MONTREAL	QUEBEC	CANADA	H4P 2T4	
79478		11271	RANBAXY PHARMACEUTICALS CANADA INC.	DIN OWNER	Y	Y	Y			126 EAST DRIVE	BRAMPTON	ONTARIO	CANADA	L6T 1C1	
79481		10293	APOLLO HEALTH AND BEAUTY CARE INC.	DIN OWNER	Y	Y	N			1 APOLLO PLACE	TORONTO	ONTARIO	CANADA	M3J 0H2	
79482		10293	APOLLO HEALTH AND BEAUTY CARE INC.	DIN OWNER	Y	Y	N			1 APOLLO PLACE	TORONTO	ONTARIO	CANADA	M3J 0H2	
79495	DPC07	4065	DOMINION PHARMACAL	DIN OWNER	Y	Y	Y	N	SUITE 100	"6111, AVENUE ROYALMOUNT"	MONTREAL	QUEBEC	CANADA	H4P 2T4	
79496	DPC07	4065	DOMINION PHARMACAL	DIN OWNER	Y	Y	Y	N	SUITE 100	"6111, AVENUE ROYALMOUNT"	MONTREAL	QUEBEC	CANADA	H4P 2T4	
79500	DPC07	4065	DOMINION PHARMACAL	DIN OWNER	Y	Y	Y	N	SUITE 100	"6111, AVENUE ROYALMOUNT"	MONTREAL	QUEBEC	CANADA	H4P 2T4	
79501	DPC07	4065	DOMINION PHARMACAL	DIN OWNER	Y	Y	Y	N	SUITE 100	"6111, AVENUE ROYALMOUNT"	MONTREAL	QUEBEC	CANADA	H4P 2T4	
79502	DPC07	4065	DOMINION PHARMACAL	DIN OWNER	Y	Y	Y	N	SUITE 100	"6111, AVENUE ROYALMOUNT"	MONTREAL	QUEBEC	CANADA	H4P 2T4	
79503	DPC07	4065	DOMINION PHARMACAL	DIN OWNER	Y	Y	Y	N	SUITE 100	"6111, AVENUE ROYALMOUNT"	MONTREAL	QUEBEC	CANADA	H4P 2T4	
79505		15090	1466406 ONTARIO LTD	DIN OWNER	Y	Y	Y		31B	665 MILLWAY AVENUE	CONCORD	ONTARIO	CANADA	L4K 3T8	
79521	DPC07	4065	DOMINION PHARMACAL	DIN OWNER	Y	Y	Y	N	SUITE 100	"6111, AVENUE ROYALMOUNT"	MONTREAL	QUEBEC	CANADA	H4P 2T4	
79523		14907	MARCAN PHARMACEUTICALS INC	DIN OWNER	Y	N	N		SUITE 4	77 AURIGA DRIVE	OTTAWA	ONTARIO	CANADA	K2E 7Z7	
79528		14907	MARCAN PHARMACEUTICALS INC	DIN OWNER	Y	N	N		SUITE 4	77 AURIGA DRIVE	OTTAWA	ONTARIO	CANADA	K2E 7Z7	
79530		14907	MARCAN PHARMACEUTICALS INC	DIN OWNER	Y	N	N		SUITE 4	77 AURIGA DRIVE	OTTAWA	ONTARIO	CANADA	K2E 7Z7	
79535	REK07	5010	RECKITT BENCKISER (CANADA) INC	DIN OWNER	Y	Y	Y	N	UNIT #2	1680 TECH AVENUE	MISSISSAUGA	ONTARIO	CANADA	L4W 5S9	
79545	PIA08	8481	PALADIN LABS INC	DIN OWNER	Y	Y	Y	N		"100 BLVD ALEXIS-NIHON, SUITE 600"	SAINT-LAURENT	QUEBEC	CANADA	H4M 2P2	
79549		14907	MARCAN PHARMACEUTICALS INC	DIN OWNER	Y	N	N		SUITE 4	77 AURIGA DRIVE	OTTAWA	ONTARIO	CANADA	K2E 7Z7	
79556	PHH07	4917	PHARMEL INC	DIN OWNER	Y	Y	Y	N		"6111, AVENUE ROYALMOUNT, SUITE 100"	MONTREAL	QUEBEC	CANADA	H4P 2T4	
79563		13298	AXSYS DIRECT MFG	DIN OWNER	Y	Y	Y			4523 97 STREET	EDMONTON	ALBERTA	CANADA	T6E 5Y8	
79567	DPC07	4065	DOMINION PHARMACAL	DIN OWNER	Y	Y	Y	N	SUITE 100	"6111, AVENUE ROYALMOUNT"	MONTREAL	QUEBEC	CANADA	H4P 2T4	
79570	NXP08	4828	NU-PHARM INC	DIN OWNER	Y	N	Y	N		"1165 CREDITSTONE RD, UNIT 2"	VAUGHAN	ONTARIO	CANADA	L4K 4N7	
79572	NXP08	4828	NU-PHARM INC	DIN OWNER	Y	N	Y	N		"1165 CREDITSTONE RD, UNIT 2"	VAUGHAN	ONTARIO	CANADA	L4K 4N7	
79573	NXP08	4828	NU-PHARM INC	DIN OWNER	Y	N	Y	N		"1165 CREDITSTONE RD, UNIT 2"	VAUGHAN	ONTARIO	CANADA	L4K 4N7	
79576	NXP08	4828	NU-PHARM INC	DIN OWNER	Y	N	Y	N		"1165 CREDITSTONE RD, UNIT 2"	VAUGHAN	ONTARIO	CANADA	L4K 4N7	
79577	NXP08	4828	NU-PHARM INC	DIN OWNER	Y	N	Y	N		"1165 CREDITSTONE RD, UNIT 2"	VAUGHAN	ONTARIO	CANADA	L4K 4N7	
79604		12027	SANDOZ CANADA INCORPORATED	DIN OWNER	Y	Y	Y			145 JULES-LÉGER STREET	BOUCHERVILLE	QUEBEC	CANADA	J4B 7K8	
79621		9201	SKINVISIBLE PHARMACEUTICALS INC	DIN OWNER	Y	Y	Y	N	10	6320 SOUTH SANDHILL ROAD	LAS VEGAS	NEVADA	UNITED STATES	89120	
79637		13538	WOODBINE PRODUCTS COMPANY	DIN OWNER	Y	Y	Y			915 WEST SMITH ROAD	MEDINA	OHIO	UNITED STATES	44256	
79641	PMT07	4933	PHARMETICS (2011) INC	DIN OWNER	Y	Y	Y	N		3695 AUTOROUTE DES LAURENTIDES	LAVAL	QUEBEC	CANADA	H7L 3H7	
79642	PBN07	4878	PHARMALAB INC.	DIN OWNER	Y	Y	Y	N		8750 BOUL GUILLAUME-COUTURE	LEVIS	QUEBEC	CANADA	G6V 9G9	100
79682	PMT07	4933	PHARMETICS (2011) INC	DIN OWNER	Y	Y	Y	N		3695 AUTOROUTE DES LAURENTIDES	LAVAL	QUEBEC	CANADA	H7L 3H7	
79683	PMT07	4933	PHARMETICS (2011) INC	DIN OWNER	Y	Y	Y	N		3695 AUTOROUTE DES LAURENTIDES	LAVAL	QUEBEC	CANADA	H7L 3H7	
79723	TAN08	5240	TANTA PHARMACEUTICALS INC	DIN OWNER	Y	Y	Y	N		1009 BURNS STREET EAST	WHITBY	ONTARIO	CANADA	L1N 6A6	
79732		14907	MARCAN PHARMACEUTICALS INC	DIN OWNER	Y	N	N		SUITE 4	77 AURIGA DRIVE	OTTAWA	ONTARIO	CANADA	K2E 7Z7	
79734	PMT07	4933	PHARMETICS (2011) INC	DIN OWNER	Y	Y	Y	N		3695 AUTOROUTE DES LAURENTIDES	LAVAL	QUEBEC	CANADA	H7L 3H7	
79743	OMG07	4852	OMEGA LABORATORIES LTD	DIN OWNER	Y	Y	Y	N		11177 HAMON	MONTREAL	QUEBEC	CANADA	H3M 3E4	
79754	NOP08	4773	NOVOPHARM LIMITED	DIN OWNER	Y	Y	N	N		30 NOVOPHARM COURT	TORONTO	ONTARIO	CANADA	M1B 2K9	
79755	NOP08	4773	NOVOPHARM LIMITED	DIN OWNER	Y	Y	N	N		30 NOVOPHARM COURT	TORONTO	ONTARIO	CANADA	M1B 2K9	
79756	NOP08	4773	NOVOPHARM LIMITED	DIN OWNER	Y	Y	N	N		30 NOVOPHARM COURT	TORONTO	ONTARIO	CANADA	M1B 2K9	
79764		16555	FRESENIUS KABI CANADA LTD	DIN OWNER	Y	Y	Y			"165 GALAXY BLVD, SUITE 100"	TORONTO	ONTARIO	CANADA	M9W 0C8	
79785	PMT07	4933	PHARMETICS (2011) INC	DIN OWNER	Y	Y	Y	N		3695 AUTOROUTE DES LAURENTIDES	LAVAL	QUEBEC	CANADA	H7L 3H7	
79789	PBN07	4878	PHARMALAB INC.	DIN OWNER	Y	Y	Y	N		8750 BOUL GUILLAUME-COUTURE	LEVIS	QUEBEC	CANADA	G6V 9G9	100
79790		9533	E.I. DUPONT CANADA COMPANY	DIN OWNER	Y	N	N			1919 MINNESOTA CT	MISSISSAUGA	ONTARIO	CANADA	L5N 0C9	
79796		10293	APOLLO HEALTH AND BEAUTY CARE INC.	DIN OWNER	Y	Y	N			1 APOLLO PLACE	TORONTO	ONTARIO	CANADA	M3J 0H2	
79797		10293	APOLLO HEALTH AND BEAUTY CARE INC.	DIN OWNER	Y	Y	N			1 APOLLO PLACE	TORONTO	ONTARIO	CANADA	M3J 0H2	
79809	PMT07	4933	PHARMETICS (2011) INC	DIN OWNER	Y	Y	Y	N		3695 AUTOROUTE DES LAURENTIDES	LAVAL	QUEBEC	CANADA	H7L 3H7	
79810	PMT07	4933	PHARMETICS (2011) INC	DIN OWNER	Y	Y	Y	N		3695 AUTOROUTE DES LAURENTIDES	LAVAL	QUEBEC	CANADA	H7L 3H7	
79813		10293	APOLLO HEALTH AND BEAUTY CARE INC.	DIN OWNER	Y	Y	N			1 APOLLO PLACE	TORONTO	ONTARIO	CANADA	M3J 0H2	
79870		13564	SIERRA SUMMITS SKIN PRODUCTS LLC	DIN OWNER	Y	Y	Y			1768 KODIAK CIRCLE	RENO	NEVADA	UNITED STATES	89511	19033
79907		15772	ACTAVIS PHARMA COMPANY	DIN OWNER	Y	Y	Y			"6733 MISSISSAUGA ROAD, SUITE 400"	MISSISSAUGA	ONTARIO	CANADA	L5N 6J5	
79942		8675	IMREX INC.	DIN OWNER	Y	N	N	N	UNIT 13	1550 YORKTON COURT	BURLINGTON	ONTARIO	CANADA	L7P 5B7	
79956		11271	RANBAXY PHARMACEUTICALS CANADA INC.	DIN OWNER	Y	Y	Y			126 EAST DRIVE	BRAMPTON	ONTARIO	CANADA	L6T 1C1	
79996		9408	THE CLOROX COMPANY	DIN OWNER	Y	N	N	N		1221 BROADWAY	OAKLAND	CALIFORNIA	UNITED STATES	94612-1888	
80004	REK07	5010	RECKITT BENCKISER (CANADA) INC	DIN OWNER	Y	Y	Y	N	UNIT #2	1680 TECH AVENUE	MISSISSAUGA	ONTARIO	CANADA	L4W 5S9	
80044		7556	SWISS AMERICAN PRODUCTS INC.	DIN OWNER	Y	Y	Y	N	SUITE #126	2055 LUNA ROAD	CARROLLTON	TEXAS	UNITED STATES	75006	
80136	APX08	3636	APOTEX INC	DIN OWNER	Y	Y	Y	N		150 SIGNET DRIVE	TORONTO	ONTARIO	CANADA	M9L 1T9	
80147	PMS07	3550	PHARMASCIENCE INC	DIN OWNER	Y	Y	Y	N	100	"6111, ROYALMOUNT AVENUE"	MONTREAL	QUEBEC	CANADA	H4P 2T4	
80158		13431	PHARMANUTRIENTS BOTANICAL CORPORATION	DIN OWNER	Y	Y	N		SUITE 107	2433 DOLLARTON HIGHWAY	NORTH VANCOUVER	BRITISH COLUMBIA	CANADA	V7H 0A1	
80159		8086	SHUR-GAIN	DIN OWNER	Y	Y	N			600 JAMES ST. SOUTH	ST. MARY'S	ONTARIO	CANADA	N4X 1C7	
80163		15772	ACTAVIS PHARMA COMPANY	DIN OWNER	Y	Y	Y			"6733 MISSISSAUGA ROAD, SUITE 400"	MISSISSAUGA	ONTARIO	CANADA	L5N 6J5	
80180		13431	PHARMANUTRIENTS BOTANICAL CORPORATION	DIN OWNER	Y	Y	N		SUITE 107	2433 DOLLARTON HIGHWAY	NORTH VANCOUVER	BRITISH COLUMBIA	CANADA	V7H 0A1	
80183		12648	PRO CURE PHARMA INC	DIN OWNER	Y	N	N			"1326 CONCESSION 1 DRUMMOND, RR #1"	PERTH	ONTARIO	CANADA	K7H 3C3	
80184		12648	PRO CURE PHARMA INC	DIN OWNER	Y	N	N			"1326 CONCESSION 1 DRUMMOND, RR #1"	PERTH	ONTARIO	CANADA	K7H 3C3	
80185		12648	PRO CURE PHARMA INC	DIN OWNER	Y	N	N			"1326 CONCESSION 1 DRUMMOND, RR #1"	PERTH	ONTARIO	CANADA	K7H 3C3	
80186		12648	PRO CURE PHARMA INC	DIN OWNER	Y	N	N			"1326 CONCESSION 1 DRUMMOND, RR #1"	PERTH	ONTARIO	CANADA	K7H 3C3	
80187	PHH07	4917	PHARMEL INC	DIN OWNER	Y	Y	Y	N		"6111, AVENUE ROYALMOUNT, SUITE 100"	MONTREAL	QUEBEC	CANADA	H4P 2T4	
80188	DPC07	4065	DOMINION PHARMACAL	DIN OWNER	Y	Y	Y	N	SUITE 100	"6111, AVENUE ROYALMOUNT"	MONTREAL	QUEBEC	CANADA	H4P 2T4	
80189		8086	SHUR-GAIN	DIN OWNER	Y	Y	N			600 JAMES ST. SOUTH	ST. MARY'S	ONTARIO	CANADA	N4X 1C7	
80193		12070	CORETEX PRODUCTS INC.	DIN OWNER	Y	Y	N			1850 SUNNYSIDE COURT	BAKERSFIELD	CALIFORNIA	UNITED STATES	93308	
80194		12070	CORETEX PRODUCTS INC.	DIN OWNER	Y	Y	N			1850 SUNNYSIDE COURT	BAKERSFIELD	CALIFORNIA	UNITED STATES	93308	
80196	RIV07	5034	LABORATOIRE RIVA INC	DIN OWNER	Y	Y	N	N		660 BOUL. INDUSTRIEL	BLAINVILLE	QUEBEC	CANADA	J7C 3V4	
80211		13431	PHARMANUTRIENTS BOTANICAL CORPORATION	DIN OWNER	Y	Y	N		SUITE 107	2433 DOLLARTON HIGHWAY	NORTH VANCOUVER	BRITISH COLUMBIA	CANADA	V7H 0A1	
80212		13431	PHARMANUTRIENTS BOTANICAL CORPORATION	DIN OWNER	Y	Y	N		SUITE 107	2433 DOLLARTON HIGHWAY	NORTH VANCOUVER	BRITISH COLUMBIA	CANADA	V7H 0A1	
80222	RIV07	5034	LABORATOIRE RIVA INC	DIN OWNER	Y	Y	N	N		660 BOUL. INDUSTRIEL	BLAINVILLE	QUEBEC	CANADA	J7C 3V4	
80260		14907	MARCAN PHARMACEUTICALS INC	DIN OWNER	Y	N	N		SUITE 4	77 AURIGA DRIVE	OTTAWA	ONTARIO	CANADA	K2E 7Z7	
80261		14907	MARCAN PHARMACEUTICALS INC	DIN OWNER	Y	N	N		SUITE 4	77 AURIGA DRIVE	OTTAWA	ONTARIO	CANADA	K2E 7Z7	
80262	TAN08	5240	TANTA PHARMACEUTICALS INC	DIN OWNER	Y	Y	Y	N		1009 BURNS STREET EAST	WHITBY	ONTARIO	CANADA	L1N 6A6	
80282	YNO08	5348	BAYER INC CONSUMER CARE	DIN OWNER	Y	N	Y	N		2920  MATHESON BLVD E	MISSISSAUGA	ONTARIO	CANADA	L4W 5R6	
80306		8658	"MICRO-SCIENTIFIC, LLC"	DIN OWNER	Y	Y	Y	N		755 TRI-STATE PARKWAY	GURNEE	ILLINOIS	UNITED STATES	60031	
80330	DPC07	4065	DOMINION PHARMACAL	DIN OWNER	Y	Y	Y	N	SUITE 100	"6111, AVENUE ROYALMOUNT"	MONTREAL	QUEBEC	CANADA	H4P 2T4	
80331	PHH07	4917	PHARMEL INC	DIN OWNER	Y	Y	Y	N		"6111, AVENUE ROYALMOUNT, SUITE 100"	MONTREAL	QUEBEC	CANADA	H4P 2T4	
80348	PMT07	4933	PHARMETICS (2011) INC	DIN OWNER	Y	Y	Y	N		3695 AUTOROUTE DES LAURENTIDES	LAVAL	QUEBEC	CANADA	H7L 3H7	
80352		12299	MARKWINS BEAUTY PRODUCTS INC	DIN OWNER	Y	Y	Y			"267 MATHESON BLVD EAST, UNIT 1"	MISSISSAUGA	ONTARIO	CANADA	L4Z 1X8	
80360	NOP08	4773	NOVOPHARM LIMITED	DIN OWNER	Y	Y	N	N		30 NOVOPHARM COURT	TORONTO	ONTARIO	CANADA	M1B 2K9	
80361	NOP08	4773	NOVOPHARM LIMITED	DIN OWNER	Y	Y	N	N		30 NOVOPHARM COURT	TORONTO	ONTARIO	CANADA	M1B 2K9	
80373		12299	MARKWINS BEAUTY PRODUCTS INC	DIN OWNER	Y	Y	Y			"267 MATHESON BLVD EAST, UNIT 1"	MISSISSAUGA	ONTARIO	CANADA	L4Z 1X8	
80378	SRO08	5181	EMD SERONO A DIVISION OF EMD INC CANADA	DIN OWNER	Y	Y	Y	N		"2695 NORTH SHERIDAN WAY, SUITE 200"	MISSISSAUGA	ONTARIO	CANADA	L5K 2N6	
80385	PHT08	4920	PHARMAX LIMITED	DIN OWNER	Y	Y	Y	N	509	80 FRONT ST EAST	TORONTO	ONTARIO	CANADA	M5E 1T4	
80387		14055	PROCESS CLEANING SOLUTIONS LTD	DIN OWNER	Y	Y	N			2060 FISHER DRIVE	PETERBOROUGH	ONTARIO	CANADA	K9J 8N4	3000
80389	PHT08	4920	PHARMAX LIMITED	DIN OWNER	Y	Y	Y	N	509	80 FRONT ST EAST	TORONTO	ONTARIO	CANADA	M5E 1T4	
80399		11656	PENDOPHARM DIVISION OF DE PHARMASCIENCE INC	DIN OWNER	Y	Y	Y		SUITE 100	"6111, AVENUE ROYALMOUNT"	MONTREAL	QUEBEC	CANADA	H4P 2T4	
80401		11656	PENDOPHARM DIVISION OF DE PHARMASCIENCE INC	DIN OWNER	Y	Y	Y		SUITE 100	"6111, AVENUE ROYALMOUNT"	MONTREAL	QUEBEC	CANADA	H4P 2T4	
80402		11656	PENDOPHARM DIVISION OF DE PHARMASCIENCE INC	DIN OWNER	Y	Y	Y		SUITE 100	"6111, AVENUE ROYALMOUNT"	MONTREAL	QUEBEC	CANADA	H4P 2T4	
80404	SEV07	5096	SERVIER CANADA INC	DIN OWNER	Y	N	N	N		235 BOUL. ARMAND-FRAPPIER  - PARC SCIENTIF. ET DE HAUTE TECH. DE LAVAL	LAVAL	QUEBEC	CANADA	H7V 4A7	
80405	SEV07	5096	SERVIER CANADA INC	DIN OWNER	Y	N	N	N		235 BOUL. ARMAND-FRAPPIER  - PARC SCIENTIF. ET DE HAUTE TECH. DE LAVAL	LAVAL	QUEBEC	CANADA	H7V 4A7	
80410		13634	UNIVERSITY MEDICAL PHARMACEUTICAL CORP	DIN OWNER	Y	N	N			88 MAXWELL	IRVINE	CALIFORNIA	UNITED STATES	92618	
80413		12250	MERCK CANADA INC	DIN OWNER	Y	Y	Y			16750 ROUTE TRANSCANADIENNE	KIRKLAND	QUEBEC	CANADA	H9H 4M7	
80434	TAN08	5240	TANTA PHARMACEUTICALS INC	DIN OWNER	Y	Y	Y	N		1009 BURNS STREET EAST	WHITBY	ONTARIO	CANADA	L1N 6A6	
80437		11656	PENDOPHARM DIVISION OF DE PHARMASCIENCE INC	DIN OWNER	Y	Y	Y		SUITE 100	"6111, AVENUE ROYALMOUNT"	MONTREAL	QUEBEC	CANADA	H4P 2T4	
80439		11656	PENDOPHARM DIVISION OF DE PHARMASCIENCE INC	DIN OWNER	Y	Y	Y		SUITE 100	"6111, AVENUE ROYALMOUNT"	MONTREAL	QUEBEC	CANADA	H4P 2T4	
80440		11656	PENDOPHARM DIVISION OF DE PHARMASCIENCE INC	DIN OWNER	Y	Y	Y		SUITE 100	"6111, AVENUE ROYALMOUNT"	MONTREAL	QUEBEC	CANADA	H4P 2T4	
80445	ECO08	4114	ECOLAB CO	DIN OWNER	Y	Y	Y	N		5105 TOMKEN ROAD	MISSISSAUGA	ONTARIO	CANADA	L4W 2X5	
80451	APX08	3636	APOTEX INC	DIN OWNER	Y	Y	Y	N		150 SIGNET DRIVE	TORONTO	ONTARIO	CANADA	M9L 1T9	
80462		9859	PRIME ENTERPRISES INC	DIN OWNER	Y	Y	N			16363 NW 49TH AVE.	MIAMI LAKES	FLORIDA	UNITED STATES	33014-6316	
80506		12195	VALESCO PHARMACEUTICALS INC	DIN OWNER	Y	Y	Y			3592 BOUL. POIRIER	SAINT-LAURENT	QUEBEC	CANADA	H4R 2J5	
80507		12195	VALESCO PHARMACEUTICALS INC	DIN OWNER	Y	Y	Y			3592 BOUL. POIRIER	SAINT-LAURENT	QUEBEC	CANADA	H4R 2J5	
80514	CIE95	3900	"CCA INDUSTRIES, INC."	DIN OWNER	Y	Y	Y	N		"65 CHALLENGER ROAD, SUITE 340"	RIDGEFIELD PARK	NEW JERSEY	UNITED STATES	7660	
80553	NOP08	4773	NOVOPHARM LIMITED	DIN OWNER	Y	Y	N	N		30 NOVOPHARM COURT	TORONTO	ONTARIO	CANADA	M1B 2K9	
80554	NOP08	4773	NOVOPHARM LIMITED	DIN OWNER	Y	Y	N	N		30 NOVOPHARM COURT	TORONTO	ONTARIO	CANADA	M1B 2K9	
80555	NOP08	4773	NOVOPHARM LIMITED	DIN OWNER	Y	Y	N	N		30 NOVOPHARM COURT	TORONTO	ONTARIO	CANADA	M1B 2K9	
80556	NOP08	4773	NOVOPHARM LIMITED	DIN OWNER	Y	Y	N	N		30 NOVOPHARM COURT	TORONTO	ONTARIO	CANADA	M1B 2K9	
80557		11979	AURO PHARMA INC	DIN OWNER	Y	Y	Y			"3700 STEELES AVENUE WEST, SUITE 402"	WOODBRIDGE	ONTARIO	CANADA	L4L 8K8	
80573		9859	PRIME ENTERPRISES INC	DIN OWNER	Y	Y	N			16363 NW 49TH AVE.	MIAMI LAKES	FLORIDA	UNITED STATES	33014-6316	
80578		9859	PRIME ENTERPRISES INC	DIN OWNER	Y	Y	N			16363 NW 49TH AVE.	MIAMI LAKES	FLORIDA	UNITED STATES	33014-6316	
80579		13728	PNP PHARMACEUTICALS INC	DIN OWNER	Y	Y	Y			9388 NORTH FRASER CRESCENT	BURNABY	BRITISH COLUMBIA	CANADA	V5J 0E3	
80587	DPC07	4065	DOMINION PHARMACAL	DIN OWNER	Y	Y	Y	N	SUITE 100	"6111, AVENUE ROYALMOUNT"	MONTREAL	QUEBEC	CANADA	H4P 2T4	
80625	PMS07	3550	PHARMASCIENCE INC	DIN OWNER	Y	Y	Y	N	100	"6111, ROYALMOUNT AVENUE"	MONTREAL	QUEBEC	CANADA	H4P 2T4	
80633		14373	SORRES PHARMA INC	DIN OWNER	Y	N	N		SUITE 100	6111 ROYALMOUNT AVE	MONTREAL	QUEBEC	CANADA	H4P 2T4	
80647	ETD95	5938	"E.T. BROWNE DRUG CO., INC."	DIN OWNER	Y	Y	N	N		440 SLYVAN AVENUE	ENGLEWOOD CLIFFS	NEW JERSEY	UNITED STATES	7632	1613
80648	PMT07	4933	PHARMETICS (2011) INC	DIN OWNER	Y	Y	Y	N		3695 AUTOROUTE DES LAURENTIDES	LAVAL	QUEBEC	CANADA	H7L 3H7	
80680		13200	BIO-CARE LABORATOIRES	DIN OWNER	Y	Y	Y			2820 HUNTINGTON PLACE	PORT COQUITLAM	BRITISH COLUMBIA	CANADA	V3C 4T3	
80684	APX08	3636	APOTEX INC	DIN OWNER	Y	Y	Y	N		150 SIGNET DRIVE	TORONTO	ONTARIO	CANADA	M9L 1T9	
80706		13362	INSITE VISION INCORPORATED	DIN OWNER	Y	Y	Y			965 ATLANTIC AVENUE	ALAMEDA	CALIFORNIA	UNITED STATES	94501	
80711		8658	"MICRO-SCIENTIFIC, LLC"	DIN OWNER	Y	Y	Y	N		755 TRI-STATE PARKWAY	GURNEE	ILLINOIS	UNITED STATES	60031	
80732	PMT07	4933	PHARMETICS (2011) INC	DIN OWNER	Y	Y	Y	N		3695 AUTOROUTE DES LAURENTIDES	LAVAL	QUEBEC	CANADA	H7L 3H7	
80752	PMT07	4933	PHARMETICS (2011) INC	DIN OWNER	Y	Y	Y	N		3695 AUTOROUTE DES LAURENTIDES	LAVAL	QUEBEC	CANADA	H7L 3H7	
80753	PMT07	4933	PHARMETICS (2011) INC	DIN OWNER	Y	Y	Y	N		3695 AUTOROUTE DES LAURENTIDES	LAVAL	QUEBEC	CANADA	H7L 3H7	
80757	PMT07	4933	PHARMETICS (2011) INC	DIN OWNER	Y	Y	Y	N		3695 AUTOROUTE DES LAURENTIDES	LAVAL	QUEBEC	CANADA	H7L 3H7	
80765		16144	PEROXYCHEM LLC	DIN OWNER	Y	Y	Y			"2005 MARKET STREET, SUITE 3200"	PHILADELPHIA	PENNSYLVANIA	UNITED STATES	19103	
80766	PMT07	4933	PHARMETICS (2011) INC	DIN OWNER	Y	Y	Y	N		3695 AUTOROUTE DES LAURENTIDES	LAVAL	QUEBEC	CANADA	H7L 3H7	
80767	NBK35	4720	NORBROOK LABORATORIES LTD.	DIN OWNER	Y	N	N	N		"STATION WORKS, CAMLOUGH ROAD"	"NEWRY, COUNTY DOWN"	NORTHERN IRELAND	UNITED KINGDOM	BT35 6JP	
80768	PMT07	4933	PHARMETICS (2011) INC	DIN OWNER	Y	Y	Y	N		3695 AUTOROUTE DES LAURENTIDES	LAVAL	QUEBEC	CANADA	H7L 3H7	
80769	PMT07	4933	PHARMETICS (2011) INC	DIN OWNER	Y	Y	Y	N		3695 AUTOROUTE DES LAURENTIDES	LAVAL	QUEBEC	CANADA	H7L 3H7	
80770		13663	UMAN PHARMA INC	DIN OWNER	Y	Y	Y			"611 ROYALMOUNT AVE, SUITE 100"	MONTREAL	QUEBEC	CANADA	H4P 2T4	
80772	PMT07	4933	PHARMETICS (2011) INC	DIN OWNER	Y	Y	Y	N		3695 AUTOROUTE DES LAURENTIDES	LAVAL	QUEBEC	CANADA	H7L 3H7	
80787	PMT07	4933	PHARMETICS (2011) INC	DIN OWNER	Y	Y	Y	N		3695 AUTOROUTE DES LAURENTIDES	LAVAL	QUEBEC	CANADA	H7L 3H7	
80788	PMT07	4933	PHARMETICS (2011) INC	DIN OWNER	Y	Y	Y	N		3695 AUTOROUTE DES LAURENTIDES	LAVAL	QUEBEC	CANADA	H7L 3H7	
80789	PMT07	4933	PHARMETICS (2011) INC	DIN OWNER	Y	Y	Y	N		3695 AUTOROUTE DES LAURENTIDES	LAVAL	QUEBEC	CANADA	H7L 3H7	
80796		13252	SAFE HANDS INCORPORATED	DIN OWNER	Y	N	Y			103 FOSTER RD	DALTON	GEORGIA	UNITED STATES	30720	
80808		13930	MYLAN PHARMACEUTICALS ULC	DIN OWNER	Y	Y	Y			85 ADVANCE ROAD	ETOBICOKE	ONTARIO	CANADA	M8Z 2S6	
80813		13840	MISSION PRODUCT HOLDINGS INC	DIN OWNER	Y	Y	Y		12 FLOOR	185 MADISON AVENUE	NEW YORK	NEW YORK	UNITED STATES	10016	
80814		13840	MISSION PRODUCT HOLDINGS INC	DIN OWNER	Y	Y	Y		12 FLOOR	185 MADISON AVENUE	NEW YORK	NEW YORK	UNITED STATES	10016	
80817		13840	MISSION PRODUCT HOLDINGS INC	DIN OWNER	Y	Y	Y		12 FLOOR	185 MADISON AVENUE	NEW YORK	NEW YORK	UNITED STATES	10016	
80818		13840	MISSION PRODUCT HOLDINGS INC	DIN OWNER	Y	Y	Y		12 FLOOR	185 MADISON AVENUE	NEW YORK	NEW YORK	UNITED STATES	10016	
80819	CRI08	3962	CLASSICAL REMEDIA LTD	DIN OWNER	Y	Y	Y	N		412 DUNDAS STREET WEST	TORONTO	ONTARIO	CANADA	M5T 1G7	
80823	PMT07	4933	PHARMETICS (2011) INC	DIN OWNER	Y	Y	Y	N		3695 AUTOROUTE DES LAURENTIDES	LAVAL	QUEBEC	CANADA	H7L 3H7	
80839		10469	LABORATOIRE HRA PHARMA	DIN OWNER	Y	N	Y			15 RUE BÉRANGER	PARIS	PARIS	FRANCE	75003	
80848	LZI95	6236	LONZA INC.	DIN OWNER	Y	Y	N	N		90 BOROLINE ROAD	ALLENDALE	NEW JERSEY	UNITED STATES	7401	
80849		8641	PHARMACEUTICAL PARTNERS OF CANADA INC	DIN OWNER	Y	Y	Y	N		"45 VOGELL ROAD, SUITE 200"	RICHMOND HILL	ONTARIO	CANADA	L4B 3P6	
80861		10292	ORBUS PHARMA INC	DIN OWNER	Y	Y	Y			20 KONRAD CRESCENT	MARKHAM	ONTARIO	CANADA	L3R 8T4	
80862		10292	ORBUS PHARMA INC	DIN OWNER	Y	Y	Y			20 KONRAD CRESCENT	MARKHAM	ONTARIO	CANADA	L3R 8T4	
80863	JAS08	4406	S.C. JOHNSON AND SON LTD	DIN OWNER	Y	Y	Y	N		1 WEBSTER STREET	BRANTFORD	ONTARIO	CANADA	N3T 5R1	
80872		13727	BIOSAV INC - 9107 9640 QUEBEC INC	DIN OWNER	Y	Y	Y			14665 DU BOUSQUET	MIRABEL	QUEBEC	CANADA	J7N 3E5	
80873		13324	OHSO CLEAN INC	DIN OWNER	Y	Y	Y			755 SAMSOME STREET #300	SAN FRANCISCO	CALIFORNIA	UNITED STATES	94111	
80874		13324	OHSO CLEAN INC	DIN OWNER	Y	Y	Y			755 SAMSOME STREET #300	SAN FRANCISCO	CALIFORNIA	UNITED STATES	94111	
80885	SDQ95	6574	STEPAN COMPANY	DIN OWNER	Y	Y	N	N		22 W. FRONTAGE ROAD	NORTHFIELD	ILLINOIS	UNITED STATES	60093	
80886	SDQ95	6574	STEPAN COMPANY	DIN OWNER	Y	Y	N	N		22 W. FRONTAGE ROAD	NORTHFIELD	ILLINOIS	UNITED STATES	60093	
80888		13871	ZIMEK TECHNOLOGIES LLC	DIN OWNER	Y	Y	N			9328 FLORIDA PALM DRIVE	TAMPA	FLORIDA	UNITED STATES	33619	
80940		10774	BAYER INC	DIN OWNER	Y	N	Y	N		2920 MATHESON BLVD EAST	MISSISSAUGA	ONTARIO	CANADA	L4W 5R6	
80941		10774	BAYER INC	DIN OWNER	Y	N	Y	N		2920 MATHESON BLVD EAST	MISSISSAUGA	ONTARIO	CANADA	L4W 5R6	
80942		10774	BAYER INC	DIN OWNER	Y	N	Y	N		2920 MATHESON BLVD EAST	MISSISSAUGA	ONTARIO	CANADA	L4W 5R6	
80943	CIE95	3900	"CCA INDUSTRIES, INC."	DIN OWNER	Y	Y	Y	N		"65 CHALLENGER ROAD, SUITE 340"	RIDGEFIELD PARK	NEW JERSEY	UNITED STATES	7660	
80954		15772	ACTAVIS PHARMA COMPANY	DIN OWNER	Y	Y	Y			"6733 MISSISSAUGA ROAD, SUITE 400"	MISSISSAUGA	ONTARIO	CANADA	L5N 6J5	
80962		13032	ACCORD HEALTHCARE INC	DIN OWNER	Y	Y	Y			"3535 BOULEVARD ST-CHARLES, SUITE 704"	KIRKLAND	QUEBEC	CANADA	H9H 5B9	
80974	SOH08	5167	SOHAN CHEMICALS LTD	DIN OWNER	Y	Y	Y	N	UNIT 14	70 GIBSON DRIVE	MARKHAM	ONTARIO	CANADA	L3R 4C2	
80989		9408	THE CLOROX COMPANY	DIN OWNER	Y	N	N	N		1221 BROADWAY	OAKLAND	CALIFORNIA	UNITED STATES	94612-1888	
80992	PMT07	4933	PHARMETICS (2011) INC	DIN OWNER	Y	Y	Y	N		3695 AUTOROUTE DES LAURENTIDES	LAVAL	QUEBEC	CANADA	H7L 3H7	
81000	REK07	5010	RECKITT BENCKISER (CANADA) INC	DIN OWNER	Y	Y	Y	N	UNIT #2	1680 TECH AVENUE	MISSISSAUGA	ONTARIO	CANADA	L4W 5S9	
81008		7555	EURO-PHARM INTERNATIONAL CANADA INC	DIN OWNER	Y	Y	Y	N		9400  BOUL. LANGELIER	MONTREAL	QUEBEC	CANADA	H1P 3H8	
81023	PMT07	4933	PHARMETICS (2011) INC	DIN OWNER	Y	Y	Y	N		3695 AUTOROUTE DES LAURENTIDES	LAVAL	QUEBEC	CANADA	H7L 3H7	
81024	PMT07	4933	PHARMETICS (2011) INC	DIN OWNER	Y	Y	Y	N		3695 AUTOROUTE DES LAURENTIDES	LAVAL	QUEBEC	CANADA	H7L 3H7	
81035		13919	N.V. PERRICONE LLC	DIN OWNER	Y	Y	Y			639 RESEARCH PARKWAY	MERIDEN	CONNECTICUT	UNITED STATES	6450	
81047		12027	SANDOZ CANADA INCORPORATED	DIN OWNER	Y	Y	Y			145 JULES-LÉGER STREET	BOUCHERVILLE	QUEBEC	CANADA	J4B 7K8	
81097	RAX08	8892	STERIMAX INC	DIN OWNER	Y	Y	Y			2770 PORTLAND DRIVE	OAKVILLE	ONTARIO	CANADA	L6H 6R4	
81101		10577	CHIEF MEDICAL SUPPLIES LTD	DIN OWNER	Y	Y	Y			411-19 ST SE	CALGARY	ALBERTA	CANADA	T2E 6J7	
81135		13324	OHSO CLEAN INC	DIN OWNER	Y	Y	Y			755 SAMSOME STREET #300	SAN FRANCISCO	CALIFORNIA	UNITED STATES	94111	
81136		13324	OHSO CLEAN INC	DIN OWNER	Y	Y	Y			755 SAMSOME STREET #300	SAN FRANCISCO	CALIFORNIA	UNITED STATES	94111	
81143		14907	MARCAN PHARMACEUTICALS INC	DIN OWNER	Y	N	N		SUITE 4	77 AURIGA DRIVE	OTTAWA	ONTARIO	CANADA	K2E 7Z7	
81155		12861	ALVEDA PHARMACEUTICALS INC	DIN OWNER	Y	Y	Y		1500	10 KING STREET EAST	TORONTO	ONTARIO	CANADA	M5C 1C3	
81160		12027	SANDOZ CANADA INCORPORATED	DIN OWNER	Y	Y	Y			145 JULES-LÉGER STREET	BOUCHERVILLE	QUEBEC	CANADA	J4B 7K8	
81161		12027	SANDOZ CANADA INCORPORATED	DIN OWNER	Y	Y	Y			145 JULES-LÉGER STREET	BOUCHERVILLE	QUEBEC	CANADA	J4B 7K8	
81162		12027	SANDOZ CANADA INCORPORATED	DIN OWNER	Y	Y	Y			145 JULES-LÉGER STREET	BOUCHERVILLE	QUEBEC	CANADA	J4B 7K8	
81163		12027	SANDOZ CANADA INCORPORATED	DIN OWNER	Y	Y	Y			145 JULES-LÉGER STREET	BOUCHERVILLE	QUEBEC	CANADA	J4B 7K8	
81173		13080	ARROW OTC COMPANY	DIN OWNER	Y	Y	Y			6500 KITIMAT ROAD	MISSISSAUGA	ONTARIO	CANADA	L5N 2B8	
81174		13080	ARROW OTC COMPANY	DIN OWNER	Y	Y	Y			6500 KITIMAT ROAD	MISSISSAUGA	ONTARIO	CANADA	L5N 2B8	
81183	CIF08	3903	C.P. INDUSTRIES LTD	DIN OWNER	Y	Y	Y	N		535 DICKSON DRIVE	FERGUS	ONTARIO	CANADA	N1M 2W8	P.O. BOX 300
81196	PMS07	3550	PHARMASCIENCE INC	DIN OWNER	Y	Y	Y	N	100	"6111, ROYALMOUNT AVENUE"	MONTREAL	QUEBEC	CANADA	H4P 2T4	
81203		14318	TEVA CANADA LIMITED	DIN OWNER	Y	Y	N			30 NOVOPHARM COURT	TORONTO	ONTARIO	CANADA	M1B 2K9	
81219	PMT07	4933	PHARMETICS (2011) INC	DIN OWNER	Y	Y	Y	N		3695 AUTOROUTE DES LAURENTIDES	LAVAL	QUEBEC	CANADA	H7L 3H7	
81220	PMT07	4933	PHARMETICS (2011) INC	DIN OWNER	Y	Y	Y	N		3695 AUTOROUTE DES LAURENTIDES	LAVAL	QUEBEC	CANADA	H7L 3H7	
81221	PMT07	4933	PHARMETICS (2011) INC	DIN OWNER	Y	Y	Y	N		3695 AUTOROUTE DES LAURENTIDES	LAVAL	QUEBEC	CANADA	H7L 3H7	
81223	PMT07	4933	PHARMETICS (2011) INC	DIN OWNER	Y	Y	Y	N		3695 AUTOROUTE DES LAURENTIDES	LAVAL	QUEBEC	CANADA	H7L 3H7	
81256	APX08	3636	APOTEX INC	DIN OWNER	Y	Y	Y	N		150 SIGNET DRIVE	TORONTO	ONTARIO	CANADA	M9L 1T9	
81257		7950	G&W LABORATORIES INC.	DIN OWNER	Y	Y	N			111 COOLIDGE ST.	SOUTH PLAINFIELD	NEW JERSEY	UNITED STATES	07080-3895	
81269		9859	PRIME ENTERPRISES INC	DIN OWNER	Y	Y	N			16363 NW 49TH AVE.	MIAMI LAKES	FLORIDA	UNITED STATES	33014-6316	
81304		12027	SANDOZ CANADA INCORPORATED	DIN OWNER	Y	Y	Y			145 JULES-LÉGER STREET	BOUCHERVILLE	QUEBEC	CANADA	J4B 7K8	
81314		14691	JUBILANT DRAXIMAGE INC	DIN OWNER	Y	Y	Y			16751 TRANS CANADA HWY	KIRKLAND	QUEBEC	CANADA	H9H 4J4	
81315		13994	ALBERTA HEALTH SERVICES	DIN OWNER	Y	Y	N		1500 SUN LIFE PLACE	10123-99 STREET	EDMONTON	ALBERTA	CANADA	T5J 3H1	
81316		13433	LANTHEUS MI CANADA INC	DIN OWNER	Y	Y	Y			"1111 DR. FREDERIK-PHILIPS BLVD., SUITE 600"	MONTREAL	QUEBEC	CANADA	H4M 2X6	
81328		17006	MALLINCKRODT RP CANADA INC	DIN OWNER	Y	Y	Y			"3333 BOULEVEARD COTE-VERTU, SUITE 202"	SAINT LAURENT	QUEBEC	CANADA	H4R 2N1	
81329		13433	LANTHEUS MI CANADA INC	DIN OWNER	Y	Y	Y			"1111 DR. FREDERIK-PHILIPS BLVD., SUITE 600"	MONTREAL	QUEBEC	CANADA	H4M 2X6	
81334		13433	LANTHEUS MI CANADA INC	DIN OWNER	Y	Y	Y			"1111 DR. FREDERIK-PHILIPS BLVD., SUITE 600"	MONTREAL	QUEBEC	CANADA	H4M 2X6	
81336		14691	JUBILANT DRAXIMAGE INC	DIN OWNER	Y	Y	Y			16751 TRANS CANADA HWY	KIRKLAND	QUEBEC	CANADA	H9H 4J4	
81338		13433	LANTHEUS MI CANADA INC	DIN OWNER	Y	Y	Y			"1111 DR. FREDERIK-PHILIPS BLVD., SUITE 600"	MONTREAL	QUEBEC	CANADA	H4M 2X6	
81339		13433	LANTHEUS MI CANADA INC	DIN OWNER	Y	Y	Y			"1111 DR. FREDERIK-PHILIPS BLVD., SUITE 600"	MONTREAL	QUEBEC	CANADA	H4M 2X6	
81342		13433	LANTHEUS MI CANADA INC	DIN OWNER	Y	Y	Y			"1111 DR. FREDERIK-PHILIPS BLVD., SUITE 600"	MONTREAL	QUEBEC	CANADA	H4M 2X6	
81343		12299	MARKWINS BEAUTY PRODUCTS INC	DIN OWNER	Y	Y	Y			"267 MATHESON BLVD EAST, UNIT 1"	MISSISSAUGA	ONTARIO	CANADA	L4Z 1X8	
81344		13433	LANTHEUS MI CANADA INC	DIN OWNER	Y	Y	Y			"1111 DR. FREDERIK-PHILIPS BLVD., SUITE 600"	MONTREAL	QUEBEC	CANADA	H4M 2X6	
81346		13433	LANTHEUS MI CANADA INC	DIN OWNER	Y	Y	Y			"1111 DR. FREDERIK-PHILIPS BLVD., SUITE 600"	MONTREAL	QUEBEC	CANADA	H4M 2X6	
81349		13433	LANTHEUS MI CANADA INC	DIN OWNER	Y	Y	Y			"1111 DR. FREDERIK-PHILIPS BLVD., SUITE 600"	MONTREAL	QUEBEC	CANADA	H4M 2X6	
81407		13433	LANTHEUS MI CANADA INC	DIN OWNER	Y	Y	Y			"1111 DR. FREDERIK-PHILIPS BLVD., SUITE 600"	MONTREAL	QUEBEC	CANADA	H4M 2X6	
81408		13433	LANTHEUS MI CANADA INC	DIN OWNER	Y	Y	Y			"1111 DR. FREDERIK-PHILIPS BLVD., SUITE 600"	MONTREAL	QUEBEC	CANADA	H4M 2X6	
81409		13433	LANTHEUS MI CANADA INC	DIN OWNER	Y	Y	Y			"1111 DR. FREDERIK-PHILIPS BLVD., SUITE 600"	MONTREAL	QUEBEC	CANADA	H4M 2X6	
81412	PFI07	4908	PFIZER CANADA INC	DIN OWNER	Y	Y	Y	N		17300 TRANS-CANADA HIGHWAY	KIRKLAND	QUEBEC	CANADA	H9J 2M5	
81418	SEV07	5096	SERVIER CANADA INC	DIN OWNER	Y	N	N	N		235 BOUL. ARMAND-FRAPPIER  - PARC SCIENTIF. ET DE HAUTE TECH. DE LAVAL	LAVAL	QUEBEC	CANADA	H7V 4A7	
81433		11642	HOSPIRA HEALTHCARE CORPORATION	DIN OWNER	Y	Y	Y			17300 TRANS-CANADA HIGHWAY	KIRKLAND	QUEBEC	CANADA	H9J 2M5	
81437		16133	ISOLOGIC INNOVATIVE RADIOPHARMACEUTICALS LTD.	DIN OWNER	Y	N	Y			1855 32ND AVENUE	LACHINE	QUEBEC	CANADA	H8T 3J1	
81438	BQC07	3798	BRISTOL-MYERS SQUIBB CANADA	DIN OWNER	Y	Y	Y	N		"2344 BOUL. ALFRED-NOBEL, SUITE 300"	MONTRÉAL (ST-LAURENT)	QUEBEC	CANADA	H4S 0A4	
81439		12573	GE HEALTHCARE CANADA INC	DIN OWNER	Y	Y	Y			2300 MEADOWVALE BLVD	MISSISSAUGA	ONTARIO	CANADA	L5N 5P9	
81441		14510	CENTRE FOR PROBE DEVELOPMENT AND COMMERCIALIZATION	DIN OWNER	Y	N	Y		A303	"1280 MAIN STREET WEST, NUCLEAR RESEARCH BUILDING ANNEX"	HAMILTON	ONTARIO	CANADA	L8S 4K1	
81442		12573	GE HEALTHCARE CANADA INC	DIN OWNER	Y	Y	Y			2300 MEADOWVALE BLVD	MISSISSAUGA	ONTARIO	CANADA	L5N 5P9	
81447		8927	MASON CHEMICAL COMPANY	DIN OWNER	Y	Y	N	N		"723 WEST ALGONQUIN ROAD, SUITE B"	ARLINGTON HEIGHTS	ILLINOIS	UNITED STATES	60005	
81455		13840	MISSION PRODUCT HOLDINGS INC	DIN OWNER	Y	Y	Y		12 FLOOR	185 MADISON AVENUE	NEW YORK	NEW YORK	UNITED STATES	10016	
81458		14457	MEDIAM	DIN OWNER	Y	Y	Y			85 RUE NELSON MANDELA	LOOS	SAONE ET LOIRE	FRANCE	59120	
81459		17006	MALLINCKRODT RP CANADA INC	DIN OWNER	Y	Y	Y			"3333 BOULEVEARD COTE-VERTU, SUITE 202"	SAINT LAURENT	QUEBEC	CANADA	H4R 2N1	
81460		12573	GE HEALTHCARE CANADA INC	DIN OWNER	Y	Y	Y			2300 MEADOWVALE BLVD	MISSISSAUGA	ONTARIO	CANADA	L5N 5P9	
81461		12766	IPET PHARMACEUTICALS INC.	DIN OWNER	Y	Y	Y		880	1090 WEST GEORGIA	VANCOUVER	BRITISH COLUMBIA	CANADA	V6E 3V7	
81462		12573	GE HEALTHCARE CANADA INC	DIN OWNER	Y	Y	Y			2300 MEADOWVALE BLVD	MISSISSAUGA	ONTARIO	CANADA	L5N 5P9	
81463		12573	GE HEALTHCARE CANADA INC	DIN OWNER	Y	Y	Y			2300 MEADOWVALE BLVD	MISSISSAUGA	ONTARIO	CANADA	L5N 5P9	
81464		12573	GE HEALTHCARE CANADA INC	DIN OWNER	Y	Y	Y			2300 MEADOWVALE BLVD	MISSISSAUGA	ONTARIO	CANADA	L5N 5P9	
81467		12573	GE HEALTHCARE CANADA INC	DIN OWNER	Y	Y	Y			2300 MEADOWVALE BLVD	MISSISSAUGA	ONTARIO	CANADA	L5N 5P9	
81468		12573	GE HEALTHCARE CANADA INC	DIN OWNER	Y	Y	Y			2300 MEADOWVALE BLVD	MISSISSAUGA	ONTARIO	CANADA	L5N 5P9	
81469		12573	GE HEALTHCARE CANADA INC	DIN OWNER	Y	Y	Y			2300 MEADOWVALE BLVD	MISSISSAUGA	ONTARIO	CANADA	L5N 5P9	
81473		12573	GE HEALTHCARE CANADA INC	DIN OWNER	Y	Y	Y			2300 MEADOWVALE BLVD	MISSISSAUGA	ONTARIO	CANADA	L5N 5P9	
81474		12573	GE HEALTHCARE CANADA INC	DIN OWNER	Y	Y	Y			2300 MEADOWVALE BLVD	MISSISSAUGA	ONTARIO	CANADA	L5N 5P9	
81477		12573	GE HEALTHCARE CANADA INC	DIN OWNER	Y	Y	Y			2300 MEADOWVALE BLVD	MISSISSAUGA	ONTARIO	CANADA	L5N 5P9	
81478		12573	GE HEALTHCARE CANADA INC	DIN OWNER	Y	Y	Y			2300 MEADOWVALE BLVD	MISSISSAUGA	ONTARIO	CANADA	L5N 5P9	
81479		12573	GE HEALTHCARE CANADA INC	DIN OWNER	Y	Y	Y			2300 MEADOWVALE BLVD	MISSISSAUGA	ONTARIO	CANADA	L5N 5P9	
81480		12573	GE HEALTHCARE CANADA INC	DIN OWNER	Y	Y	Y			2300 MEADOWVALE BLVD	MISSISSAUGA	ONTARIO	CANADA	L5N 5P9	
81481		14457	MEDIAM	DIN OWNER	Y	Y	Y			85 RUE NELSON MANDELA	LOOS	SAONE ET LOIRE	FRANCE	59120	
81482		7462	"MDS NORDION, A DIVISION OF MDS (CANADA) INC."	DIN OWNER	Y	Y	N			447 MARCH RD.	OTTAWA	ONTARIO	CANADA	K2K 1X8	
81492		14691	JUBILANT DRAXIMAGE INC	DIN OWNER	Y	Y	Y			16751 TRANS CANADA HWY	KIRKLAND	QUEBEC	CANADA	H9H 4J4	
81494		9224	IMMUNOMEDICS INC	DIN OWNER	Y	Y	Y			300 AMERICAN RD	MORRIS PLAINS	NEW JERSEY	UNITED STATES	7950	
81495	BEW08	6996	BRACCO IMAGING CANADA	DIN OWNER	Y	Y	Y	N		11065 BOUL. L-H LAFONTAINE	VILLE D'ANJOU	QUEBEC	CANADA	H1J 2Z4	
81497		17006	MALLINCKRODT RP CANADA INC	DIN OWNER	Y	Y	Y			"3333 BOULEVEARD COTE-VERTU, SUITE 202"	SAINT LAURENT	QUEBEC	CANADA	H4R 2N1	
81499		17006	MALLINCKRODT RP CANADA INC	DIN OWNER	Y	Y	Y			"3333 BOULEVEARD COTE-VERTU, SUITE 202"	SAINT LAURENT	QUEBEC	CANADA	H4R 2N1	
81500		15426	MALLINCKRODT CANADA ULC	DIN OWNER	Y	Y	Y			"6500 TRANS CANADA HIGHWAY, SUITE 400"	POINTE CLAIRE	QUEBEC	CANADA	H9R 0A5	
81501		8287	TYCO HEALTHCARE	DIN OWNER	Y	Y	Y			7500 TRANS CANADA HIGHWAY	POINTE-CLAIRE	QUEBEC	CANADA	H9R 5H8	
81508		17006	MALLINCKRODT RP CANADA INC	DIN OWNER	Y	Y	Y			"3333 BOULEVEARD COTE-VERTU, SUITE 202"	SAINT LAURENT	QUEBEC	CANADA	H4R 2N1	
81509		15426	MALLINCKRODT CANADA ULC	DIN OWNER	Y	Y	Y			"6500 TRANS CANADA HIGHWAY, SUITE 400"	POINTE CLAIRE	QUEBEC	CANADA	H9R 0A5	
81510		15426	MALLINCKRODT CANADA ULC	DIN OWNER	Y	Y	Y			"6500 TRANS CANADA HIGHWAY, SUITE 400"	POINTE CLAIRE	QUEBEC	CANADA	H9R 0A5	
81511		15426	MALLINCKRODT CANADA ULC	DIN OWNER	Y	Y	Y			"6500 TRANS CANADA HIGHWAY, SUITE 400"	POINTE CLAIRE	QUEBEC	CANADA	H9R 0A5	
81512		15426	MALLINCKRODT CANADA ULC	DIN OWNER	Y	Y	Y			"6500 TRANS CANADA HIGHWAY, SUITE 400"	POINTE CLAIRE	QUEBEC	CANADA	H9R 0A5	
81513		15426	MALLINCKRODT CANADA ULC	DIN OWNER	Y	Y	Y			"6500 TRANS CANADA HIGHWAY, SUITE 400"	POINTE CLAIRE	QUEBEC	CANADA	H9R 0A5	
81514		15426	MALLINCKRODT CANADA ULC	DIN OWNER	Y	Y	Y			"6500 TRANS CANADA HIGHWAY, SUITE 400"	POINTE CLAIRE	QUEBEC	CANADA	H9R 0A5	
81515		14691	JUBILANT DRAXIMAGE INC	DIN OWNER	Y	Y	Y			16751 TRANS CANADA HWY	KIRKLAND	QUEBEC	CANADA	H9H 4J4	
81516		14691	JUBILANT DRAXIMAGE INC	DIN OWNER	Y	Y	Y			16751 TRANS CANADA HWY	KIRKLAND	QUEBEC	CANADA	H9H 4J4	
81519		8287	TYCO HEALTHCARE	DIN OWNER	Y	Y	Y			7500 TRANS CANADA HIGHWAY	POINTE-CLAIRE	QUEBEC	CANADA	H9R 5H8	
81520		17006	MALLINCKRODT RP CANADA INC	DIN OWNER	Y	Y	Y			"3333 BOULEVEARD COTE-VERTU, SUITE 202"	SAINT LAURENT	QUEBEC	CANADA	H4R 2N1	
81521		8287	TYCO HEALTHCARE	DIN OWNER	Y	Y	Y			7500 TRANS CANADA HIGHWAY	POINTE-CLAIRE	QUEBEC	CANADA	H9R 5H8	
81522		17006	MALLINCKRODT RP CANADA INC	DIN OWNER	Y	Y	Y			"3333 BOULEVEARD COTE-VERTU, SUITE 202"	SAINT LAURENT	QUEBEC	CANADA	H4R 2N1	
81523		17006	MALLINCKRODT RP CANADA INC	DIN OWNER	Y	Y	Y			"3333 BOULEVEARD COTE-VERTU, SUITE 202"	SAINT LAURENT	QUEBEC	CANADA	H4R 2N1	
81524		17006	MALLINCKRODT RP CANADA INC	DIN OWNER	Y	Y	Y			"3333 BOULEVEARD COTE-VERTU, SUITE 202"	SAINT LAURENT	QUEBEC	CANADA	H4R 2N1	
81525		17006	MALLINCKRODT RP CANADA INC	DIN OWNER	Y	Y	Y			"3333 BOULEVEARD COTE-VERTU, SUITE 202"	SAINT LAURENT	QUEBEC	CANADA	H4R 2N1	
81526		17006	MALLINCKRODT RP CANADA INC	DIN OWNER	Y	Y	Y			"3333 BOULEVEARD COTE-VERTU, SUITE 202"	SAINT LAURENT	QUEBEC	CANADA	H4R 2N1	
81527		17006	MALLINCKRODT RP CANADA INC	DIN OWNER	Y	Y	Y			"3333 BOULEVEARD COTE-VERTU, SUITE 202"	SAINT LAURENT	QUEBEC	CANADA	H4R 2N1	
81528		17006	MALLINCKRODT RP CANADA INC	DIN OWNER	Y	Y	Y			"3333 BOULEVEARD COTE-VERTU, SUITE 202"	SAINT LAURENT	QUEBEC	CANADA	H4R 2N1	
81529		17006	MALLINCKRODT RP CANADA INC	DIN OWNER	Y	Y	Y			"3333 BOULEVEARD COTE-VERTU, SUITE 202"	SAINT LAURENT	QUEBEC	CANADA	H4R 2N1	
81530		17006	MALLINCKRODT RP CANADA INC	DIN OWNER	Y	Y	Y			"3333 BOULEVEARD COTE-VERTU, SUITE 202"	SAINT LAURENT	QUEBEC	CANADA	H4R 2N1	
81531		17006	MALLINCKRODT RP CANADA INC	DIN OWNER	Y	Y	Y			"3333 BOULEVEARD COTE-VERTU, SUITE 202"	SAINT LAURENT	QUEBEC	CANADA	H4R 2N1	
81532		17006	MALLINCKRODT RP CANADA INC	DIN OWNER	Y	Y	Y			"3333 BOULEVEARD COTE-VERTU, SUITE 202"	SAINT LAURENT	QUEBEC	CANADA	H4R 2N1	
81533		17006	MALLINCKRODT RP CANADA INC	DIN OWNER	Y	Y	Y			"3333 BOULEVEARD COTE-VERTU, SUITE 202"	SAINT LAURENT	QUEBEC	CANADA	H4R 2N1	
81534		17006	MALLINCKRODT RP CANADA INC	DIN OWNER	Y	Y	Y			"3333 BOULEVEARD COTE-VERTU, SUITE 202"	SAINT LAURENT	QUEBEC	CANADA	H4R 2N1	
81535		17006	MALLINCKRODT RP CANADA INC	DIN OWNER	Y	Y	Y			"3333 BOULEVEARD COTE-VERTU, SUITE 202"	SAINT LAURENT	QUEBEC	CANADA	H4R 2N1	
81536		17006	MALLINCKRODT RP CANADA INC	DIN OWNER	Y	Y	Y			"3333 BOULEVEARD COTE-VERTU, SUITE 202"	SAINT LAURENT	QUEBEC	CANADA	H4R 2N1	
81537		17006	MALLINCKRODT RP CANADA INC	DIN OWNER	Y	Y	Y			"3333 BOULEVEARD COTE-VERTU, SUITE 202"	SAINT LAURENT	QUEBEC	CANADA	H4R 2N1	
81538		17006	MALLINCKRODT RP CANADA INC	DIN OWNER	Y	Y	Y			"3333 BOULEVEARD COTE-VERTU, SUITE 202"	SAINT LAURENT	QUEBEC	CANADA	H4R 2N1	
81539		17006	MALLINCKRODT RP CANADA INC	DIN OWNER	Y	Y	Y			"3333 BOULEVEARD COTE-VERTU, SUITE 202"	SAINT LAURENT	QUEBEC	CANADA	H4R 2N1	
81540		15426	MALLINCKRODT CANADA ULC	DIN OWNER	Y	Y	Y			"6500 TRANS CANADA HIGHWAY, SUITE 400"	POINTE CLAIRE	QUEBEC	CANADA	H9R 0A5	
81541		17006	MALLINCKRODT RP CANADA INC	DIN OWNER	Y	Y	Y			"3333 BOULEVEARD COTE-VERTU, SUITE 202"	SAINT LAURENT	QUEBEC	CANADA	H4R 2N1	
81542		17006	MALLINCKRODT RP CANADA INC	DIN OWNER	Y	Y	Y			"3333 BOULEVEARD COTE-VERTU, SUITE 202"	SAINT LAURENT	QUEBEC	CANADA	H4R 2N1	
81543		9565	DRAXIMAGE A DIVISION OF DRAXIS SPECIALTY PHARMACEUTICALS INC	DIN OWNER	Y	Y	Y			16751 TRANS CANADA HWY	KIRKLAND	QUEBEC	CANADA	H9H 4J4	
81544		14691	JUBILANT DRAXIMAGE INC	DIN OWNER	Y	Y	Y			16751 TRANS CANADA HWY	KIRKLAND	QUEBEC	CANADA	H9H 4J4	
81545		14506	EUSA PHARMA INC	DIN OWNER	Y	Y	Y		SUITE 201	"ONE SUMMIT SQUARE, 1717 LANGHORNE NEWTONN RD"	LANGHORNE	PENNSYLVANIA	UNITED STATES	19047	
81546		14691	JUBILANT DRAXIMAGE INC	DIN OWNER	Y	Y	Y			16751 TRANS CANADA HWY	KIRKLAND	QUEBEC	CANADA	H9H 4J4	
81547		14691	JUBILANT DRAXIMAGE INC	DIN OWNER	Y	Y	Y			16751 TRANS CANADA HWY	KIRKLAND	QUEBEC	CANADA	H9H 4J4	
81548		14691	JUBILANT DRAXIMAGE INC	DIN OWNER	Y	Y	Y			16751 TRANS CANADA HWY	KIRKLAND	QUEBEC	CANADA	H9H 4J4	
81549		14691	JUBILANT DRAXIMAGE INC	DIN OWNER	Y	Y	Y			16751 TRANS CANADA HWY	KIRKLAND	QUEBEC	CANADA	H9H 4J4	
81550		17006	MALLINCKRODT RP CANADA INC	DIN OWNER	Y	Y	Y			"3333 BOULEVEARD COTE-VERTU, SUITE 202"	SAINT LAURENT	QUEBEC	CANADA	H4R 2N1	
81551	BQC07	3798	BRISTOL-MYERS SQUIBB CANADA	DIN OWNER	Y	Y	Y	N		"2344 BOUL. ALFRED-NOBEL, SUITE 300"	MONTRÉAL (ST-LAURENT)	QUEBEC	CANADA	H4S 0A4	
81552	BQC07	3798	BRISTOL-MYERS SQUIBB CANADA	DIN OWNER	Y	Y	Y	N		"2344 BOUL. ALFRED-NOBEL, SUITE 300"	MONTRÉAL (ST-LAURENT)	QUEBEC	CANADA	H4S 0A4	
81555	BQC07	3798	BRISTOL-MYERS SQUIBB CANADA	DIN OWNER	Y	Y	Y	N		"2344 BOUL. ALFRED-NOBEL, SUITE 300"	MONTRÉAL (ST-LAURENT)	QUEBEC	CANADA	H4S 0A4	
81556	BEW08	6996	BRACCO IMAGING CANADA	DIN OWNER	Y	Y	Y	N		11065 BOUL. L-H LAFONTAINE	VILLE D'ANJOU	QUEBEC	CANADA	H1J 2Z4	
81559		9224	IMMUNOMEDICS INC	DIN OWNER	Y	Y	Y			300 AMERICAN RD	MORRIS PLAINS	NEW JERSEY	UNITED STATES	7950	
81561	SGQ07	5108	LABORATOIRES STERIGEN INC	DIN OWNER	Y	Y	N	N		242 ST-CYRILLE OUEST	UPTON	QUEBEC	CANADA	J0H 2E0	
81563	SGQ07	5108	LABORATOIRES STERIGEN INC	DIN OWNER	Y	Y	N	N		242 ST-CYRILLE OUEST	UPTON	QUEBEC	CANADA	J0H 2E0	
81565		7119	COTY CANADA INC.	DIN OWNER	Y	Y	N	N	200	1255 TRANS CANADA HWY	DORVAL	QUEBEC	CANADA	H9P 2V4	185
81575		16163	SUPERNA LIFE SCIENCES INCORPORATED	DIN OWNER	Y	Y	Y			"1500 WEST GEORGIA ST, SUITE 1300"	VANCOUVER	BRITISH COLUMBIA	CANADA	V6G 2Z6	
81583		12573	GE HEALTHCARE CANADA INC	DIN OWNER	Y	Y	Y			2300 MEADOWVALE BLVD	MISSISSAUGA	ONTARIO	CANADA	L5N 5P9	
81617	JPC10	4415	JAMP PHARMA CORPORATION	DIN OWNER	Y	Y	Y	N		1310 RUE NOBEL	BOUCHERVILLE	QUEBEC	CANADA	J4B 5H3	
81629		13049	4410602 CANADA INC	DIN OWNER	Y	Y	Y			"300 SOUTH EGDEWARE, UNIT 205"	ST THOMAS	ONTARIO	CANADA	N5P 4L1	
81630		14318	TEVA CANADA LIMITED	DIN OWNER	Y	Y	N			30 NOVOPHARM COURT	TORONTO	ONTARIO	CANADA	M1B 2K9	
81631	WEC10	5403	WESCLEAN EQUIPMENT AND CLEANING SUPPLIES LTD.	DIN OWNER	Y	Y	Y	N		11450 -149TH STREET	EDMONTON	ALBERTA	CANADA	T5M 1W7	
81647		11656	PENDOPHARM DIVISION OF DE PHARMASCIENCE INC	DIN OWNER	Y	Y	Y		SUITE 100	"6111, AVENUE ROYALMOUNT"	MONTREAL	QUEBEC	CANADA	H4P 2T4	
81652		13840	MISSION PRODUCT HOLDINGS INC	DIN OWNER	Y	Y	Y		12 FLOOR	185 MADISON AVENUE	NEW YORK	NEW YORK	UNITED STATES	10016	
81658		13840	MISSION PRODUCT HOLDINGS INC	DIN OWNER	Y	Y	Y		12 FLOOR	185 MADISON AVENUE	NEW YORK	NEW YORK	UNITED STATES	10016	
81659		13840	MISSION PRODUCT HOLDINGS INC	DIN OWNER	Y	Y	Y		12 FLOOR	185 MADISON AVENUE	NEW YORK	NEW YORK	UNITED STATES	10016	
81665	PHH07	4917	PHARMEL INC	DIN OWNER	Y	Y	Y	N		"6111, AVENUE ROYALMOUNT, SUITE 100"	MONTREAL	QUEBEC	CANADA	H4P 2T4	
81667	PHH07	4917	PHARMEL INC	DIN OWNER	Y	Y	Y	N		"6111, AVENUE ROYALMOUNT, SUITE 100"	MONTREAL	QUEBEC	CANADA	H4P 2T4	
81668	PHH07	4917	PHARMEL INC	DIN OWNER	Y	Y	Y	N		"6111, AVENUE ROYALMOUNT, SUITE 100"	MONTREAL	QUEBEC	CANADA	H4P 2T4	
81687	DPC07	4065	DOMINION PHARMACAL	DIN OWNER	Y	Y	Y	N	SUITE 100	"6111, AVENUE ROYALMOUNT"	MONTREAL	QUEBEC	CANADA	H4P 2T4	
81688	DPC07	4065	DOMINION PHARMACAL	DIN OWNER	Y	Y	Y	N	SUITE 100	"6111, AVENUE ROYALMOUNT"	MONTREAL	QUEBEC	CANADA	H4P 2T4	
81689	DPC07	4065	DOMINION PHARMACAL	DIN OWNER	Y	Y	Y	N	SUITE 100	"6111, AVENUE ROYALMOUNT"	MONTREAL	QUEBEC	CANADA	H4P 2T4	
81690	DPC07	4065	DOMINION PHARMACAL	DIN OWNER	Y	Y	Y	N	SUITE 100	"6111, AVENUE ROYALMOUNT"	MONTREAL	QUEBEC	CANADA	H4P 2T4	
81691	DPC07	4065	DOMINION PHARMACAL	DIN OWNER	Y	Y	Y	N	SUITE 100	"6111, AVENUE ROYALMOUNT"	MONTREAL	QUEBEC	CANADA	H4P 2T4	
81692	PHH07	4917	PHARMEL INC	DIN OWNER	Y	Y	Y	N		"6111, AVENUE ROYALMOUNT, SUITE 100"	MONTREAL	QUEBEC	CANADA	H4P 2T4	
81693	PHH07	4917	PHARMEL INC	DIN OWNER	Y	Y	Y	N		"6111, AVENUE ROYALMOUNT, SUITE 100"	MONTREAL	QUEBEC	CANADA	H4P 2T4	
81694	PHH07	4917	PHARMEL INC	DIN OWNER	Y	Y	Y	N		"6111, AVENUE ROYALMOUNT, SUITE 100"	MONTREAL	QUEBEC	CANADA	H4P 2T4	
81695	PHH07	4917	PHARMEL INC	DIN OWNER	Y	Y	Y	N		"6111, AVENUE ROYALMOUNT, SUITE 100"	MONTREAL	QUEBEC	CANADA	H4P 2T4	
81696	PHH07	4917	PHARMEL INC	DIN OWNER	Y	Y	Y	N		"6111, AVENUE ROYALMOUNT, SUITE 100"	MONTREAL	QUEBEC	CANADA	H4P 2T4	
81713		10942	MERCER GROUP LTD/CHILDRENS HEALTHCARE RESEARCH GROUP	DIN OWNER	Y	Y	Y			254 HORNBINE RD	REHOBOTH	MASSACHUSETTS	UNITED STATES	2769	
81741		12027	SANDOZ CANADA INCORPORATED	DIN OWNER	Y	Y	Y			145 JULES-LÉGER STREET	BOUCHERVILLE	QUEBEC	CANADA	J4B 7K8	
81744	OBT08	10028	COBALT PHARMACEUTICALS COMPANY	DIN OWNER	Y	Y	N			"6733 MISSISSAUGA ROAD, SUITE 400"	MISSISSAUGA	ONTARIO	CANADA	L5N 6J5	
81746		12027	SANDOZ CANADA INCORPORATED	DIN OWNER	Y	Y	Y			145 JULES-LÉGER STREET	BOUCHERVILLE	QUEBEC	CANADA	J4B 7K8	
81747		12027	SANDOZ CANADA INCORPORATED	DIN OWNER	Y	Y	Y			145 JULES-LÉGER STREET	BOUCHERVILLE	QUEBEC	CANADA	J4B 7K8	
81752	DPC07	4065	DOMINION PHARMACAL	DIN OWNER	Y	Y	Y	N	SUITE 100	"6111, AVENUE ROYALMOUNT"	MONTREAL	QUEBEC	CANADA	H4P 2T4	
81761		11271	RANBAXY PHARMACEUTICALS CANADA INC.	DIN OWNER	Y	Y	Y			126 EAST DRIVE	BRAMPTON	ONTARIO	CANADA	L6T 1C1	
81762		11271	RANBAXY PHARMACEUTICALS CANADA INC.	DIN OWNER	Y	Y	Y			126 EAST DRIVE	BRAMPTON	ONTARIO	CANADA	L6T 1C1	
81763		11271	RANBAXY PHARMACEUTICALS CANADA INC.	DIN OWNER	Y	Y	Y			126 EAST DRIVE	BRAMPTON	ONTARIO	CANADA	L6T 1C1	
81764		11271	RANBAXY PHARMACEUTICALS CANADA INC.	DIN OWNER	Y	Y	Y			126 EAST DRIVE	BRAMPTON	ONTARIO	CANADA	L6T 1C1	
81765		11271	RANBAXY PHARMACEUTICALS CANADA INC.	DIN OWNER	Y	Y	Y			126 EAST DRIVE	BRAMPTON	ONTARIO	CANADA	L6T 1C1	
81766		11271	RANBAXY PHARMACEUTICALS CANADA INC.	DIN OWNER	Y	Y	Y			126 EAST DRIVE	BRAMPTON	ONTARIO	CANADA	L6T 1C1	
81767		11271	RANBAXY PHARMACEUTICALS CANADA INC.	DIN OWNER	Y	Y	Y			126 EAST DRIVE	BRAMPTON	ONTARIO	CANADA	L6T 1C1	
81768		11271	RANBAXY PHARMACEUTICALS CANADA INC.	DIN OWNER	Y	Y	Y			126 EAST DRIVE	BRAMPTON	ONTARIO	CANADA	L6T 1C1	
81769		11271	RANBAXY PHARMACEUTICALS CANADA INC.	DIN OWNER	Y	Y	Y			126 EAST DRIVE	BRAMPTON	ONTARIO	CANADA	L6T 1C1	
81770		11271	RANBAXY PHARMACEUTICALS CANADA INC.	DIN OWNER	Y	Y	Y			126 EAST DRIVE	BRAMPTON	ONTARIO	CANADA	L6T 1C1	
81771		11271	RANBAXY PHARMACEUTICALS CANADA INC.	DIN OWNER	Y	Y	Y			126 EAST DRIVE	BRAMPTON	ONTARIO	CANADA	L6T 1C1	
81772		11271	RANBAXY PHARMACEUTICALS CANADA INC.	DIN OWNER	Y	Y	Y			126 EAST DRIVE	BRAMPTON	ONTARIO	CANADA	L6T 1C1	
81773		11271	RANBAXY PHARMACEUTICALS CANADA INC.	DIN OWNER	Y	Y	Y			126 EAST DRIVE	BRAMPTON	ONTARIO	CANADA	L6T 1C1	
81774		11271	RANBAXY PHARMACEUTICALS CANADA INC.	DIN OWNER	Y	Y	Y			126 EAST DRIVE	BRAMPTON	ONTARIO	CANADA	L6T 1C1	
81775		11271	RANBAXY PHARMACEUTICALS CANADA INC.	DIN OWNER	Y	Y	Y			126 EAST DRIVE	BRAMPTON	ONTARIO	CANADA	L6T 1C1	
81776		11271	RANBAXY PHARMACEUTICALS CANADA INC.	DIN OWNER	Y	Y	Y			126 EAST DRIVE	BRAMPTON	ONTARIO	CANADA	L6T 1C1	
81777		11271	RANBAXY PHARMACEUTICALS CANADA INC.	DIN OWNER	Y	Y	Y			126 EAST DRIVE	BRAMPTON	ONTARIO	CANADA	L6T 1C1	
81778		11271	RANBAXY PHARMACEUTICALS CANADA INC.	DIN OWNER	Y	Y	Y			126 EAST DRIVE	BRAMPTON	ONTARIO	CANADA	L6T 1C1	
81780		11271	RANBAXY PHARMACEUTICALS CANADA INC.	DIN OWNER	Y	Y	Y			126 EAST DRIVE	BRAMPTON	ONTARIO	CANADA	L6T 1C1	
81781		11271	RANBAXY PHARMACEUTICALS CANADA INC.	DIN OWNER	Y	Y	Y			126 EAST DRIVE	BRAMPTON	ONTARIO	CANADA	L6T 1C1	
81782		11271	RANBAXY PHARMACEUTICALS CANADA INC.	DIN OWNER	Y	Y	Y			126 EAST DRIVE	BRAMPTON	ONTARIO	CANADA	L6T 1C1	
81783		11271	RANBAXY PHARMACEUTICALS CANADA INC.	DIN OWNER	Y	Y	Y			126 EAST DRIVE	BRAMPTON	ONTARIO	CANADA	L6T 1C1	
81784		11271	RANBAXY PHARMACEUTICALS CANADA INC.	DIN OWNER	Y	Y	Y			126 EAST DRIVE	BRAMPTON	ONTARIO	CANADA	L6T 1C1	
81785		11271	RANBAXY PHARMACEUTICALS CANADA INC.	DIN OWNER	Y	Y	Y			126 EAST DRIVE	BRAMPTON	ONTARIO	CANADA	L6T 1C1	
81786		11271	RANBAXY PHARMACEUTICALS CANADA INC.	DIN OWNER	Y	Y	Y			126 EAST DRIVE	BRAMPTON	ONTARIO	CANADA	L6T 1C1	
81787		11271	RANBAXY PHARMACEUTICALS CANADA INC.	DIN OWNER	Y	Y	Y			126 EAST DRIVE	BRAMPTON	ONTARIO	CANADA	L6T 1C1	
81788		11271	RANBAXY PHARMACEUTICALS CANADA INC.	DIN OWNER	Y	Y	Y			126 EAST DRIVE	BRAMPTON	ONTARIO	CANADA	L6T 1C1	
81795		11271	RANBAXY PHARMACEUTICALS CANADA INC.	DIN OWNER	Y	Y	Y			126 EAST DRIVE	BRAMPTON	ONTARIO	CANADA	L6T 1C1	
81796		11271	RANBAXY PHARMACEUTICALS CANADA INC.	DIN OWNER	Y	Y	Y			126 EAST DRIVE	BRAMPTON	ONTARIO	CANADA	L6T 1C1	
81797		11271	RANBAXY PHARMACEUTICALS CANADA INC.	DIN OWNER	Y	Y	Y			126 EAST DRIVE	BRAMPTON	ONTARIO	CANADA	L6T 1C1	
81798		11271	RANBAXY PHARMACEUTICALS CANADA INC.	DIN OWNER	Y	Y	Y			126 EAST DRIVE	BRAMPTON	ONTARIO	CANADA	L6T 1C1	
81799		10942	MERCER GROUP LTD/CHILDRENS HEALTHCARE RESEARCH GROUP	DIN OWNER	Y	Y	Y			254 HORNBINE RD	REHOBOTH	MASSACHUSETTS	UNITED STATES	2769	
81800		10942	MERCER GROUP LTD/CHILDRENS HEALTHCARE RESEARCH GROUP	DIN OWNER	Y	Y	Y			254 HORNBINE RD	REHOBOTH	MASSACHUSETTS	UNITED STATES	2769	
81802		11271	RANBAXY PHARMACEUTICALS CANADA INC.	DIN OWNER	Y	Y	Y			126 EAST DRIVE	BRAMPTON	ONTARIO	CANADA	L6T 1C1	
81806		11271	RANBAXY PHARMACEUTICALS CANADA INC.	DIN OWNER	Y	Y	Y			126 EAST DRIVE	BRAMPTON	ONTARIO	CANADA	L6T 1C1	
81807		11271	RANBAXY PHARMACEUTICALS CANADA INC.	DIN OWNER	Y	Y	Y			126 EAST DRIVE	BRAMPTON	ONTARIO	CANADA	L6T 1C1	
81808		11271	RANBAXY PHARMACEUTICALS CANADA INC.	DIN OWNER	Y	Y	Y			126 EAST DRIVE	BRAMPTON	ONTARIO	CANADA	L6T 1C1	
81809		11271	RANBAXY PHARMACEUTICALS CANADA INC.	DIN OWNER	Y	Y	Y			126 EAST DRIVE	BRAMPTON	ONTARIO	CANADA	L6T 1C1	
81823		11271	RANBAXY PHARMACEUTICALS CANADA INC.	DIN OWNER	Y	Y	Y			126 EAST DRIVE	BRAMPTON	ONTARIO	CANADA	L6T 1C1	
81824		11271	RANBAXY PHARMACEUTICALS CANADA INC.	DIN OWNER	Y	Y	Y			126 EAST DRIVE	BRAMPTON	ONTARIO	CANADA	L6T 1C1	
81825		11271	RANBAXY PHARMACEUTICALS CANADA INC.	DIN OWNER	Y	Y	Y			126 EAST DRIVE	BRAMPTON	ONTARIO	CANADA	L6T 1C1	
81826		11271	RANBAXY PHARMACEUTICALS CANADA INC.	DIN OWNER	Y	Y	Y			126 EAST DRIVE	BRAMPTON	ONTARIO	CANADA	L6T 1C1	
81827		11271	RANBAXY PHARMACEUTICALS CANADA INC.	DIN OWNER	Y	Y	Y			126 EAST DRIVE	BRAMPTON	ONTARIO	CANADA	L6T 1C1	
81835		12504	HUVEPHARMA EOOD	DIN OWNER	Y	N	Y			"5TH FLOOR, 3A NIKOLAY HAYTOV STR"	SOFIA	SAONE ET LOIRE	BULGARIA	1113	
81843		14074	TRANSCHEM INC.	DIN OWNER	Y	Y	Y			155 WERLICH DRIVE	CAMBRIDGE	ONTARIO	CANADA	N1T 1Y2	
81851		13067	PACKERS CHEMICAL HOLDINGS LLC DBA PACKERS CHEMICAL	DIN OWNER	Y	N	N			3729 PEDDLE HOLLOW RD.	KIELER	WISCONSIN	UNITED STATES	53812	
81853		13049	4410602 CANADA INC	DIN OWNER	Y	Y	Y			"300 SOUTH EGDEWARE, UNIT 205"	ST THOMAS	ONTARIO	CANADA	N5P 4L1	
81864		17049	BIONPHARMA INC	DIN OWNER	Y	Y	Y			"600 ALEXANDER ROAD, SUITE 2-4B"	PRINCETON	NEW JERSEY	UNITED STATES	8540	
81867		13663	UMAN PHARMA INC	DIN OWNER	Y	Y	Y			"611 ROYALMOUNT AVE, SUITE 100"	MONTREAL	QUEBEC	CANADA	H4P 2T4	
81868	NXP08	4828	NU-PHARM INC	DIN OWNER	Y	N	Y	N		"1165 CREDITSTONE RD, UNIT 2"	VAUGHAN	ONTARIO	CANADA	L4K 4N7	
81869	NXP08	4828	NU-PHARM INC	DIN OWNER	Y	N	Y	N		"1165 CREDITSTONE RD, UNIT 2"	VAUGHAN	ONTARIO	CANADA	L4K 4N7	
81870	NXP08	4828	NU-PHARM INC	DIN OWNER	Y	N	Y	N		"1165 CREDITSTONE RD, UNIT 2"	VAUGHAN	ONTARIO	CANADA	L4K 4N7	
81871	NXP08	4828	NU-PHARM INC	DIN OWNER	Y	N	Y	N		"1165 CREDITSTONE RD, UNIT 2"	VAUGHAN	ONTARIO	CANADA	L4K 4N7	
81879		16133	ISOLOGIC INNOVATIVE RADIOPHARMACEUTICALS LTD.	DIN OWNER	Y	N	Y			1855 32ND AVENUE	LACHINE	QUEBEC	CANADA	H8T 3J1	
81880		16133	ISOLOGIC INNOVATIVE RADIOPHARMACEUTICALS LTD.	DIN OWNER	Y	N	Y			1855 32ND AVENUE	LACHINE	QUEBEC	CANADA	H8T 3J1	
81883		13663	UMAN PHARMA INC	DIN OWNER	Y	Y	Y			"611 ROYALMOUNT AVE, SUITE 100"	MONTREAL	QUEBEC	CANADA	H4P 2T4	
81885	NXP08	4828	NU-PHARM INC	DIN OWNER	Y	N	Y	N		"1165 CREDITSTONE RD, UNIT 2"	VAUGHAN	ONTARIO	CANADA	L4K 4N7	
81891		6688	GEMINI PACKAGING LTD	DIN OWNER	Y	Y	Y	N	150	12071 JACOBSON	RICHMOND	BRITISH COLUMBIA	CANADA	V6W 1L5	
81897		11026	TRITON PHARMA INC	DIN OWNER	Y	N	Y			"665 MILLWAY AVENUE, SUITE 31 B"	CONCORD	ONTARIO	CANADA	L4K 3T8	
81900	PMS07	3550	PHARMASCIENCE INC	DIN OWNER	Y	Y	Y	N	100	"6111, ROYALMOUNT AVENUE"	MONTREAL	QUEBEC	CANADA	H4P 2T4	
81901	PMS07	3550	PHARMASCIENCE INC	DIN OWNER	Y	Y	Y	N	100	"6111, ROYALMOUNT AVENUE"	MONTREAL	QUEBEC	CANADA	H4P 2T4	
81902	PMS07	3550	PHARMASCIENCE INC	DIN OWNER	Y	Y	Y	N	100	"6111, ROYALMOUNT AVENUE"	MONTREAL	QUEBEC	CANADA	H4P 2T4	
81905	DPC07	4065	DOMINION PHARMACAL	DIN OWNER	Y	Y	Y	N	SUITE 100	"6111, AVENUE ROYALMOUNT"	MONTREAL	QUEBEC	CANADA	H4P 2T4	
81934	PMS07	3550	PHARMASCIENCE INC	DIN OWNER	Y	Y	Y	N	100	"6111, ROYALMOUNT AVENUE"	MONTREAL	QUEBEC	CANADA	H4P 2T4	
81935	PMS07	3550	PHARMASCIENCE INC	DIN OWNER	Y	Y	Y	N	100	"6111, ROYALMOUNT AVENUE"	MONTREAL	QUEBEC	CANADA	H4P 2T4	
81936	PMS07	3550	PHARMASCIENCE INC	DIN OWNER	Y	Y	Y	N	100	"6111, ROYALMOUNT AVENUE"	MONTREAL	QUEBEC	CANADA	H4P 2T4	
81937	PMS07	3550	PHARMASCIENCE INC	DIN OWNER	Y	Y	Y	N	100	"6111, ROYALMOUNT AVENUE"	MONTREAL	QUEBEC	CANADA	H4P 2T4	
81959		10428	ALCAVIS HDC LLC	DIN OWNER	Y	N	N			8322 HELGERMAN COURT	GAITHERSBURG	MARYLAND	UNITED STATES	20877	
81960		8927	MASON CHEMICAL COMPANY	DIN OWNER	Y	Y	N	N		"723 WEST ALGONQUIN ROAD, SUITE B"	ARLINGTON HEIGHTS	ILLINOIS	UNITED STATES	60005	
81991		13979	INNU-SCIENCE CANADA INC	DIN OWNER	Y	Y	Y		SUITE F	1777 BOUL NOBEL	SAINTE-JULIE	QUEBEC	CANADA	J3E 1Z6	
81999	NXP08	4828	NU-PHARM INC	DIN OWNER	Y	N	Y	N		"1165 CREDITSTONE RD, UNIT 2"	VAUGHAN	ONTARIO	CANADA	L4K 4N7	
82000	NXP08	4828	NU-PHARM INC	DIN OWNER	Y	N	Y	N		"1165 CREDITSTONE RD, UNIT 2"	VAUGHAN	ONTARIO	CANADA	L4K 4N7	
82001	NXP08	4828	NU-PHARM INC	DIN OWNER	Y	N	Y	N		"1165 CREDITSTONE RD, UNIT 2"	VAUGHAN	ONTARIO	CANADA	L4K 4N7	
82002	NXP08	4828	NU-PHARM INC	DIN OWNER	Y	N	Y	N		"1165 CREDITSTONE RD, UNIT 2"	VAUGHAN	ONTARIO	CANADA	L4K 4N7	
82004	NXP08	4828	NU-PHARM INC	DIN OWNER	Y	N	Y	N		"1165 CREDITSTONE RD, UNIT 2"	VAUGHAN	ONTARIO	CANADA	L4K 4N7	
82005	NXP08	4828	NU-PHARM INC	DIN OWNER	Y	N	Y	N		"1165 CREDITSTONE RD, UNIT 2"	VAUGHAN	ONTARIO	CANADA	L4K 4N7	
82006	NXP08	4828	NU-PHARM INC	DIN OWNER	Y	N	Y	N		"1165 CREDITSTONE RD, UNIT 2"	VAUGHAN	ONTARIO	CANADA	L4K 4N7	
82007	NXP08	4828	NU-PHARM INC	DIN OWNER	Y	N	Y	N		"1165 CREDITSTONE RD, UNIT 2"	VAUGHAN	ONTARIO	CANADA	L4K 4N7	
82008	NXP08	4828	NU-PHARM INC	DIN OWNER	Y	N	Y	N		"1165 CREDITSTONE RD, UNIT 2"	VAUGHAN	ONTARIO	CANADA	L4K 4N7	
82009	NXP08	4828	NU-PHARM INC	DIN OWNER	Y	N	Y	N		"1165 CREDITSTONE RD, UNIT 2"	VAUGHAN	ONTARIO	CANADA	L4K 4N7	
82021	NXP08	4828	NU-PHARM INC	DIN OWNER	Y	N	Y	N		"1165 CREDITSTONE RD, UNIT 2"	VAUGHAN	ONTARIO	CANADA	L4K 4N7	
82022	NXP08	4828	NU-PHARM INC	DIN OWNER	Y	N	Y	N		"1165 CREDITSTONE RD, UNIT 2"	VAUGHAN	ONTARIO	CANADA	L4K 4N7	
82023	NXP08	4828	NU-PHARM INC	DIN OWNER	Y	N	Y	N		"1165 CREDITSTONE RD, UNIT 2"	VAUGHAN	ONTARIO	CANADA	L4K 4N7	
82041		12027	SANDOZ CANADA INCORPORATED	DIN OWNER	Y	Y	Y			145 JULES-LÉGER STREET	BOUCHERVILLE	QUEBEC	CANADA	J4B 7K8	
82058	NXP08	4828	NU-PHARM INC	DIN OWNER	Y	N	Y	N		"1165 CREDITSTONE RD, UNIT 2"	VAUGHAN	ONTARIO	CANADA	L4K 4N7	
82059		11642	HOSPIRA HEALTHCARE CORPORATION	DIN OWNER	Y	Y	Y			17300 TRANS-CANADA HIGHWAY	KIRKLAND	QUEBEC	CANADA	H9J 2M5	
82064	NXP08	4828	NU-PHARM INC	DIN OWNER	Y	N	Y	N		"1165 CREDITSTONE RD, UNIT 2"	VAUGHAN	ONTARIO	CANADA	L4K 4N7	
82073		8460	BIMEDA-MTC ANIMAL HEALTH INC	DIN OWNER	Y	Y	Y	N		420 BEAVERDALE RD.	CAMBRIDGE	ONTARIO	CANADA	N3W 2W4	
82087	NXP08	4828	NU-PHARM INC	DIN OWNER	Y	N	Y	N		"1165 CREDITSTONE RD, UNIT 2"	VAUGHAN	ONTARIO	CANADA	L4K 4N7	
82088	NXP08	4828	NU-PHARM INC	DIN OWNER	Y	N	Y	N		"1165 CREDITSTONE RD, UNIT 2"	VAUGHAN	ONTARIO	CANADA	L4K 4N7	
82091	NXP08	4828	NU-PHARM INC	DIN OWNER	Y	N	Y	N		"1165 CREDITSTONE RD, UNIT 2"	VAUGHAN	ONTARIO	CANADA	L4K 4N7	
82092	NXP08	4828	NU-PHARM INC	DIN OWNER	Y	N	Y	N		"1165 CREDITSTONE RD, UNIT 2"	VAUGHAN	ONTARIO	CANADA	L4K 4N7	
82107	NXP08	4828	NU-PHARM INC	DIN OWNER	Y	N	Y	N		"1165 CREDITSTONE RD, UNIT 2"	VAUGHAN	ONTARIO	CANADA	L4K 4N7	
82108	NXP08	4828	NU-PHARM INC	DIN OWNER	Y	N	Y	N		"1165 CREDITSTONE RD, UNIT 2"	VAUGHAN	ONTARIO	CANADA	L4K 4N7	
82109	NXP08	4828	NU-PHARM INC	DIN OWNER	Y	N	Y	N		"1165 CREDITSTONE RD, UNIT 2"	VAUGHAN	ONTARIO	CANADA	L4K 4N7	
82110	NXP08	4828	NU-PHARM INC	DIN OWNER	Y	N	Y	N		"1165 CREDITSTONE RD, UNIT 2"	VAUGHAN	ONTARIO	CANADA	L4K 4N7	
82111	NXP08	4828	NU-PHARM INC	DIN OWNER	Y	N	Y	N		"1165 CREDITSTONE RD, UNIT 2"	VAUGHAN	ONTARIO	CANADA	L4K 4N7	
82112	NXP08	4828	NU-PHARM INC	DIN OWNER	Y	N	Y	N		"1165 CREDITSTONE RD, UNIT 2"	VAUGHAN	ONTARIO	CANADA	L4K 4N7	
82118	PIA08	8481	PALADIN LABS INC	DIN OWNER	Y	Y	Y	N		"100 BLVD ALEXIS-NIHON, SUITE 600"	SAINT-LAURENT	QUEBEC	CANADA	H4M 2P2	
82119	PIA08	8481	PALADIN LABS INC	DIN OWNER	Y	Y	Y	N		"100 BLVD ALEXIS-NIHON, SUITE 600"	SAINT-LAURENT	QUEBEC	CANADA	H4M 2P2	
82121	NXP08	4828	NU-PHARM INC	DIN OWNER	Y	N	Y	N		"1165 CREDITSTONE RD, UNIT 2"	VAUGHAN	ONTARIO	CANADA	L4K 4N7	
82122	NXP08	4828	NU-PHARM INC	DIN OWNER	Y	N	Y	N		"1165 CREDITSTONE RD, UNIT 2"	VAUGHAN	ONTARIO	CANADA	L4K 4N7	
82123	NXP08	4828	NU-PHARM INC	DIN OWNER	Y	N	Y	N		"1165 CREDITSTONE RD, UNIT 2"	VAUGHAN	ONTARIO	CANADA	L4K 4N7	
82124	NXP08	4828	NU-PHARM INC	DIN OWNER	Y	N	Y	N		"1165 CREDITSTONE RD, UNIT 2"	VAUGHAN	ONTARIO	CANADA	L4K 4N7	
82125	NXP08	4828	NU-PHARM INC	DIN OWNER	Y	N	Y	N		"1165 CREDITSTONE RD, UNIT 2"	VAUGHAN	ONTARIO	CANADA	L4K 4N7	
82126	NXP08	4828	NU-PHARM INC	DIN OWNER	Y	N	Y	N		"1165 CREDITSTONE RD, UNIT 2"	VAUGHAN	ONTARIO	CANADA	L4K 4N7	
82127	NXP08	4828	NU-PHARM INC	DIN OWNER	Y	N	Y	N		"1165 CREDITSTONE RD, UNIT 2"	VAUGHAN	ONTARIO	CANADA	L4K 4N7	
82135	NXP08	4828	NU-PHARM INC	DIN OWNER	Y	N	Y	N		"1165 CREDITSTONE RD, UNIT 2"	VAUGHAN	ONTARIO	CANADA	L4K 4N7	
82139	NXP08	4828	NU-PHARM INC	DIN OWNER	Y	N	Y	N		"1165 CREDITSTONE RD, UNIT 2"	VAUGHAN	ONTARIO	CANADA	L4K 4N7	
82140	NXP08	4828	NU-PHARM INC	DIN OWNER	Y	N	Y	N		"1165 CREDITSTONE RD, UNIT 2"	VAUGHAN	ONTARIO	CANADA	L4K 4N7	
82142	NXP08	4828	NU-PHARM INC	DIN OWNER	Y	N	Y	N		"1165 CREDITSTONE RD, UNIT 2"	VAUGHAN	ONTARIO	CANADA	L4K 4N7	
82143	NXP08	4828	NU-PHARM INC	DIN OWNER	Y	N	Y	N		"1165 CREDITSTONE RD, UNIT 2"	VAUGHAN	ONTARIO	CANADA	L4K 4N7	
82144	NXP08	4828	NU-PHARM INC	DIN OWNER	Y	N	Y	N		"1165 CREDITSTONE RD, UNIT 2"	VAUGHAN	ONTARIO	CANADA	L4K 4N7	
82145	NXP08	4828	NU-PHARM INC	DIN OWNER	Y	N	Y	N		"1165 CREDITSTONE RD, UNIT 2"	VAUGHAN	ONTARIO	CANADA	L4K 4N7	
82153		13840	MISSION PRODUCT HOLDINGS INC	DIN OWNER	Y	Y	Y		12 FLOOR	185 MADISON AVENUE	NEW YORK	NEW YORK	UNITED STATES	10016	
82158		8460	BIMEDA-MTC ANIMAL HEALTH INC	DIN OWNER	Y	Y	Y	N		420 BEAVERDALE RD.	CAMBRIDGE	ONTARIO	CANADA	N3W 2W4	
82164	NXP08	4828	NU-PHARM INC	DIN OWNER	Y	N	Y	N		"1165 CREDITSTONE RD, UNIT 2"	VAUGHAN	ONTARIO	CANADA	L4K 4N7	
82165	NXP08	4828	NU-PHARM INC	DIN OWNER	Y	N	Y	N		"1165 CREDITSTONE RD, UNIT 2"	VAUGHAN	ONTARIO	CANADA	L4K 4N7	
82166	NXP08	4828	NU-PHARM INC	DIN OWNER	Y	N	Y	N		"1165 CREDITSTONE RD, UNIT 2"	VAUGHAN	ONTARIO	CANADA	L4K 4N7	
82169	NXP08	4828	NU-PHARM INC	DIN OWNER	Y	N	Y	N		"1165 CREDITSTONE RD, UNIT 2"	VAUGHAN	ONTARIO	CANADA	L4K 4N7	
82170	NXP08	4828	NU-PHARM INC	DIN OWNER	Y	N	Y	N		"1165 CREDITSTONE RD, UNIT 2"	VAUGHAN	ONTARIO	CANADA	L4K 4N7	
82171	NXP08	4828	NU-PHARM INC	DIN OWNER	Y	N	Y	N		"1165 CREDITSTONE RD, UNIT 2"	VAUGHAN	ONTARIO	CANADA	L4K 4N7	
82172	NXP08	4828	NU-PHARM INC	DIN OWNER	Y	N	Y	N		"1165 CREDITSTONE RD, UNIT 2"	VAUGHAN	ONTARIO	CANADA	L4K 4N7	
82173	NXP08	4828	NU-PHARM INC	DIN OWNER	Y	N	Y	N		"1165 CREDITSTONE RD, UNIT 2"	VAUGHAN	ONTARIO	CANADA	L4K 4N7	
82174	NXP08	4828	NU-PHARM INC	DIN OWNER	Y	N	Y	N		"1165 CREDITSTONE RD, UNIT 2"	VAUGHAN	ONTARIO	CANADA	L4K 4N7	
82176	NXP08	4828	NU-PHARM INC	DIN OWNER	Y	N	Y	N		"1165 CREDITSTONE RD, UNIT 2"	VAUGHAN	ONTARIO	CANADA	L4K 4N7	
82177	NXP08	4828	NU-PHARM INC	DIN OWNER	Y	N	Y	N		"1165 CREDITSTONE RD, UNIT 2"	VAUGHAN	ONTARIO	CANADA	L4K 4N7	
82178	NXP08	4828	NU-PHARM INC	DIN OWNER	Y	N	Y	N		"1165 CREDITSTONE RD, UNIT 2"	VAUGHAN	ONTARIO	CANADA	L4K 4N7	
82182	NXP08	4828	NU-PHARM INC	DIN OWNER	Y	N	Y	N		"1165 CREDITSTONE RD, UNIT 2"	VAUGHAN	ONTARIO	CANADA	L4K 4N7	
82183	NXP08	4828	NU-PHARM INC	DIN OWNER	Y	N	Y	N		"1165 CREDITSTONE RD, UNIT 2"	VAUGHAN	ONTARIO	CANADA	L4K 4N7	
82184	NXP08	4828	NU-PHARM INC	DIN OWNER	Y	N	Y	N		"1165 CREDITSTONE RD, UNIT 2"	VAUGHAN	ONTARIO	CANADA	L4K 4N7	
82185	NXP08	4828	NU-PHARM INC	DIN OWNER	Y	N	Y	N		"1165 CREDITSTONE RD, UNIT 2"	VAUGHAN	ONTARIO	CANADA	L4K 4N7	
82186	NXP08	4828	NU-PHARM INC	DIN OWNER	Y	N	Y	N		"1165 CREDITSTONE RD, UNIT 2"	VAUGHAN	ONTARIO	CANADA	L4K 4N7	
82187		13137	SANTE ANIMALE ANIVET INC	DIN OWNER	Y	Y	Y		242	RUE ST-CYRILLE OUEST	UPTON	QUEBEC	CANADA	J0H 2E0	
82189	NXP08	4828	NU-PHARM INC	DIN OWNER	Y	N	Y	N		"1165 CREDITSTONE RD, UNIT 2"	VAUGHAN	ONTARIO	CANADA	L4K 4N7	
82190	NXP08	4828	NU-PHARM INC	DIN OWNER	Y	N	Y	N		"1165 CREDITSTONE RD, UNIT 2"	VAUGHAN	ONTARIO	CANADA	L4K 4N7	
82191	NXP08	4828	NU-PHARM INC	DIN OWNER	Y	N	Y	N		"1165 CREDITSTONE RD, UNIT 2"	VAUGHAN	ONTARIO	CANADA	L4K 4N7	
82192	NXP08	4828	NU-PHARM INC	DIN OWNER	Y	N	Y	N		"1165 CREDITSTONE RD, UNIT 2"	VAUGHAN	ONTARIO	CANADA	L4K 4N7	
82193	NXP08	4828	NU-PHARM INC	DIN OWNER	Y	N	Y	N		"1165 CREDITSTONE RD, UNIT 2"	VAUGHAN	ONTARIO	CANADA	L4K 4N7	
82194	NXP08	4828	NU-PHARM INC	DIN OWNER	Y	N	Y	N		"1165 CREDITSTONE RD, UNIT 2"	VAUGHAN	ONTARIO	CANADA	L4K 4N7	
82195	NXP08	4828	NU-PHARM INC	DIN OWNER	Y	N	Y	N		"1165 CREDITSTONE RD, UNIT 2"	VAUGHAN	ONTARIO	CANADA	L4K 4N7	
82196	NXP08	4828	NU-PHARM INC	DIN OWNER	Y	N	Y	N		"1165 CREDITSTONE RD, UNIT 2"	VAUGHAN	ONTARIO	CANADA	L4K 4N7	
82197	NXP08	4828	NU-PHARM INC	DIN OWNER	Y	N	Y	N		"1165 CREDITSTONE RD, UNIT 2"	VAUGHAN	ONTARIO	CANADA	L4K 4N7	
82198	NXP08	4828	NU-PHARM INC	DIN OWNER	Y	N	Y	N		"1165 CREDITSTONE RD, UNIT 2"	VAUGHAN	ONTARIO	CANADA	L4K 4N7	
82199	NXP08	4828	NU-PHARM INC	DIN OWNER	Y	N	Y	N		"1165 CREDITSTONE RD, UNIT 2"	VAUGHAN	ONTARIO	CANADA	L4K 4N7	
82200	NXP08	4828	NU-PHARM INC	DIN OWNER	Y	N	Y	N		"1165 CREDITSTONE RD, UNIT 2"	VAUGHAN	ONTARIO	CANADA	L4K 4N7	
82201	NXP08	4828	NU-PHARM INC	DIN OWNER	Y	N	Y	N		"1165 CREDITSTONE RD, UNIT 2"	VAUGHAN	ONTARIO	CANADA	L4K 4N7	
82202	NXP08	4828	NU-PHARM INC	DIN OWNER	Y	N	Y	N		"1165 CREDITSTONE RD, UNIT 2"	VAUGHAN	ONTARIO	CANADA	L4K 4N7	
82204	NXP08	4828	NU-PHARM INC	DIN OWNER	Y	N	Y	N		"1165 CREDITSTONE RD, UNIT 2"	VAUGHAN	ONTARIO	CANADA	L4K 4N7	
82208	NXP08	4828	NU-PHARM INC	DIN OWNER	Y	N	Y	N		"1165 CREDITSTONE RD, UNIT 2"	VAUGHAN	ONTARIO	CANADA	L4K 4N7	
82209	NXP08	4828	NU-PHARM INC	DIN OWNER	Y	N	Y	N		"1165 CREDITSTONE RD, UNIT 2"	VAUGHAN	ONTARIO	CANADA	L4K 4N7	
82211	NXP08	4828	NU-PHARM INC	DIN OWNER	Y	N	Y	N		"1165 CREDITSTONE RD, UNIT 2"	VAUGHAN	ONTARIO	CANADA	L4K 4N7	
82212	NXP08	4828	NU-PHARM INC	DIN OWNER	Y	N	Y	N		"1165 CREDITSTONE RD, UNIT 2"	VAUGHAN	ONTARIO	CANADA	L4K 4N7	
82213	NXP08	4828	NU-PHARM INC	DIN OWNER	Y	N	Y	N		"1165 CREDITSTONE RD, UNIT 2"	VAUGHAN	ONTARIO	CANADA	L4K 4N7	
82214	NXP08	4828	NU-PHARM INC	DIN OWNER	Y	N	Y	N		"1165 CREDITSTONE RD, UNIT 2"	VAUGHAN	ONTARIO	CANADA	L4K 4N7	
82215	NXP08	4828	NU-PHARM INC	DIN OWNER	Y	N	Y	N		"1165 CREDITSTONE RD, UNIT 2"	VAUGHAN	ONTARIO	CANADA	L4K 4N7	
82216	NXP08	4828	NU-PHARM INC	DIN OWNER	Y	N	Y	N		"1165 CREDITSTONE RD, UNIT 2"	VAUGHAN	ONTARIO	CANADA	L4K 4N7	
82232	NXP08	4828	NU-PHARM INC	DIN OWNER	Y	N	Y	N		"1165 CREDITSTONE RD, UNIT 2"	VAUGHAN	ONTARIO	CANADA	L4K 4N7	
82238	NXP08	4828	NU-PHARM INC	DIN OWNER	Y	N	Y	N		"1165 CREDITSTONE RD, UNIT 2"	VAUGHAN	ONTARIO	CANADA	L4K 4N7	
82239	NXP08	4828	NU-PHARM INC	DIN OWNER	Y	N	Y	N		"1165 CREDITSTONE RD, UNIT 2"	VAUGHAN	ONTARIO	CANADA	L4K 4N7	
82240	NXP08	4828	NU-PHARM INC	DIN OWNER	Y	N	Y	N		"1165 CREDITSTONE RD, UNIT 2"	VAUGHAN	ONTARIO	CANADA	L4K 4N7	
82265		13155	INTERNATIONAL CUSTOM PAK INC.	DIN OWNER	Y	Y	Y			"3155 PEPPERMILL COURT, SUITE 1"	MISSISSAUGA	ONTARIO	CANADA	L5L 4X7	
82272	NXP08	4828	NU-PHARM INC	DIN OWNER	Y	N	Y	N		"1165 CREDITSTONE RD, UNIT 2"	VAUGHAN	ONTARIO	CANADA	L4K 4N7	
82284	BEL08	5602	BELVEDERE INTERNATIONAL INC.	DIN OWNER	Y	Y	N	N		5675 KEATON CRESCENT	MISSISSAUGA	ONTARIO	CANADA	L5R 3G3	
82292	NXP08	4828	NU-PHARM INC	DIN OWNER	Y	N	Y	N		"1165 CREDITSTONE RD, UNIT 2"	VAUGHAN	ONTARIO	CANADA	L4K 4N7	
82293	NXP08	4828	NU-PHARM INC	DIN OWNER	Y	N	Y	N		"1165 CREDITSTONE RD, UNIT 2"	VAUGHAN	ONTARIO	CANADA	L4K 4N7	
82294	NXP08	4828	NU-PHARM INC	DIN OWNER	Y	N	Y	N		"1165 CREDITSTONE RD, UNIT 2"	VAUGHAN	ONTARIO	CANADA	L4K 4N7	
82295	NXP08	4828	NU-PHARM INC	DIN OWNER	Y	N	Y	N		"1165 CREDITSTONE RD, UNIT 2"	VAUGHAN	ONTARIO	CANADA	L4K 4N7	
82296	NXP08	4828	NU-PHARM INC	DIN OWNER	Y	N	Y	N		"1165 CREDITSTONE RD, UNIT 2"	VAUGHAN	ONTARIO	CANADA	L4K 4N7	
82297	NXP08	4828	NU-PHARM INC	DIN OWNER	Y	N	Y	N		"1165 CREDITSTONE RD, UNIT 2"	VAUGHAN	ONTARIO	CANADA	L4K 4N7	
82298	NXP08	4828	NU-PHARM INC	DIN OWNER	Y	N	Y	N		"1165 CREDITSTONE RD, UNIT 2"	VAUGHAN	ONTARIO	CANADA	L4K 4N7	
82324	PMT07	4933	PHARMETICS (2011) INC	DIN OWNER	Y	Y	Y	N		3695 AUTOROUTE DES LAURENTIDES	LAVAL	QUEBEC	CANADA	H7L 3H7	
82325		12062	ICPBIO REPRODUCTION	DIN OWNER	Y	N	N			3A MARKEN PLACE	"GLENFIELD, NORTHSHORE"	AUCKLAND	NEW ZEALAND	627	
82338	APX08	3636	APOTEX INC	DIN OWNER	Y	Y	Y	N		150 SIGNET DRIVE	TORONTO	ONTARIO	CANADA	M9L 1T9	
82339	APX08	3636	APOTEX INC	DIN OWNER	Y	Y	Y	N		150 SIGNET DRIVE	TORONTO	ONTARIO	CANADA	M9L 1T9	
82340	APX08	3636	APOTEX INC	DIN OWNER	Y	Y	Y	N		150 SIGNET DRIVE	TORONTO	ONTARIO	CANADA	M9L 1T9	
82341	APX08	3636	APOTEX INC	DIN OWNER	Y	Y	Y	N		150 SIGNET DRIVE	TORONTO	ONTARIO	CANADA	M9L 1T9	
82342	APX08	3636	APOTEX INC	DIN OWNER	Y	Y	Y	N		150 SIGNET DRIVE	TORONTO	ONTARIO	CANADA	M9L 1T9	
82343	APX08	3636	APOTEX INC	DIN OWNER	Y	Y	Y	N		150 SIGNET DRIVE	TORONTO	ONTARIO	CANADA	M9L 1T9	
82344	APX08	3636	APOTEX INC	DIN OWNER	Y	Y	Y	N		150 SIGNET DRIVE	TORONTO	ONTARIO	CANADA	M9L 1T9	
82358	SEV07	5096	SERVIER CANADA INC	DIN OWNER	Y	N	N	N		235 BOUL. ARMAND-FRAPPIER  - PARC SCIENTIF. ET DE HAUTE TECH. DE LAVAL	LAVAL	QUEBEC	CANADA	H7V 4A7	
82359	SEV07	5096	SERVIER CANADA INC	DIN OWNER	Y	N	N	N		235 BOUL. ARMAND-FRAPPIER  - PARC SCIENTIF. ET DE HAUTE TECH. DE LAVAL	LAVAL	QUEBEC	CANADA	H7V 4A7	
82360	SEV07	5096	SERVIER CANADA INC	DIN OWNER	Y	N	N	N		235 BOUL. ARMAND-FRAPPIER  - PARC SCIENTIF. ET DE HAUTE TECH. DE LAVAL	LAVAL	QUEBEC	CANADA	H7V 4A7	
82376	NXP08	4828	NU-PHARM INC	DIN OWNER	Y	N	Y	N		"1165 CREDITSTONE RD, UNIT 2"	VAUGHAN	ONTARIO	CANADA	L4K 4N7	
82377	NXP08	4828	NU-PHARM INC	DIN OWNER	Y	N	Y	N		"1165 CREDITSTONE RD, UNIT 2"	VAUGHAN	ONTARIO	CANADA	L4K 4N7	
82378	NXP08	4828	NU-PHARM INC	DIN OWNER	Y	N	Y	N		"1165 CREDITSTONE RD, UNIT 2"	VAUGHAN	ONTARIO	CANADA	L4K 4N7	
82379	NXP08	4828	NU-PHARM INC	DIN OWNER	Y	N	Y	N		"1165 CREDITSTONE RD, UNIT 2"	VAUGHAN	ONTARIO	CANADA	L4K 4N7	
82400		13137	SANTE ANIMALE ANIVET INC	DIN OWNER	Y	Y	Y		242	RUE ST-CYRILLE OUEST	UPTON	QUEBEC	CANADA	J0H 2E0	
82401		13137	SANTE ANIMALE ANIVET INC	DIN OWNER	Y	Y	Y		242	RUE ST-CYRILLE OUEST	UPTON	QUEBEC	CANADA	J0H 2E0	
82404	PMT07	4933	PHARMETICS (2011) INC	DIN OWNER	Y	Y	Y	N		3695 AUTOROUTE DES LAURENTIDES	LAVAL	QUEBEC	CANADA	H7L 3H7	
82405	PMT07	4933	PHARMETICS (2011) INC	DIN OWNER	Y	Y	Y	N		3695 AUTOROUTE DES LAURENTIDES	LAVAL	QUEBEC	CANADA	H7L 3H7	
82409		13137	SANTE ANIMALE ANIVET INC	DIN OWNER	Y	Y	Y		242	RUE ST-CYRILLE OUEST	UPTON	QUEBEC	CANADA	J0H 2E0	
82424		13564	SIERRA SUMMITS SKIN PRODUCTS LLC	DIN OWNER	Y	Y	Y			1768 KODIAK CIRCLE	RENO	NEVADA	UNITED STATES	89511	19033
82430		9290	CESCO SOLUTIONS INC.	DIN OWNER	Y	Y	Y	N		2227 MIDWAY LANE	BELLINGHAM	WASHINGTON	UNITED STATES	98226	
82499		10225	DR REDDYS LABORATORIES INC	DIN OWNER	Y	Y	Y			107 COLLEGE ROAD EAST	PRINCETON	NEW JERSEY	UNITED STATES	8540	
82500		10225	DR REDDYS LABORATORIES INC	DIN OWNER	Y	Y	Y			107 COLLEGE ROAD EAST	PRINCETON	NEW JERSEY	UNITED STATES	8540	
82517	NFG08	4398	INTERVET CANADA CORP	DIN OWNER	Y	Y	Y	N		16750 ROUTE TRANSCANADIENNE	KIRKLAND	QUEBEC	CANADA	H9H 4M7	
82531		9290	CESCO SOLUTIONS INC.	DIN OWNER	Y	Y	Y	N		2227 MIDWAY LANE	BELLINGHAM	WASHINGTON	UNITED STATES	98226	
82534	SRO08	5181	EMD SERONO A DIVISION OF EMD INC CANADA	DIN OWNER	Y	Y	Y	N		"2695 NORTH SHERIDAN WAY, SUITE 200"	MISSISSAUGA	ONTARIO	CANADA	L5K 2N6	
82542	PGA08	4911	PROCTER & GAMBLE INC	DIN OWNER	Y	N	N	N		4711 YONGE STREET	TORONTO	ONTARIO	CANADA	M2N 6K8	
82545	LEY08	6195	LEYSONS CHEMICAL PRODUCTS	DIN OWNER	Y	Y	Y	N	2	1366 SANDHILL DRIVE	ANCASTER	ONTARIO	CANADA	L9G 4V5	
82546	ECO08	4114	ECOLAB CO	DIN OWNER	Y	Y	Y	N		5105 TOMKEN ROAD	MISSISSAUGA	ONTARIO	CANADA	L4W 2X5	
82547	ECO08	4114	ECOLAB CO	DIN OWNER	Y	Y	Y	N		5105 TOMKEN ROAD	MISSISSAUGA	ONTARIO	CANADA	L4W 2X5	
82552	NBK35	4720	NORBROOK LABORATORIES LTD.	DIN OWNER	Y	N	N	N		"STATION WORKS, CAMLOUGH ROAD"	"NEWRY, COUNTY DOWN"	NORTHERN IRELAND	UNITED KINGDOM	BT35 6JP	
82555		14224	QUALITY CONTRACT MANUFACTURING	DIN OWNER	Y	Y	Y		UNIT 1	150 DUNCAN MILL ROAD	TORONTO	ONTARIO	CANADA	M3B 3M4	
82557		14224	QUALITY CONTRACT MANUFACTURING	DIN OWNER	Y	Y	Y		UNIT 1	150 DUNCAN MILL ROAD	TORONTO	ONTARIO	CANADA	M3B 3M4	
82558	SUY08	5215	H.J. SUTTON INDUSTRIES LTD.	DIN OWNER	Y	Y	Y	N		"8701 JANE STREET, UNIT C"	VAUGHAN	ONTARIO	CANADA	L4K 2M6	
82560		11656	PENDOPHARM DIVISION OF DE PHARMASCIENCE INC	DIN OWNER	Y	Y	Y		SUITE 100	"6111, AVENUE ROYALMOUNT"	MONTREAL	QUEBEC	CANADA	H4P 2T4	
82576		13930	MYLAN PHARMACEUTICALS ULC	DIN OWNER	Y	Y	Y			85 ADVANCE ROAD	ETOBICOKE	ONTARIO	CANADA	M8Z 2S6	
82586	JAJ07	4402	JOHNSON & JOHNSON INC	DIN OWNER	Y	Y	Y	N		88 MCNABB STREET	MARKHAM	ONTARIO	CANADA	L3R 5L2	
82594	SDQ95	6574	STEPAN COMPANY	DIN OWNER	Y	Y	N	N		22 W. FRONTAGE ROAD	NORTHFIELD	ILLINOIS	UNITED STATES	60093	
82595	SDQ95	6574	STEPAN COMPANY	DIN OWNER	Y	Y	N	N		22 W. FRONTAGE ROAD	NORTHFIELD	ILLINOIS	UNITED STATES	60093	
82596	SDQ95	6574	STEPAN COMPANY	DIN OWNER	Y	Y	N	N		22 W. FRONTAGE ROAD	NORTHFIELD	ILLINOIS	UNITED STATES	60093	
82597	SDQ95	6574	STEPAN COMPANY	DIN OWNER	Y	Y	N	N		22 W. FRONTAGE ROAD	NORTHFIELD	ILLINOIS	UNITED STATES	60093	
82598	SDQ95	6574	STEPAN COMPANY	DIN OWNER	Y	Y	N	N		22 W. FRONTAGE ROAD	NORTHFIELD	ILLINOIS	UNITED STATES	60093	
82599	SDQ95	6574	STEPAN COMPANY	DIN OWNER	Y	Y	N	N		22 W. FRONTAGE ROAD	NORTHFIELD	ILLINOIS	UNITED STATES	60093	
82606		8460	BIMEDA-MTC ANIMAL HEALTH INC	DIN OWNER	Y	Y	Y	N		420 BEAVERDALE RD.	CAMBRIDGE	ONTARIO	CANADA	N3W 2W4	
82607		14243	TRANSDERMAL CORP.	DIN OWNER	Y	Y	Y			2002-B HAZEL STREET	BIRMINGHAM	MICHIGAN	UNITED STATES	48009	
82608		14243	TRANSDERMAL CORP.	DIN OWNER	Y	Y	Y			2002-B HAZEL STREET	BIRMINGHAM	MICHIGAN	UNITED STATES	48009	
82609		14243	TRANSDERMAL CORP.	DIN OWNER	Y	Y	Y			2002-B HAZEL STREET	BIRMINGHAM	MICHIGAN	UNITED STATES	48009	
82611	PGA08	4911	PROCTER & GAMBLE INC	DIN OWNER	Y	N	N	N		4711 YONGE STREET	TORONTO	ONTARIO	CANADA	M2N 6K8	
82620		10293	APOLLO HEALTH AND BEAUTY CARE INC.	DIN OWNER	Y	Y	N			1 APOLLO PLACE	TORONTO	ONTARIO	CANADA	M3J 0H2	
82626		9200	MAGMA ENR	DIN OWNER	Y	Y	Y	N	101	4071 RUE BLAIN	QUÉBEC (NEUFCHÂTEL)	QUEBEC	CANADA	G2B 5C6	
82707		10293	APOLLO HEALTH AND BEAUTY CARE INC.	DIN OWNER	Y	Y	N			1 APOLLO PLACE	TORONTO	ONTARIO	CANADA	M3J 0H2	
82712		12007	PARTNAR ANIMAL HEALTH INC	DIN OWNER	Y	Y	Y			14057 ILDERTON ROAD	ILDERTON	ONTARIO	CANADA	N0M 2A0	
82727		12463	GENMED A DIVISION OF PFIZER CANADA INC	DIN OWNER	Y	Y	Y			17300 TRANS CANADA HIGHWAY	KIRKLAND	QUEBEC	CANADA	H9J 2M5	
82728		12463	GENMED A DIVISION OF PFIZER CANADA INC	DIN OWNER	Y	Y	Y			17300 TRANS CANADA HIGHWAY	KIRKLAND	QUEBEC	CANADA	H9J 2M5	
82729		12463	GENMED A DIVISION OF PFIZER CANADA INC	DIN OWNER	Y	Y	Y			17300 TRANS CANADA HIGHWAY	KIRKLAND	QUEBEC	CANADA	H9J 2M5	
82750		14691	JUBILANT DRAXIMAGE INC	DIN OWNER	Y	Y	Y			16751 TRANS CANADA HWY	KIRKLAND	QUEBEC	CANADA	H9H 4J4	
82751	BEW08	6996	BRACCO IMAGING CANADA	DIN OWNER	Y	Y	Y	N		11065 BOUL. L-H LAFONTAINE	VILLE D'ANJOU	QUEBEC	CANADA	H1J 2Z4	
82752	BEW08	6996	BRACCO IMAGING CANADA	DIN OWNER	Y	Y	Y	N		11065 BOUL. L-H LAFONTAINE	VILLE D'ANJOU	QUEBEC	CANADA	H1J 2Z4	
82755		14253	4513347 CANADA INC.	DIN OWNER	Y	Y	Y		SUITE 109	2002 QUEBEC AVE	SASKATOON	SASKATCHEWAN	CANADA	S7K 1W4	
82756		14253	4513347 CANADA INC.	DIN OWNER	Y	Y	Y		SUITE 109	2002 QUEBEC AVE	SASKATOON	SASKATCHEWAN	CANADA	S7K 1W4	
82757		13049	4410602 CANADA INC	DIN OWNER	Y	Y	Y			"300 SOUTH EGDEWARE, UNIT 205"	ST THOMAS	ONTARIO	CANADA	N5P 4L1	
82769		13324	OHSO CLEAN INC	DIN OWNER	Y	Y	Y			755 SAMSOME STREET #300	SAN FRANCISCO	CALIFORNIA	UNITED STATES	94111	
82782	OBT08	10028	COBALT PHARMACEUTICALS COMPANY	DIN OWNER	Y	Y	N			"6733 MISSISSAUGA ROAD, SUITE 400"	MISSISSAUGA	ONTARIO	CANADA	L5N 6J5	
82783	OBT08	10028	COBALT PHARMACEUTICALS COMPANY	DIN OWNER	Y	Y	N			"6733 MISSISSAUGA ROAD, SUITE 400"	MISSISSAUGA	ONTARIO	CANADA	L5N 6J5	
82784	OBT08	10028	COBALT PHARMACEUTICALS COMPANY	DIN OWNER	Y	Y	N			"6733 MISSISSAUGA ROAD, SUITE 400"	MISSISSAUGA	ONTARIO	CANADA	L5N 6J5	
82785	OBT08	10028	COBALT PHARMACEUTICALS COMPANY	DIN OWNER	Y	Y	N			"6733 MISSISSAUGA ROAD, SUITE 400"	MISSISSAUGA	ONTARIO	CANADA	L5N 6J5	
82786	OBT08	10028	COBALT PHARMACEUTICALS COMPANY	DIN OWNER	Y	Y	N			"6733 MISSISSAUGA ROAD, SUITE 400"	MISSISSAUGA	ONTARIO	CANADA	L5N 6J5	
82787	OBT08	10028	COBALT PHARMACEUTICALS COMPANY	DIN OWNER	Y	Y	N			"6733 MISSISSAUGA ROAD, SUITE 400"	MISSISSAUGA	ONTARIO	CANADA	L5N 6J5	
82788	OBT08	10028	COBALT PHARMACEUTICALS COMPANY	DIN OWNER	Y	Y	N			"6733 MISSISSAUGA ROAD, SUITE 400"	MISSISSAUGA	ONTARIO	CANADA	L5N 6J5	
82789	OBT08	10028	COBALT PHARMACEUTICALS COMPANY	DIN OWNER	Y	Y	N			"6733 MISSISSAUGA ROAD, SUITE 400"	MISSISSAUGA	ONTARIO	CANADA	L5N 6J5	
82790	OBT08	10028	COBALT PHARMACEUTICALS COMPANY	DIN OWNER	Y	Y	N			"6733 MISSISSAUGA ROAD, SUITE 400"	MISSISSAUGA	ONTARIO	CANADA	L5N 6J5	
82793		12435	INTERNATIONAL PHARMACEUTICAL GENERICS LTD	DIN OWNER	Y	N	N			4-77 AURIGA DRIVE	OTTAWA	ONTARIO	CANADA	K2E 7Z7	
82794	OBT08	10028	COBALT PHARMACEUTICALS COMPANY	DIN OWNER	Y	Y	N			"6733 MISSISSAUGA ROAD, SUITE 400"	MISSISSAUGA	ONTARIO	CANADA	L5N 6J5	
82795	OBT08	10028	COBALT PHARMACEUTICALS COMPANY	DIN OWNER	Y	Y	N			"6733 MISSISSAUGA ROAD, SUITE 400"	MISSISSAUGA	ONTARIO	CANADA	L5N 6J5	
82796	OBT08	10028	COBALT PHARMACEUTICALS COMPANY	DIN OWNER	Y	Y	N			"6733 MISSISSAUGA ROAD, SUITE 400"	MISSISSAUGA	ONTARIO	CANADA	L5N 6J5	
82797	OBT08	10028	COBALT PHARMACEUTICALS COMPANY	DIN OWNER	Y	Y	N			"6733 MISSISSAUGA ROAD, SUITE 400"	MISSISSAUGA	ONTARIO	CANADA	L5N 6J5	
82798	OBT08	10028	COBALT PHARMACEUTICALS COMPANY	DIN OWNER	Y	Y	N			"6733 MISSISSAUGA ROAD, SUITE 400"	MISSISSAUGA	ONTARIO	CANADA	L5N 6J5	
82809	OBT08	10028	COBALT PHARMACEUTICALS COMPANY	DIN OWNER	Y	Y	N			"6733 MISSISSAUGA ROAD, SUITE 400"	MISSISSAUGA	ONTARIO	CANADA	L5N 6J5	
82810	OBT08	10028	COBALT PHARMACEUTICALS COMPANY	DIN OWNER	Y	Y	N			"6733 MISSISSAUGA ROAD, SUITE 400"	MISSISSAUGA	ONTARIO	CANADA	L5N 6J5	
82811	OBT08	10028	COBALT PHARMACEUTICALS COMPANY	DIN OWNER	Y	Y	N			"6733 MISSISSAUGA ROAD, SUITE 400"	MISSISSAUGA	ONTARIO	CANADA	L5N 6J5	
82812	OBT08	10028	COBALT PHARMACEUTICALS COMPANY	DIN OWNER	Y	Y	N			"6733 MISSISSAUGA ROAD, SUITE 400"	MISSISSAUGA	ONTARIO	CANADA	L5N 6J5	
82813	OBT08	10028	COBALT PHARMACEUTICALS COMPANY	DIN OWNER	Y	Y	N			"6733 MISSISSAUGA ROAD, SUITE 400"	MISSISSAUGA	ONTARIO	CANADA	L5N 6J5	
82814	OBT08	10028	COBALT PHARMACEUTICALS COMPANY	DIN OWNER	Y	Y	N			"6733 MISSISSAUGA ROAD, SUITE 400"	MISSISSAUGA	ONTARIO	CANADA	L5N 6J5	
82815	OBT08	10028	COBALT PHARMACEUTICALS COMPANY	DIN OWNER	Y	Y	N			"6733 MISSISSAUGA ROAD, SUITE 400"	MISSISSAUGA	ONTARIO	CANADA	L5N 6J5	
82816	OBT08	10028	COBALT PHARMACEUTICALS COMPANY	DIN OWNER	Y	Y	N			"6733 MISSISSAUGA ROAD, SUITE 400"	MISSISSAUGA	ONTARIO	CANADA	L5N 6J5	
82817	OBT08	10028	COBALT PHARMACEUTICALS COMPANY	DIN OWNER	Y	Y	N			"6733 MISSISSAUGA ROAD, SUITE 400"	MISSISSAUGA	ONTARIO	CANADA	L5N 6J5	
82818	OBT08	10028	COBALT PHARMACEUTICALS COMPANY	DIN OWNER	Y	Y	N			"6733 MISSISSAUGA ROAD, SUITE 400"	MISSISSAUGA	ONTARIO	CANADA	L5N 6J5	
82820	OBT08	10028	COBALT PHARMACEUTICALS COMPANY	DIN OWNER	Y	Y	N			"6733 MISSISSAUGA ROAD, SUITE 400"	MISSISSAUGA	ONTARIO	CANADA	L5N 6J5	
82821	OBT08	10028	COBALT PHARMACEUTICALS COMPANY	DIN OWNER	Y	Y	N			"6733 MISSISSAUGA ROAD, SUITE 400"	MISSISSAUGA	ONTARIO	CANADA	L5N 6J5	
82822		12902	BAYER HEALTHCARE LLC	DIN OWNER	Y	N	N			100 BAYER BOULEVARD	WHIPPANY	NEW JERSEY	UNITED STATES	7981	
82826	OBT08	10028	COBALT PHARMACEUTICALS COMPANY	DIN OWNER	Y	Y	N			"6733 MISSISSAUGA ROAD, SUITE 400"	MISSISSAUGA	ONTARIO	CANADA	L5N 6J5	
82827	OBT08	10028	COBALT PHARMACEUTICALS COMPANY	DIN OWNER	Y	Y	N			"6733 MISSISSAUGA ROAD, SUITE 400"	MISSISSAUGA	ONTARIO	CANADA	L5N 6J5	
82881	OBT08	10028	COBALT PHARMACEUTICALS COMPANY	DIN OWNER	Y	Y	N			"6733 MISSISSAUGA ROAD, SUITE 400"	MISSISSAUGA	ONTARIO	CANADA	L5N 6J5	
82882	OBT08	10028	COBALT PHARMACEUTICALS COMPANY	DIN OWNER	Y	Y	N			"6733 MISSISSAUGA ROAD, SUITE 400"	MISSISSAUGA	ONTARIO	CANADA	L5N 6J5	
82883	JPC10	4415	JAMP PHARMA CORPORATION	DIN OWNER	Y	Y	Y	N		1310 RUE NOBEL	BOUCHERVILLE	QUEBEC	CANADA	J4B 5H3	
82886	OBT08	10028	COBALT PHARMACEUTICALS COMPANY	DIN OWNER	Y	Y	N			"6733 MISSISSAUGA ROAD, SUITE 400"	MISSISSAUGA	ONTARIO	CANADA	L5N 6J5	
82887	OBT08	10028	COBALT PHARMACEUTICALS COMPANY	DIN OWNER	Y	Y	N			"6733 MISSISSAUGA ROAD, SUITE 400"	MISSISSAUGA	ONTARIO	CANADA	L5N 6J5	
82888	OBT08	10028	COBALT PHARMACEUTICALS COMPANY	DIN OWNER	Y	Y	N			"6733 MISSISSAUGA ROAD, SUITE 400"	MISSISSAUGA	ONTARIO	CANADA	L5N 6J5	
82889	OBT08	10028	COBALT PHARMACEUTICALS COMPANY	DIN OWNER	Y	Y	N			"6733 MISSISSAUGA ROAD, SUITE 400"	MISSISSAUGA	ONTARIO	CANADA	L5N 6J5	
82890	OBT08	10028	COBALT PHARMACEUTICALS COMPANY	DIN OWNER	Y	Y	N			"6733 MISSISSAUGA ROAD, SUITE 400"	MISSISSAUGA	ONTARIO	CANADA	L5N 6J5	
82891	OBT08	10028	COBALT PHARMACEUTICALS COMPANY	DIN OWNER	Y	Y	N			"6733 MISSISSAUGA ROAD, SUITE 400"	MISSISSAUGA	ONTARIO	CANADA	L5N 6J5	
82892	OBT08	10028	COBALT PHARMACEUTICALS COMPANY	DIN OWNER	Y	Y	N			"6733 MISSISSAUGA ROAD, SUITE 400"	MISSISSAUGA	ONTARIO	CANADA	L5N 6J5	
82893	OBT08	10028	COBALT PHARMACEUTICALS COMPANY	DIN OWNER	Y	Y	N			"6733 MISSISSAUGA ROAD, SUITE 400"	MISSISSAUGA	ONTARIO	CANADA	L5N 6J5	
82894	OBT08	10028	COBALT PHARMACEUTICALS COMPANY	DIN OWNER	Y	Y	N			"6733 MISSISSAUGA ROAD, SUITE 400"	MISSISSAUGA	ONTARIO	CANADA	L5N 6J5	
82900		3568	AMGEN CANADA INC	DIN OWNER	Y	Y	Y	N		"6775 FINANCIAL DRIVE, SUITE 100"	MISSISSAUGA	ONTARIO	CANADA	L5N 0A4	
82901	OBT08	10028	COBALT PHARMACEUTICALS COMPANY	DIN OWNER	Y	Y	N			"6733 MISSISSAUGA ROAD, SUITE 400"	MISSISSAUGA	ONTARIO	CANADA	L5N 6J5	
82902	OBT08	10028	COBALT PHARMACEUTICALS COMPANY	DIN OWNER	Y	Y	N			"6733 MISSISSAUGA ROAD, SUITE 400"	MISSISSAUGA	ONTARIO	CANADA	L5N 6J5	
82903	OBT08	10028	COBALT PHARMACEUTICALS COMPANY	DIN OWNER	Y	Y	N			"6733 MISSISSAUGA ROAD, SUITE 400"	MISSISSAUGA	ONTARIO	CANADA	L5N 6J5	
82904	OBT08	10028	COBALT PHARMACEUTICALS COMPANY	DIN OWNER	Y	Y	N			"6733 MISSISSAUGA ROAD, SUITE 400"	MISSISSAUGA	ONTARIO	CANADA	L5N 6J5	
82905	OBT08	10028	COBALT PHARMACEUTICALS COMPANY	DIN OWNER	Y	Y	N			"6733 MISSISSAUGA ROAD, SUITE 400"	MISSISSAUGA	ONTARIO	CANADA	L5N 6J5	
82906	OBT08	10028	COBALT PHARMACEUTICALS COMPANY	DIN OWNER	Y	Y	N			"6733 MISSISSAUGA ROAD, SUITE 400"	MISSISSAUGA	ONTARIO	CANADA	L5N 6J5	
82907	OBT08	10028	COBALT PHARMACEUTICALS COMPANY	DIN OWNER	Y	Y	N			"6733 MISSISSAUGA ROAD, SUITE 400"	MISSISSAUGA	ONTARIO	CANADA	L5N 6J5	
82908	OBT08	10028	COBALT PHARMACEUTICALS COMPANY	DIN OWNER	Y	Y	N			"6733 MISSISSAUGA ROAD, SUITE 400"	MISSISSAUGA	ONTARIO	CANADA	L5N 6J5	
82914	OBT08	10028	COBALT PHARMACEUTICALS COMPANY	DIN OWNER	Y	Y	N			"6733 MISSISSAUGA ROAD, SUITE 400"	MISSISSAUGA	ONTARIO	CANADA	L5N 6J5	
82915	OBT08	10028	COBALT PHARMACEUTICALS COMPANY	DIN OWNER	Y	Y	N			"6733 MISSISSAUGA ROAD, SUITE 400"	MISSISSAUGA	ONTARIO	CANADA	L5N 6J5	
82916	OBT08	10028	COBALT PHARMACEUTICALS COMPANY	DIN OWNER	Y	Y	N			"6733 MISSISSAUGA ROAD, SUITE 400"	MISSISSAUGA	ONTARIO	CANADA	L5N 6J5	
82917	OBT08	10028	COBALT PHARMACEUTICALS COMPANY	DIN OWNER	Y	Y	N			"6733 MISSISSAUGA ROAD, SUITE 400"	MISSISSAUGA	ONTARIO	CANADA	L5N 6J5	
82918	OBT08	10028	COBALT PHARMACEUTICALS COMPANY	DIN OWNER	Y	Y	N			"6733 MISSISSAUGA ROAD, SUITE 400"	MISSISSAUGA	ONTARIO	CANADA	L5N 6J5	
82919	OBT08	10028	COBALT PHARMACEUTICALS COMPANY	DIN OWNER	Y	Y	N			"6733 MISSISSAUGA ROAD, SUITE 400"	MISSISSAUGA	ONTARIO	CANADA	L5N 6J5	
82920	OBT08	10028	COBALT PHARMACEUTICALS COMPANY	DIN OWNER	Y	Y	N			"6733 MISSISSAUGA ROAD, SUITE 400"	MISSISSAUGA	ONTARIO	CANADA	L5N 6J5	
82924	OBT08	10028	COBALT PHARMACEUTICALS COMPANY	DIN OWNER	Y	Y	N			"6733 MISSISSAUGA ROAD, SUITE 400"	MISSISSAUGA	ONTARIO	CANADA	L5N 6J5	
82925	OBT08	10028	COBALT PHARMACEUTICALS COMPANY	DIN OWNER	Y	Y	N			"6733 MISSISSAUGA ROAD, SUITE 400"	MISSISSAUGA	ONTARIO	CANADA	L5N 6J5	
82926	OBT08	10028	COBALT PHARMACEUTICALS COMPANY	DIN OWNER	Y	Y	N			"6733 MISSISSAUGA ROAD, SUITE 400"	MISSISSAUGA	ONTARIO	CANADA	L5N 6J5	
82927	OBT08	10028	COBALT PHARMACEUTICALS COMPANY	DIN OWNER	Y	Y	N			"6733 MISSISSAUGA ROAD, SUITE 400"	MISSISSAUGA	ONTARIO	CANADA	L5N 6J5	
82928	OBT08	10028	COBALT PHARMACEUTICALS COMPANY	DIN OWNER	Y	Y	N			"6733 MISSISSAUGA ROAD, SUITE 400"	MISSISSAUGA	ONTARIO	CANADA	L5N 6J5	
82929	OBT08	10028	COBALT PHARMACEUTICALS COMPANY	DIN OWNER	Y	Y	N			"6733 MISSISSAUGA ROAD, SUITE 400"	MISSISSAUGA	ONTARIO	CANADA	L5N 6J5	
82932	OBT08	10028	COBALT PHARMACEUTICALS COMPANY	DIN OWNER	Y	Y	N			"6733 MISSISSAUGA ROAD, SUITE 400"	MISSISSAUGA	ONTARIO	CANADA	L5N 6J5	
82933	OBT08	10028	COBALT PHARMACEUTICALS COMPANY	DIN OWNER	Y	Y	N			"6733 MISSISSAUGA ROAD, SUITE 400"	MISSISSAUGA	ONTARIO	CANADA	L5N 6J5	
82935	OBT08	10028	COBALT PHARMACEUTICALS COMPANY	DIN OWNER	Y	Y	N			"6733 MISSISSAUGA ROAD, SUITE 400"	MISSISSAUGA	ONTARIO	CANADA	L5N 6J5	
82936	OBT08	10028	COBALT PHARMACEUTICALS COMPANY	DIN OWNER	Y	Y	N			"6733 MISSISSAUGA ROAD, SUITE 400"	MISSISSAUGA	ONTARIO	CANADA	L5N 6J5	
82937	OBT08	10028	COBALT PHARMACEUTICALS COMPANY	DIN OWNER	Y	Y	N			"6733 MISSISSAUGA ROAD, SUITE 400"	MISSISSAUGA	ONTARIO	CANADA	L5N 6J5	
82953		13745	LIBERCHEM INC	DIN OWNER	Y	Y	Y			572 AVENUE ORLY	DORVAL	QUEBEC	CANADA	H9P 1E9	
82967	OBT08	10028	COBALT PHARMACEUTICALS COMPANY	DIN OWNER	Y	Y	N			"6733 MISSISSAUGA ROAD, SUITE 400"	MISSISSAUGA	ONTARIO	CANADA	L5N 6J5	
82968	OBT08	10028	COBALT PHARMACEUTICALS COMPANY	DIN OWNER	Y	Y	N			"6733 MISSISSAUGA ROAD, SUITE 400"	MISSISSAUGA	ONTARIO	CANADA	L5N 6J5	
82969	OBT08	10028	COBALT PHARMACEUTICALS COMPANY	DIN OWNER	Y	Y	N			"6733 MISSISSAUGA ROAD, SUITE 400"	MISSISSAUGA	ONTARIO	CANADA	L5N 6J5	
82970	OBT08	10028	COBALT PHARMACEUTICALS COMPANY	DIN OWNER	Y	Y	N			"6733 MISSISSAUGA ROAD, SUITE 400"	MISSISSAUGA	ONTARIO	CANADA	L5N 6J5	
82982	OBT08	10028	COBALT PHARMACEUTICALS COMPANY	DIN OWNER	Y	Y	N			"6733 MISSISSAUGA ROAD, SUITE 400"	MISSISSAUGA	ONTARIO	CANADA	L5N 6J5	
82983	OBT08	10028	COBALT PHARMACEUTICALS COMPANY	DIN OWNER	Y	Y	N			"6733 MISSISSAUGA ROAD, SUITE 400"	MISSISSAUGA	ONTARIO	CANADA	L5N 6J5	
82993		14318	TEVA CANADA LIMITED	DIN OWNER	Y	Y	N			30 NOVOPHARM COURT	TORONTO	ONTARIO	CANADA	M1B 2K9	
82994		14318	TEVA CANADA LIMITED	DIN OWNER	Y	Y	N			30 NOVOPHARM COURT	TORONTO	ONTARIO	CANADA	M1B 2K9	
83005		14286	MAKEUP ARTISTRY STORES INC	DIN OWNER	Y	N	Y		102	59 ROMINA DRIVE	CONCORD	ONTARIO	CANADA	L4K 4Z9	
83007	DPC07	4065	DOMINION PHARMACAL	DIN OWNER	Y	Y	Y	N	SUITE 100	"6111, AVENUE ROYALMOUNT"	MONTREAL	QUEBEC	CANADA	H4P 2T4	
83008	OBT08	10028	COBALT PHARMACEUTICALS COMPANY	DIN OWNER	Y	Y	N			"6733 MISSISSAUGA ROAD, SUITE 400"	MISSISSAUGA	ONTARIO	CANADA	L5N 6J5	
83009	OBT08	10028	COBALT PHARMACEUTICALS COMPANY	DIN OWNER	Y	Y	N			"6733 MISSISSAUGA ROAD, SUITE 400"	MISSISSAUGA	ONTARIO	CANADA	L5N 6J5	
83018		7923	SKLAR INSTRUMENTS	DIN OWNER	Y	Y	Y	N		889 S. MATLACK ST.	WEST CHESTER	PENNSYLVANIA	UNITED STATES	19382	
83019	OBT08	10028	COBALT PHARMACEUTICALS COMPANY	DIN OWNER	Y	Y	N			"6733 MISSISSAUGA ROAD, SUITE 400"	MISSISSAUGA	ONTARIO	CANADA	L5N 6J5	
83020	OBT08	10028	COBALT PHARMACEUTICALS COMPANY	DIN OWNER	Y	Y	N			"6733 MISSISSAUGA ROAD, SUITE 400"	MISSISSAUGA	ONTARIO	CANADA	L5N 6J5	
83021	OBT08	10028	COBALT PHARMACEUTICALS COMPANY	DIN OWNER	Y	Y	N			"6733 MISSISSAUGA ROAD, SUITE 400"	MISSISSAUGA	ONTARIO	CANADA	L5N 6J5	
83022	OBT08	10028	COBALT PHARMACEUTICALS COMPANY	DIN OWNER	Y	Y	N			"6733 MISSISSAUGA ROAD, SUITE 400"	MISSISSAUGA	ONTARIO	CANADA	L5N 6J5	
83023	OBT08	10028	COBALT PHARMACEUTICALS COMPANY	DIN OWNER	Y	Y	N			"6733 MISSISSAUGA ROAD, SUITE 400"	MISSISSAUGA	ONTARIO	CANADA	L5N 6J5	
83024	OBT08	10028	COBALT PHARMACEUTICALS COMPANY	DIN OWNER	Y	Y	N			"6733 MISSISSAUGA ROAD, SUITE 400"	MISSISSAUGA	ONTARIO	CANADA	L5N 6J5	
83025	OBT08	10028	COBALT PHARMACEUTICALS COMPANY	DIN OWNER	Y	Y	N			"6733 MISSISSAUGA ROAD, SUITE 400"	MISSISSAUGA	ONTARIO	CANADA	L5N 6J5	
83027	OBT08	10028	COBALT PHARMACEUTICALS COMPANY	DIN OWNER	Y	Y	N			"6733 MISSISSAUGA ROAD, SUITE 400"	MISSISSAUGA	ONTARIO	CANADA	L5N 6J5	
83028	OBT08	10028	COBALT PHARMACEUTICALS COMPANY	DIN OWNER	Y	Y	N			"6733 MISSISSAUGA ROAD, SUITE 400"	MISSISSAUGA	ONTARIO	CANADA	L5N 6J5	
83032	OBT08	10028	COBALT PHARMACEUTICALS COMPANY	DIN OWNER	Y	Y	N			"6733 MISSISSAUGA ROAD, SUITE 400"	MISSISSAUGA	ONTARIO	CANADA	L5N 6J5	
83033	OBT08	10028	COBALT PHARMACEUTICALS COMPANY	DIN OWNER	Y	Y	N			"6733 MISSISSAUGA ROAD, SUITE 400"	MISSISSAUGA	ONTARIO	CANADA	L5N 6J5	
83034	OBT08	10028	COBALT PHARMACEUTICALS COMPANY	DIN OWNER	Y	Y	N			"6733 MISSISSAUGA ROAD, SUITE 400"	MISSISSAUGA	ONTARIO	CANADA	L5N 6J5	
83035	OBT08	10028	COBALT PHARMACEUTICALS COMPANY	DIN OWNER	Y	Y	N			"6733 MISSISSAUGA ROAD, SUITE 400"	MISSISSAUGA	ONTARIO	CANADA	L5N 6J5	
83036	OBT08	10028	COBALT PHARMACEUTICALS COMPANY	DIN OWNER	Y	Y	N			"6733 MISSISSAUGA ROAD, SUITE 400"	MISSISSAUGA	ONTARIO	CANADA	L5N 6J5	
83043		14243	TRANSDERMAL CORP.	DIN OWNER	Y	Y	Y			2002-B HAZEL STREET	BIRMINGHAM	MICHIGAN	UNITED STATES	48009	
83044		12932	INNOVATECH INC	DIN OWNER	Y	Y	Y			519 GOLF LINKS ROAD	ANCASTER	ONTARIO	CANADA	L9G 4X6	
83048		12932	INNOVATECH INC	DIN OWNER	Y	Y	Y			519 GOLF LINKS ROAD	ANCASTER	ONTARIO	CANADA	L9G 4X6	
83049		13049	4410602 CANADA INC	DIN OWNER	Y	Y	Y			"300 SOUTH EGDEWARE, UNIT 205"	ST THOMAS	ONTARIO	CANADA	N5P 4L1	
83057	OBT08	10028	COBALT PHARMACEUTICALS COMPANY	DIN OWNER	Y	Y	N			"6733 MISSISSAUGA ROAD, SUITE 400"	MISSISSAUGA	ONTARIO	CANADA	L5N 6J5	
83058	OBT08	10028	COBALT PHARMACEUTICALS COMPANY	DIN OWNER	Y	Y	N			"6733 MISSISSAUGA ROAD, SUITE 400"	MISSISSAUGA	ONTARIO	CANADA	L5N 6J5	
83059	OBT08	10028	COBALT PHARMACEUTICALS COMPANY	DIN OWNER	Y	Y	N			"6733 MISSISSAUGA ROAD, SUITE 400"	MISSISSAUGA	ONTARIO	CANADA	L5N 6J5	
83060	OBT08	10028	COBALT PHARMACEUTICALS COMPANY	DIN OWNER	Y	Y	N			"6733 MISSISSAUGA ROAD, SUITE 400"	MISSISSAUGA	ONTARIO	CANADA	L5N 6J5	
83061	OBT08	10028	COBALT PHARMACEUTICALS COMPANY	DIN OWNER	Y	Y	N			"6733 MISSISSAUGA ROAD, SUITE 400"	MISSISSAUGA	ONTARIO	CANADA	L5N 6J5	
83062	OBT08	10028	COBALT PHARMACEUTICALS COMPANY	DIN OWNER	Y	Y	N			"6733 MISSISSAUGA ROAD, SUITE 400"	MISSISSAUGA	ONTARIO	CANADA	L5N 6J5	
83063	OBT08	10028	COBALT PHARMACEUTICALS COMPANY	DIN OWNER	Y	Y	N			"6733 MISSISSAUGA ROAD, SUITE 400"	MISSISSAUGA	ONTARIO	CANADA	L5N 6J5	
83064	OBT08	10028	COBALT PHARMACEUTICALS COMPANY	DIN OWNER	Y	Y	N			"6733 MISSISSAUGA ROAD, SUITE 400"	MISSISSAUGA	ONTARIO	CANADA	L5N 6J5	
83065	OBT08	10028	COBALT PHARMACEUTICALS COMPANY	DIN OWNER	Y	Y	N			"6733 MISSISSAUGA ROAD, SUITE 400"	MISSISSAUGA	ONTARIO	CANADA	L5N 6J5	
83066	OBT08	10028	COBALT PHARMACEUTICALS COMPANY	DIN OWNER	Y	Y	N			"6733 MISSISSAUGA ROAD, SUITE 400"	MISSISSAUGA	ONTARIO	CANADA	L5N 6J5	
83068		13838	TORRENT PHARMACEUTICALS LIMITED	DIN OWNER	Y	N	N			AHMEDABAD-MEHSANA HIGHWAY	"TALUKA-KADI DIST. OF MEHSANA, INDRAD"	GUJARAT	INDIA	382721	
83069		13838	TORRENT PHARMACEUTICALS LIMITED	DIN OWNER	Y	N	N			AHMEDABAD-MEHSANA HIGHWAY	"TALUKA-KADI DIST. OF MEHSANA, INDRAD"	GUJARAT	INDIA	382721	
83070		13838	TORRENT PHARMACEUTICALS LIMITED	DIN OWNER	Y	N	N			AHMEDABAD-MEHSANA HIGHWAY	"TALUKA-KADI DIST. OF MEHSANA, INDRAD"	GUJARAT	INDIA	382721	
83092		14353	INSPIRE PHARMACEUTICALS INC	DIN OWNER	Y	Y	Y			"1925 WESTFIELD COURT, SUITE 300"	LAKE FOREST	ILLINOIS	UNITED STATES	60045	
83113		12027	SANDOZ CANADA INCORPORATED	DIN OWNER	Y	Y	Y			145 JULES-LÉGER STREET	BOUCHERVILLE	QUEBEC	CANADA	J4B 7K8	
83114		12027	SANDOZ CANADA INCORPORATED	DIN OWNER	Y	Y	Y			145 JULES-LÉGER STREET	BOUCHERVILLE	QUEBEC	CANADA	J4B 7K8	
83117		14318	TEVA CANADA LIMITED	DIN OWNER	Y	Y	N			30 NOVOPHARM COURT	TORONTO	ONTARIO	CANADA	M1B 2K9	
83118		14318	TEVA CANADA LIMITED	DIN OWNER	Y	Y	N			30 NOVOPHARM COURT	TORONTO	ONTARIO	CANADA	M1B 2K9	
83119		14318	TEVA CANADA LIMITED	DIN OWNER	Y	Y	N			30 NOVOPHARM COURT	TORONTO	ONTARIO	CANADA	M1B 2K9	
83124		12051	AUROBINDO PHARMA LIMITED (UNIT III)	DIN OWNER	Y	N	N			"SURVEY NO. 313, BACHUPALLY, QUTHUBULLAPUR MANDAL"	HYDERABAD	TELANGANA	INDIA	500072	
83131		7476	EDMONTON RADIOPHARMACEUTICAL CENTRE (ALBERTA HEALTH SERVICES)	DIN OWNER	Y	Y	Y			"11560 UNIVERSITY AVENUE, SUITE 1301"	EDMONTON	ALBERTA	CANADA	T6G 1Z2	
83145		13994	ALBERTA HEALTH SERVICES	DIN OWNER	Y	Y	N		1500 SUN LIFE PLACE	10123-99 STREET	EDMONTON	ALBERTA	CANADA	T5J 3H1	
83156		12966	LABORATOIRE M2 INC	DIN OWNER	Y	Y	Y			4005-A RUE DE LA GARLOCK	SHERBROOKE	QUEBEC	CANADA	J1L 1W9	
83162	PGA08	4911	PROCTER & GAMBLE INC	DIN OWNER	Y	N	N	N		4711 YONGE STREET	TORONTO	ONTARIO	CANADA	M2N 6K8	
83208		9571	PARKSIDE PROFESSIONAL PRODUCTS LTD	DIN OWNER	Y	Y	N	N		4777 KENT AVE	NIAGARA FALLS	ONTARIO	CANADA	L2H 1J5	
83210		14311	THOR SPECIALTIES INC.	DIN OWNER	Y	Y	Y			50 WATERVIEW DRIVE	SHELTON	CONNECTICUT	UNITED STATES	6484	
83211		14311	THOR SPECIALTIES INC.	DIN OWNER	Y	Y	Y			50 WATERVIEW DRIVE	SHELTON	CONNECTICUT	UNITED STATES	6484	
83212		14311	THOR SPECIALTIES INC.	DIN OWNER	Y	Y	Y			50 WATERVIEW DRIVE	SHELTON	CONNECTICUT	UNITED STATES	6484	
83213		14311	THOR SPECIALTIES INC.	DIN OWNER	Y	Y	Y			50 WATERVIEW DRIVE	SHELTON	CONNECTICUT	UNITED STATES	6484	
83234		9571	PARKSIDE PROFESSIONAL PRODUCTS LTD	DIN OWNER	Y	Y	N	N		4777 KENT AVE	NIAGARA FALLS	ONTARIO	CANADA	L2H 1J5	
83246		8927	MASON CHEMICAL COMPANY	DIN OWNER	Y	Y	N	N		"723 WEST ALGONQUIN ROAD, SUITE B"	ARLINGTON HEIGHTS	ILLINOIS	UNITED STATES	60005	
83250		12027	SANDOZ CANADA INCORPORATED	DIN OWNER	Y	Y	Y			145 JULES-LÉGER STREET	BOUCHERVILLE	QUEBEC	CANADA	J4B 7K8	
83273	APX08	3636	APOTEX INC	DIN OWNER	Y	Y	Y	N		150 SIGNET DRIVE	TORONTO	ONTARIO	CANADA	M9L 1T9	
83274	APX08	3636	APOTEX INC	DIN OWNER	Y	Y	Y	N		150 SIGNET DRIVE	TORONTO	ONTARIO	CANADA	M9L 1T9	
83331	OBT08	10028	COBALT PHARMACEUTICALS COMPANY	DIN OWNER	Y	Y	N			"6733 MISSISSAUGA ROAD, SUITE 400"	MISSISSAUGA	ONTARIO	CANADA	L5N 6J5	
83332	OBT08	10028	COBALT PHARMACEUTICALS COMPANY	DIN OWNER	Y	Y	N			"6733 MISSISSAUGA ROAD, SUITE 400"	MISSISSAUGA	ONTARIO	CANADA	L5N 6J5	
83333	OBT08	10028	COBALT PHARMACEUTICALS COMPANY	DIN OWNER	Y	Y	N			"6733 MISSISSAUGA ROAD, SUITE 400"	MISSISSAUGA	ONTARIO	CANADA	L5N 6J5	
83383		14624	PFIZER CONSUMER HEALTHCARE A DIVISION OF PFIZER CANADA INC	DIN OWNER	Y	N	Y			"55 STANDISH COURT, SUITE 450"	MISSISSAUGA	ONTARIO	CANADA	L5R 4B2	
83390		14345	BIODERM TECHNOLOGIES INC	DIN OWNER	Y	Y	Y			9 GEORGETOWN-CHESTERFIELD RD	CHESTERFIELD	NEW JERSEY	UNITED STATES	8515	
83396		13745	LIBERCHEM INC	DIN OWNER	Y	Y	Y			572 AVENUE ORLY	DORVAL	QUEBEC	CANADA	H9P 1E9	
83447		14169	VELTEK ASSOCIATES INC	DIN OWNER	Y	N	N			15 LEE BOULEVARD	MALVERN	PENNSYLVANIA	UNITED STATES	19355-1234	
83475		9565	DRAXIMAGE A DIVISION OF DRAXIS SPECIALTY PHARMACEUTICALS INC	DIN OWNER	Y	Y	Y			16751 TRANS CANADA HWY	KIRKLAND	QUEBEC	CANADA	H9H 4J4	
83477		7962	HAMILTON HEALTH SCIENCES CORPORATION	DIN OWNER	Y	Y	Y			1200 MAIN ST. W.	HAMILTON	ONTARIO	CANADA	L8N 3Z5	2000
83478		7476	EDMONTON RADIOPHARMACEUTICAL CENTRE (ALBERTA HEALTH SERVICES)	DIN OWNER	Y	Y	Y			"11560 UNIVERSITY AVENUE, SUITE 1301"	EDMONTON	ALBERTA	CANADA	T6G 1Z2	
83480		7476	EDMONTON RADIOPHARMACEUTICAL CENTRE (ALBERTA HEALTH SERVICES)	DIN OWNER	Y	Y	Y			"11560 UNIVERSITY AVENUE, SUITE 1301"	EDMONTON	ALBERTA	CANADA	T6G 1Z2	
83492		13049	4410602 CANADA INC	DIN OWNER	Y	Y	Y			"300 SOUTH EGDEWARE, UNIT 205"	ST THOMAS	ONTARIO	CANADA	N5P 4L1	
83510		17215	ENTREPRISES SI-MART INC	DIN OWNER	Y	Y	N			19 RUE DU VILLAGE	JOLY	QUEBEC	CANADA	G0S 1M0	
83530	JAJ07	4402	JOHNSON & JOHNSON INC	DIN OWNER	Y	Y	Y	N		88 MCNABB STREET	MARKHAM	ONTARIO	CANADA	L3R 5L2	
83543		11271	RANBAXY PHARMACEUTICALS CANADA INC.	DIN OWNER	Y	Y	Y			126 EAST DRIVE	BRAMPTON	ONTARIO	CANADA	L6T 1C1	
83544		11271	RANBAXY PHARMACEUTICALS CANADA INC.	DIN OWNER	Y	Y	Y			126 EAST DRIVE	BRAMPTON	ONTARIO	CANADA	L6T 1C1	
83556	SGQ07	5108	LABORATOIRES STERIGEN INC	DIN OWNER	Y	Y	N	N		242 ST-CYRILLE OUEST	UPTON	QUEBEC	CANADA	J0H 2E0	
83574		12195	VALESCO PHARMACEUTICALS INC	DIN OWNER	Y	Y	Y			3592 BOUL. POIRIER	SAINT-LAURENT	QUEBEC	CANADA	H4R 2J5	
83575		12932	INNOVATECH INC	DIN OWNER	Y	Y	Y			519 GOLF LINKS ROAD	ANCASTER	ONTARIO	CANADA	L9G 4X6	
83583	AYA07	3690	A.S.L. INTERNATIONAL	DIN OWNER	Y	Y	Y	N		1495 RUE EVERGREEN	ST-BRUNO	QUEBEC	CANADA	J3V 4C6	
83607		14411	CLEAN4E INC.	DIN OWNER	Y	Y	N		SUITE 555	9500 MEILLEUR STREET	MONTREAL	QUEBEC	CANADA	H2N 2B7	
83634		14406	ALCIS HEALTH INC.	DIN OWNER	Y	N	N			122 SARATOGA AVENUE	SANTA CLARA	CALIFORNIA	UNITED STATES	95051	
83636	PHH07	4917	PHARMEL INC	DIN OWNER	Y	Y	Y	N		"6111, AVENUE ROYALMOUNT, SUITE 100"	MONTREAL	QUEBEC	CANADA	H4P 2T4	
83637	PHH07	4917	PHARMEL INC	DIN OWNER	Y	Y	Y	N		"6111, AVENUE ROYALMOUNT, SUITE 100"	MONTREAL	QUEBEC	CANADA	H4P 2T4	
83638	PHH07	4917	PHARMEL INC	DIN OWNER	Y	Y	Y	N		"6111, AVENUE ROYALMOUNT, SUITE 100"	MONTREAL	QUEBEC	CANADA	H4P 2T4	
83639	PHH07	4917	PHARMEL INC	DIN OWNER	Y	Y	Y	N		"6111, AVENUE ROYALMOUNT, SUITE 100"	MONTREAL	QUEBEC	CANADA	H4P 2T4	
83650		12195	VALESCO PHARMACEUTICALS INC	DIN OWNER	Y	Y	Y			3592 BOUL. POIRIER	SAINT-LAURENT	QUEBEC	CANADA	H4R 2J5	
83699		16555	FRESENIUS KABI CANADA LTD	DIN OWNER	Y	Y	Y			"165 GALAXY BLVD, SUITE 100"	TORONTO	ONTARIO	CANADA	M9W 0C8	
83707		14318	TEVA CANADA LIMITED	DIN OWNER	Y	Y	N			30 NOVOPHARM COURT	TORONTO	ONTARIO	CANADA	M1B 2K9	
83708		14318	TEVA CANADA LIMITED	DIN OWNER	Y	Y	N			30 NOVOPHARM COURT	TORONTO	ONTARIO	CANADA	M1B 2K9	
83709		14318	TEVA CANADA LIMITED	DIN OWNER	Y	Y	N			30 NOVOPHARM COURT	TORONTO	ONTARIO	CANADA	M1B 2K9	
83727	OBT08	10028	COBALT PHARMACEUTICALS COMPANY	DIN OWNER	Y	Y	N			"6733 MISSISSAUGA ROAD, SUITE 400"	MISSISSAUGA	ONTARIO	CANADA	L5N 6J5	
83740		12052	AUROBINDO PHARMA LIMITED (UNIT VI)	DIN OWNER	Y	N	N			SURVEY NOS 329/39 & 329/47 CHITKUL VILLAGE PATANCHERU	HYDERABAD	ANDHRA PRADESH	INDIA	502307	
83741		12052	AUROBINDO PHARMA LIMITED (UNIT VI)	DIN OWNER	Y	N	N			SURVEY NOS 329/39 & 329/47 CHITKUL VILLAGE PATANCHERU	HYDERABAD	ANDHRA PRADESH	INDIA	502307	
83742		12052	AUROBINDO PHARMA LIMITED (UNIT VI)	DIN OWNER	Y	N	N			SURVEY NOS 329/39 & 329/47 CHITKUL VILLAGE PATANCHERU	HYDERABAD	ANDHRA PRADESH	INDIA	502307	
83743	REK07	5010	RECKITT BENCKISER (CANADA) INC	DIN OWNER	Y	Y	Y	N	UNIT #2	1680 TECH AVENUE	MISSISSAUGA	ONTARIO	CANADA	L4W 5S9	
83746		14443	BBJ ENVIRONMENTAL SOLUTIONS	DIN OWNER	Y	N	N			6321 PELICAN CREEK CIRCLE	RIVERVIEW	FLORIDA	UNITED STATES	33578	
83751		13049	4410602 CANADA INC	DIN OWNER	Y	Y	Y			"300 SOUTH EGDEWARE, UNIT 205"	ST THOMAS	ONTARIO	CANADA	N5P 4L1	
83759	NVR07	7277	NOVARTIS PHARMACEUTICALS CANADA INC	DIN OWNER	Y	Y	Y	N		385 BOUCHARD BLVD	DORVAL	QUEBEC	CANADA	H9S 1A9	
83771		14441	"H2OCEAN, INC."	DIN OWNER	Y	Y	Y			7938 SW JACK JAMES DRIVE	STUART	FLORIDA	UNITED STATES	34997	
83776	BAX08	3699	BAXTER CORPORATION	DIN OWNER	Y	Y	Y	N		7125 MISSISSAUGA ROAD	MISSISSAUGA	ONTARIO	CANADA	L5N 0C2	
83814	YNO08	5348	BAYER INC CONSUMER CARE	DIN OWNER	Y	N	Y	N		2920  MATHESON BLVD E	MISSISSAUGA	ONTARIO	CANADA	L4W 5R6	
83823		14236	SANIS HEALTH INC	DIN OWNER	Y	N	N			1 PRESIDENTS CHOICE CIRCLE	BRAMPTON	ONTARIO	CANADA	L6Y 5S5	
83826	YNO08	5348	BAYER INC CONSUMER CARE	DIN OWNER	Y	N	Y	N		2920  MATHESON BLVD E	MISSISSAUGA	ONTARIO	CANADA	L4W 5R6	
83831	YNO08	5348	BAYER INC CONSUMER CARE	DIN OWNER	Y	N	Y	N		2920  MATHESON BLVD E	MISSISSAUGA	ONTARIO	CANADA	L4W 5R6	
83883		13838	TORRENT PHARMACEUTICALS LIMITED	DIN OWNER	Y	N	N			AHMEDABAD-MEHSANA HIGHWAY	"TALUKA-KADI DIST. OF MEHSANA, INDRAD"	GUJARAT	INDIA	382721	
83884		13838	TORRENT PHARMACEUTICALS LIMITED	DIN OWNER	Y	N	N			AHMEDABAD-MEHSANA HIGHWAY	"TALUKA-KADI DIST. OF MEHSANA, INDRAD"	GUJARAT	INDIA	382721	
83885		13838	TORRENT PHARMACEUTICALS LIMITED	DIN OWNER	Y	N	N			AHMEDABAD-MEHSANA HIGHWAY	"TALUKA-KADI DIST. OF MEHSANA, INDRAD"	GUJARAT	INDIA	382721	
83918		11581	AGRISAN SPECIALTY CHEMICAL & PHARMACEUTICAL	DIN OWNER	Y	Y	N			451 SMITH ST	ARTHUR	ONTARIO	CANADA	N0G 1A0	69
83920	PMT07	4933	PHARMETICS (2011) INC	DIN OWNER	Y	Y	Y	N		3695 AUTOROUTE DES LAURENTIDES	LAVAL	QUEBEC	CANADA	H7L 3H7	
83922	APX08	3636	APOTEX INC	DIN OWNER	Y	Y	Y	N		150 SIGNET DRIVE	TORONTO	ONTARIO	CANADA	M9L 1T9	
83923	APX08	3636	APOTEX INC	DIN OWNER	Y	Y	Y	N		150 SIGNET DRIVE	TORONTO	ONTARIO	CANADA	M9L 1T9	
83924	APX08	3636	APOTEX INC	DIN OWNER	Y	Y	Y	N		150 SIGNET DRIVE	TORONTO	ONTARIO	CANADA	M9L 1T9	
83925	APX08	3636	APOTEX INC	DIN OWNER	Y	Y	Y	N		150 SIGNET DRIVE	TORONTO	ONTARIO	CANADA	M9L 1T9	
83940	JSO08	7259	JANSSEN INC	DIN OWNER	Y	N	Y	N		19 GREEN BELT DRIVE	TORONTO	ONTARIO	CANADA	M3C 1L9	
83958	APX08	3636	APOTEX INC	DIN OWNER	Y	Y	Y	N		150 SIGNET DRIVE	TORONTO	ONTARIO	CANADA	M9L 1T9	
83959	PMS07	3550	PHARMASCIENCE INC	DIN OWNER	Y	Y	Y	N	100	"6111, ROYALMOUNT AVENUE"	MONTREAL	QUEBEC	CANADA	H4P 2T4	
83960	PMS07	3550	PHARMASCIENCE INC	DIN OWNER	Y	Y	Y	N	100	"6111, ROYALMOUNT AVENUE"	MONTREAL	QUEBEC	CANADA	H4P 2T4	
83961	PMS07	3550	PHARMASCIENCE INC	DIN OWNER	Y	Y	Y	N	100	"6111, ROYALMOUNT AVENUE"	MONTREAL	QUEBEC	CANADA	H4P 2T4	
83973	TDC95	5251	TENDER CORPORATION	DIN OWNER	Y	Y	Y	N		944 INDUSTRIAL PARK ROAD	LITTLETON	NEW HAMPSHIRE	UNITED STATES	3561	
83981	NEK08	6333	MICRYLIUM LABORATORIES INC.	DIN OWNER	Y	N	N	N		5000-M DUFFERIN STREET	TORONTO	ONTARIO	CANADA	M3H 5T5	
83982		14509	VIROPEX PHARMA	DIN OWNER	Y	Y	N			451 SMITH ST PO BOX 69	ARTHUR	ONTARIO	CANADA	N0G 1A0	69
83986		14510	CENTRE FOR PROBE DEVELOPMENT AND COMMERCIALIZATION	DIN OWNER	Y	N	Y		A303	"1280 MAIN STREET WEST, NUCLEAR RESEARCH BUILDING ANNEX"	HAMILTON	ONTARIO	CANADA	L8S 4K1	
84021		9873	BEIERSDORF CANADA INC	DIN OWNER	Y	N	Y			"2344 ALFRED-NOBEL BLVD.,SUITE 100A"	ST-LAURENT	QUEBEC	CANADA	H4S 0A4	
84037		17049	BIONPHARMA INC	DIN OWNER	Y	Y	Y			"600 ALEXANDER ROAD, SUITE 2-4B"	PRINCETON	NEW JERSEY	UNITED STATES	8540	
84047		13002	CELGENE INC	DIN OWNER	Y	Y	Y			"6755 MISSISSAUGA ROAD, SUITE 600"	MISSISSAUGA	ONTARIO	CANADA	L5N 7Y2	
84062		12789	BALLEY DIRECT	DIN OWNER	Y	Y	Y		117	828 HARBOURSIDE DRIVE	NORTH VANCOUVER	BRITISH COLUMBIA	CANADA	V7P 3R9	
84066		14519	AUSTIN RESEARCH LABS CORP	DIN OWNER	Y	Y	Y			500 ELK STREET	BUFFALO	NEW YORK	UNITED STATES	14210	
84080		14907	MARCAN PHARMACEUTICALS INC	DIN OWNER	Y	N	N		SUITE 4	77 AURIGA DRIVE	OTTAWA	ONTARIO	CANADA	K2E 7Z7	
84081		14907	MARCAN PHARMACEUTICALS INC	DIN OWNER	Y	N	N		SUITE 4	77 AURIGA DRIVE	OTTAWA	ONTARIO	CANADA	K2E 7Z7	
84082		14907	MARCAN PHARMACEUTICALS INC	DIN OWNER	Y	N	N		SUITE 4	77 AURIGA DRIVE	OTTAWA	ONTARIO	CANADA	K2E 7Z7	
84086	DPC07	4065	DOMINION PHARMACAL	DIN OWNER	Y	Y	Y	N	SUITE 100	"6111, AVENUE ROYALMOUNT"	MONTREAL	QUEBEC	CANADA	H4P 2T4	
84094		9859	PRIME ENTERPRISES INC	DIN OWNER	Y	Y	N			16363 NW 49TH AVE.	MIAMI LAKES	FLORIDA	UNITED STATES	33014-6316	
84100		11479	LERNAPHARM (LORIS) INC.	DIN OWNER	Y	Y	N			2323 HALPERN	ST. LAURENT	QUEBEC	CANADA	H4S 1S3	
84105		8541	VITA HEALTH PRODUCTS INC	DIN OWNER	Y	N	Y	N		150 BEGHIN AVENUE	WINNIPEG	MANITOBA	CANADA	R2J 3W2	
84127		9290	CESCO SOLUTIONS INC.	DIN OWNER	Y	Y	Y	N		2227 MIDWAY LANE	BELLINGHAM	WASHINGTON	UNITED STATES	98226	
84143	APX08	3636	APOTEX INC	DIN OWNER	Y	Y	Y	N		150 SIGNET DRIVE	TORONTO	ONTARIO	CANADA	M9L 1T9	
84147		14546	WEIMAN PRODUCTS LLC	DIN OWNER	Y	Y	Y			755 TRI STATE PARKWAY	GURNEE	ILLINOIS	UNITED STATES	60031	
84149		8916	METHAPHARM INC	DIN OWNER	Y	Y	Y	N		81 SINCLAIR BLVD	BRANTFORD	ONTARIO	CANADA	N3S 7X6	
84150		13840	MISSION PRODUCT HOLDINGS INC	DIN OWNER	Y	Y	Y		12 FLOOR	185 MADISON AVENUE	NEW YORK	NEW YORK	UNITED STATES	10016	
84153		11715	WILLIAM MARVY COMPANY INC	DIN OWNER	Y	Y	Y			1540 ST. CLAIR AVENUE	ST. PAUL	MINNESOTA	UNITED STATES	55105	
84159		13840	MISSION PRODUCT HOLDINGS INC	DIN OWNER	Y	Y	Y		12 FLOOR	185 MADISON AVENUE	NEW YORK	NEW YORK	UNITED STATES	10016	
84164		15153	SALIX PHARMACEUTICALS INC	DIN OWNER	Y	Y	Y			400 SOMERSET CORPORATE BOULEVARD	BRIDGEWATER	NEW JERSEY	UNITED STATES	8807	
84165		15153	SALIX PHARMACEUTICALS INC	DIN OWNER	Y	Y	Y			400 SOMERSET CORPORATE BOULEVARD	BRIDGEWATER	NEW JERSEY	UNITED STATES	8807	
84192	JPC10	4415	JAMP PHARMA CORPORATION	DIN OWNER	Y	Y	Y	N		1310 RUE NOBEL	BOUCHERVILLE	QUEBEC	CANADA	J4B 5H3	
84218	JPC10	4415	JAMP PHARMA CORPORATION	DIN OWNER	Y	Y	Y	N		1310 RUE NOBEL	BOUCHERVILLE	QUEBEC	CANADA	J4B 5H3	
84245	SEV07	5096	SERVIER CANADA INC	DIN OWNER	Y	N	N	N		235 BOUL. ARMAND-FRAPPIER  - PARC SCIENTIF. ET DE HAUTE TECH. DE LAVAL	LAVAL	QUEBEC	CANADA	H7V 4A7	
84248		8927	MASON CHEMICAL COMPANY	DIN OWNER	Y	Y	N	N		"723 WEST ALGONQUIN ROAD, SUITE B"	ARLINGTON HEIGHTS	ILLINOIS	UNITED STATES	60005	
84255		11642	HOSPIRA HEALTHCARE CORPORATION	DIN OWNER	Y	Y	Y			17300 TRANS-CANADA HIGHWAY	KIRKLAND	QUEBEC	CANADA	H9J 2M5	
84265		14318	TEVA CANADA LIMITED	DIN OWNER	Y	Y	N			30 NOVOPHARM COURT	TORONTO	ONTARIO	CANADA	M1B 2K9	
84271		14279	DOW CHEMICAL CANADA ULC	DIN OWNER	Y	N	N			4445 MARIE-VICTORIN BLVD	VARENNES	QUEBEC	CANADA	J3X 1T3	
84295	PMS07	3550	PHARMASCIENCE INC	DIN OWNER	Y	Y	Y	N	100	"6111, ROYALMOUNT AVENUE"	MONTREAL	QUEBEC	CANADA	H4P 2T4	
84298	PMS07	3550	PHARMASCIENCE INC	DIN OWNER	Y	Y	Y	N	100	"6111, ROYALMOUNT AVENUE"	MONTREAL	QUEBEC	CANADA	H4P 2T4	
84299	PMS07	3550	PHARMASCIENCE INC	DIN OWNER	Y	Y	Y	N	100	"6111, ROYALMOUNT AVENUE"	MONTREAL	QUEBEC	CANADA	H4P 2T4	
84300	PMS07	3550	PHARMASCIENCE INC	DIN OWNER	Y	Y	Y	N	100	"6111, ROYALMOUNT AVENUE"	MONTREAL	QUEBEC	CANADA	H4P 2T4	
84301	PMS07	3550	PHARMASCIENCE INC	DIN OWNER	Y	Y	Y	N	100	"6111, ROYALMOUNT AVENUE"	MONTREAL	QUEBEC	CANADA	H4P 2T4	
84302	APX08	3636	APOTEX INC	DIN OWNER	Y	Y	Y	N		150 SIGNET DRIVE	TORONTO	ONTARIO	CANADA	M9L 1T9	
84303	APX08	3636	APOTEX INC	DIN OWNER	Y	Y	Y	N		150 SIGNET DRIVE	TORONTO	ONTARIO	CANADA	M9L 1T9	
84335		14568	BODY LIFE CLEAN	DIN OWNER	Y	Y	Y			1775 SPRUCEWOOD AVE	LASALLE	ONTARIO	CANADA	N9J 1X7	
84343		14616	RODIAL	DIN OWNER	Y	Y	N		SUITE 3.25	"535 KINGS ROAD, THE PLAZA"	LONDON	SAONE ET LOIRE	UNITED KINGDOM	SW10 0SZ	
84345	APX08	3636	APOTEX INC	DIN OWNER	Y	Y	Y	N		150 SIGNET DRIVE	TORONTO	ONTARIO	CANADA	M9L 1T9	
84346	APX08	3636	APOTEX INC	DIN OWNER	Y	Y	Y	N		150 SIGNET DRIVE	TORONTO	ONTARIO	CANADA	M9L 1T9	
84355	GOQ08	7007	LOGAN PHARMACEUTICALS INC.	DIN OWNER	Y	Y	Y	N	UNIT# 4	431 ALDEN ROAD	MARKHAM	ONTARIO	CANADA	L3R 3L4	
84359		9408	THE CLOROX COMPANY	DIN OWNER	Y	N	N	N		1221 BROADWAY	OAKLAND	CALIFORNIA	UNITED STATES	94612-1888	
84374		14318	TEVA CANADA LIMITED	DIN OWNER	Y	Y	N			30 NOVOPHARM COURT	TORONTO	ONTARIO	CANADA	M1B 2K9	
84375		14318	TEVA CANADA LIMITED	DIN OWNER	Y	Y	N			30 NOVOPHARM COURT	TORONTO	ONTARIO	CANADA	M1B 2K9	
84376		14318	TEVA CANADA LIMITED	DIN OWNER	Y	Y	N			30 NOVOPHARM COURT	TORONTO	ONTARIO	CANADA	M1B 2K9	
84377	RAX08	8892	STERIMAX INC	DIN OWNER	Y	Y	Y			2770 PORTLAND DRIVE	OAKVILLE	ONTARIO	CANADA	L6H 6R4	
84385		13930	MYLAN PHARMACEUTICALS ULC	DIN OWNER	Y	Y	Y			85 ADVANCE ROAD	ETOBICOKE	ONTARIO	CANADA	M8Z 2S6	
84397	JPC10	4415	JAMP PHARMA CORPORATION	DIN OWNER	Y	Y	Y	N		1310 RUE NOBEL	BOUCHERVILLE	QUEBEC	CANADA	J4B 5H3	
84405	REK07	5010	RECKITT BENCKISER (CANADA) INC	DIN OWNER	Y	Y	Y	N	UNIT #2	1680 TECH AVENUE	MISSISSAUGA	ONTARIO	CANADA	L4W 5S9	
84408		14907	MARCAN PHARMACEUTICALS INC	DIN OWNER	Y	N	N		SUITE 4	77 AURIGA DRIVE	OTTAWA	ONTARIO	CANADA	K2E 7Z7	
84409		14907	MARCAN PHARMACEUTICALS INC	DIN OWNER	Y	N	N		SUITE 4	77 AURIGA DRIVE	OTTAWA	ONTARIO	CANADA	K2E 7Z7	
84410		14907	MARCAN PHARMACEUTICALS INC	DIN OWNER	Y	N	N		SUITE 4	77 AURIGA DRIVE	OTTAWA	ONTARIO	CANADA	K2E 7Z7	
84411		14907	MARCAN PHARMACEUTICALS INC	DIN OWNER	Y	N	N		SUITE 4	77 AURIGA DRIVE	OTTAWA	ONTARIO	CANADA	K2E 7Z7	
84412		14907	MARCAN PHARMACEUTICALS INC	DIN OWNER	Y	N	N		SUITE 4	77 AURIGA DRIVE	OTTAWA	ONTARIO	CANADA	K2E 7Z7	
84413		14907	MARCAN PHARMACEUTICALS INC	DIN OWNER	Y	N	N		SUITE 4	77 AURIGA DRIVE	OTTAWA	ONTARIO	CANADA	K2E 7Z7	
84418	JPC10	4415	JAMP PHARMA CORPORATION	DIN OWNER	Y	Y	Y	N		1310 RUE NOBEL	BOUCHERVILLE	QUEBEC	CANADA	J4B 5H3	
84433		14636	EARTHPAWZ INC	DIN OWNER	Y	Y	Y		SUITE 250	245 KING GEORGE STREET	BRAMPTON	ONTARIO	CANADA	N3R 7N7	
84436	GCC08	4231	GERMIPHENE CORPORATION	DIN OWNER	Y	Y	Y	N		1379 COLBORNE STREET EAST	BRANTFORD	ONTARIO	CANADA	N3T 5M1	
84437		12007	PARTNAR ANIMAL HEALTH INC	DIN OWNER	Y	Y	Y			14057 ILDERTON ROAD	ILDERTON	ONTARIO	CANADA	N0M 2A0	
84444		16524	BGP PHARMA ULC	DIN OWNER	Y	Y	Y			85 ADVANCE ROAD	ETOBICOKE	ONTARIO	CANADA	M8Z 2S6	
84445		16524	BGP PHARMA ULC	DIN OWNER	Y	Y	Y			85 ADVANCE ROAD	ETOBICOKE	ONTARIO	CANADA	M8Z 2S6	
84446		11715	WILLIAM MARVY COMPANY INC	DIN OWNER	Y	Y	Y			1540 ST. CLAIR AVENUE	ST. PAUL	MINNESOTA	UNITED STATES	55105	
84469		12463	GENMED A DIVISION OF PFIZER CANADA INC	DIN OWNER	Y	Y	Y			17300 TRANS CANADA HIGHWAY	KIRKLAND	QUEBEC	CANADA	H9J 2M5	
84477		7119	COTY CANADA INC.	DIN OWNER	Y	Y	N	N	200	1255 TRANS CANADA HWY	DORVAL	QUEBEC	CANADA	H9P 2V4	185
84489	SGQ07	5108	LABORATOIRES STERIGEN INC	DIN OWNER	Y	Y	N	N		242 ST-CYRILLE OUEST	UPTON	QUEBEC	CANADA	J0H 2E0	
84491	MCL08	4569	MCNEIL CONSUMER HEALTHCARE DIVISION OF JOHNSON & JOHNSON INC	DIN OWNER	Y	Y	Y	N		88 MCNABB STREET	MARKHAM	ONTARIO	CANADA	L3R 5L2	
84506		16555	FRESENIUS KABI CANADA LTD	DIN OWNER	Y	Y	Y			"165 GALAXY BLVD, SUITE 100"	TORONTO	ONTARIO	CANADA	M9W 0C8	
84517		14169	VELTEK ASSOCIATES INC	DIN OWNER	Y	N	N			15 LEE BOULEVARD	MALVERN	PENNSYLVANIA	UNITED STATES	19355-1234	
84518		14169	VELTEK ASSOCIATES INC	DIN OWNER	Y	N	N			15 LEE BOULEVARD	MALVERN	PENNSYLVANIA	UNITED STATES	19355-1234	
84521		14691	JUBILANT DRAXIMAGE INC	DIN OWNER	Y	Y	Y			16751 TRANS CANADA HWY	KIRKLAND	QUEBEC	CANADA	H9H 4J4	
84522		14691	JUBILANT DRAXIMAGE INC	DIN OWNER	Y	Y	Y			16751 TRANS CANADA HWY	KIRKLAND	QUEBEC	CANADA	H9H 4J4	
84524		14318	TEVA CANADA LIMITED	DIN OWNER	Y	Y	N			30 NOVOPHARM COURT	TORONTO	ONTARIO	CANADA	M1B 2K9	
84525		14318	TEVA CANADA LIMITED	DIN OWNER	Y	Y	N			30 NOVOPHARM COURT	TORONTO	ONTARIO	CANADA	M1B 2K9	
84526		14318	TEVA CANADA LIMITED	DIN OWNER	Y	Y	N			30 NOVOPHARM COURT	TORONTO	ONTARIO	CANADA	M1B 2K9	
84540		9290	CESCO SOLUTIONS INC.	DIN OWNER	Y	Y	Y	N		2227 MIDWAY LANE	BELLINGHAM	WASHINGTON	UNITED STATES	98226	
84542		14602	PT TECHNOLOGIES EUROPE	DIN OWNER	Y	Y	Y			MEENANE	WATERGRASSHILL	CORK	IRELAND	CO.CORK	
84568	TLI07	5266	LABORATOIRES TRIANON INC	DIN OWNER	Y	Y	N	N		660 BOULEVARD INDUSTRIEL	BLAINVILLE	QUEBEC	CANADA	J7C 3V4	
84575		14599	"PHARMACEUTICAL INNOVATIONS, INCORPORATED"	DIN OWNER	Y	Y	N			897 FRELINGHUYSEN AVENUE	NEWARK	NEW JERSEY	UNITED STATES	07114-2195	
84577		14102	DERMAZONE SOLUTIONS CANADA INC.	DIN OWNER	Y	N	N			"135 COMMERCIAL DRIVE, SUITE 8"	CALGARY	ALBERTA	CANADA	T3Z 2A7	
84578		14102	DERMAZONE SOLUTIONS CANADA INC.	DIN OWNER	Y	N	N			"135 COMMERCIAL DRIVE, SUITE 8"	CALGARY	ALBERTA	CANADA	T3Z 2A7	
84585		13994	ALBERTA HEALTH SERVICES	DIN OWNER	Y	Y	N		1500 SUN LIFE PLACE	10123-99 STREET	EDMONTON	ALBERTA	CANADA	T5J 3H1	
84612		13080	ARROW OTC COMPANY	DIN OWNER	Y	Y	Y			6500 KITIMAT ROAD	MISSISSAUGA	ONTARIO	CANADA	L5N 2B8	
84613		8927	MASON CHEMICAL COMPANY	DIN OWNER	Y	Y	N	N		"723 WEST ALGONQUIN ROAD, SUITE B"	ARLINGTON HEIGHTS	ILLINOIS	UNITED STATES	60005	
84614		8927	MASON CHEMICAL COMPANY	DIN OWNER	Y	Y	N	N		"723 WEST ALGONQUIN ROAD, SUITE B"	ARLINGTON HEIGHTS	ILLINOIS	UNITED STATES	60005	
84630	PMT07	4933	PHARMETICS (2011) INC	DIN OWNER	Y	Y	Y	N		3695 AUTOROUTE DES LAURENTIDES	LAVAL	QUEBEC	CANADA	H7L 3H7	
84645		14510	CENTRE FOR PROBE DEVELOPMENT AND COMMERCIALIZATION	DIN OWNER	Y	N	Y		A303	"1280 MAIN STREET WEST, NUCLEAR RESEARCH BUILDING ANNEX"	HAMILTON	ONTARIO	CANADA	L8S 4K1	
84665	TNG07	5273	L.P. TANGUAY LTEE	DIN OWNER	Y	Y	N	N		673 9 IEME RUE OUEST	THETFORD MINES	QUEBEC	CANADA	G6G 5T1	304
84669		14492	TOTAL SCIENCE CANADA INCORPORATION	DIN OWNER	Y	Y	Y		#201	2121 CRESCENT	MONTREAL	QUEBEC	CANADA	H3G 2C1	
84671		11738	MERFIN SYSTEMS LLC	DIN OWNER	Y	Y	N			105 INDUSTRIAL DRIVE	KING	NORTH CAROLINA	UNITED STATES	27021	
84714		9904	OMBRELLE CANADA	DIN OWNER	Y	N	N			4895 HICKMORE	MONTREAL	QUEBEC	CANADA	H4T 1K5	
84740		8541	VITA HEALTH PRODUCTS INC	DIN OWNER	Y	N	Y	N		150 BEGHIN AVENUE	WINNIPEG	MANITOBA	CANADA	R2J 3W2	
84742	PMS07	3550	PHARMASCIENCE INC	DIN OWNER	Y	Y	Y	N	100	"6111, ROYALMOUNT AVENUE"	MONTREAL	QUEBEC	CANADA	H4P 2T4	
84755		14679	WHARTON INNOVATIVE PRODUCTS LLC	DIN OWNER	Y	Y	Y			86 NORTH MAIN STREET	WHARTON	NEW JERSEY	UNITED STATES	7885	
84771		14587	TALLEY ENVIRONMENTAL CARE LTD	DIN OWNER	Y	Y	Y			HANNAH WAY	"GORDLETON INDUSTRIAL PARK, LYMINGTON"	HAMPSHIRE	UNITED KINGDOM	SO41 8JD	
84773		14690	BIOTEC ENVIRONMENTALSOLUTIONS LTD	DIN OWNER	Y	Y	Y			183 PO BOX 8000	ABBOTSFORD	BRITISH COLUMBIA	CANADA	V2S 6H1	PO BOX 8000
84798		14236	SANIS HEALTH INC	DIN OWNER	Y	N	N			1 PRESIDENTS CHOICE CIRCLE	BRAMPTON	ONTARIO	CANADA	L6Y 5S5	
84799		14236	SANIS HEALTH INC	DIN OWNER	Y	N	N			1 PRESIDENTS CHOICE CIRCLE	BRAMPTON	ONTARIO	CANADA	L6Y 5S5	
84800		14236	SANIS HEALTH INC	DIN OWNER	Y	N	N			1 PRESIDENTS CHOICE CIRCLE	BRAMPTON	ONTARIO	CANADA	L6Y 5S5	
84815	WTK09	5446	WATKINS INCORPORATED	DIN OWNER	Y	Y	N	N		1905 WAYZATA BLVD EAST SUITE 280	WAYZATA	MINNESOTA	UNITED STATES	55391	
84819		14743	NEHEMIAH MANUFACTURING COMPANY	DIN OWNER	Y	N	N			1130 FINDLAY STREET	CINCINNATI	OHIO	UNITED STATES	45214	
84880		10712	COSMACEUTICAL RESEARCH LAB INC.	DIN OWNER	Y	Y	Y			12920 - 84TH AVENUE	SURREY	BRITISH COLUMBIA	CANADA	V3W 1K7	
84958		9310	STARLIGHT TANNING INC.	DIN OWNER	Y	Y	Y			470 INDUSTRIAL AVENUE	WOODSTOCK	ONTARIO	CANADA	N4S 7L1	
84986	ALC08	3594	ALCON CANADA INC	DIN OWNER	Y	Y	Y	N		2665 MEADOWPINE BLVD	MISSISSAUGA	ONTARIO	CANADA	L5N 8C7	
85008		12027	SANDOZ CANADA INCORPORATED	DIN OWNER	Y	Y	Y			145 JULES-LÉGER STREET	BOUCHERVILLE	QUEBEC	CANADA	J4B 7K8	
85009		13829	ACCEL PHARMA INC	DIN OWNER	Y	Y	Y			99 PLACE FRONTENAC	POINTE CLAIRE	QUEBEC	CANADA	H9R 4Z7	
85010		13829	ACCEL PHARMA INC	DIN OWNER	Y	Y	Y			99 PLACE FRONTENAC	POINTE CLAIRE	QUEBEC	CANADA	H9R 4Z7	
85011		13829	ACCEL PHARMA INC	DIN OWNER	Y	Y	Y			99 PLACE FRONTENAC	POINTE CLAIRE	QUEBEC	CANADA	H9R 4Z7	
85024		14771	SADICK DERMATOLOGY GROUP	DIN OWNER	Y	Y	N			85 NORTH 3RD STREET SUITE 515	BROOKLYN	NEW YORK	UNITED STATES	11211	
85039	APX08	3636	APOTEX INC	DIN OWNER	Y	Y	Y	N		150 SIGNET DRIVE	TORONTO	ONTARIO	CANADA	M9L 1T9	
85040	APX08	3636	APOTEX INC	DIN OWNER	Y	Y	Y	N		150 SIGNET DRIVE	TORONTO	ONTARIO	CANADA	M9L 1T9	
85041		14587	TALLEY ENVIRONMENTAL CARE LTD	DIN OWNER	Y	Y	Y			HANNAH WAY	"GORDLETON INDUSTRIAL PARK, LYMINGTON"	HAMPSHIRE	UNITED KINGDOM	SO41 8JD	
85047		10405	LE GROUPE ULTRAPAC	DIN OWNER	Y	N	N			1905 LIONEL BERTRAND	BOISBRIAND	QUEBEC	CANADA	J7H 1N8	
85054	NNA08	4763	NOVO NORDISK CANADA INC	DIN OWNER	Y	Y	Y	N		300-2680 SKYMARK AVENUE	MISSISSAUGA	ONTARIO	CANADA	L4W 5L6	
85066		14624	PFIZER CONSUMER HEALTHCARE A DIVISION OF PFIZER CANADA INC	DIN OWNER	Y	N	Y			"55 STANDISH COURT, SUITE 450"	MISSISSAUGA	ONTARIO	CANADA	L5R 4B2	
85076		14907	MARCAN PHARMACEUTICALS INC	DIN OWNER	Y	N	N		SUITE 4	77 AURIGA DRIVE	OTTAWA	ONTARIO	CANADA	K2E 7Z7	
85077		14907	MARCAN PHARMACEUTICALS INC	DIN OWNER	Y	N	N		SUITE 4	77 AURIGA DRIVE	OTTAWA	ONTARIO	CANADA	K2E 7Z7	
85078		14907	MARCAN PHARMACEUTICALS INC	DIN OWNER	Y	N	N		SUITE 4	77 AURIGA DRIVE	OTTAWA	ONTARIO	CANADA	K2E 7Z7	
85084		16529	BAXALTA CANADA CORPORATION	DIN OWNER	Y	Y	Y			7125 MISSISSAUGA ROAD	MISSISSAUGA	ONTARIO	CANADA	L5N 0C2	
85085		16529	BAXALTA CANADA CORPORATION	DIN OWNER	Y	Y	Y			7125 MISSISSAUGA ROAD	MISSISSAUGA	ONTARIO	CANADA	L5N 0C2	
85100		9709	WATSON LABORATORIES INC	DIN OWNER	Y	Y	Y			"85 ENTERPRISE BLVD, SUTIE 500"	MARKHAM	ONTARIO	CANADA	L6G 0B5	
85104		14341	RUBBERMAID COMMERCIAL PRODUCTS LLC	DIN OWNER	Y	Y	Y			3124 VALLEY AVENUE	WINCHESTER	VIRGINIA	UNITED STATES	22601	
85105		14341	RUBBERMAID COMMERCIAL PRODUCTS LLC	DIN OWNER	Y	Y	Y			3124 VALLEY AVENUE	WINCHESTER	VIRGINIA	UNITED STATES	22601	
85107		13049	4410602 CANADA INC	DIN OWNER	Y	Y	Y			"300 SOUTH EGDEWARE, UNIT 205"	ST THOMAS	ONTARIO	CANADA	N5P 4L1	
85108		9126	CHIESI FARMACEUTICI S.P.A.	DIN OWNER	Y	Y	N			26/A VIA PALERMO	PARMA	EMILIA-ROMAGNA	ITALY	43122	
85114		13453	ALLIANCE PACKAGING GROUP INC	DIN OWNER	Y	Y	Y			420 TECHNOLOGY WAY	SAUKVILLE	WISCONSIN	UNITED STATES	53080-1677	
85126	CIF08	3903	C.P. INDUSTRIES LTD	DIN OWNER	Y	Y	Y	N		535 DICKSON DRIVE	FERGUS	ONTARIO	CANADA	N1M 2W8	P.O. BOX 300
85128	PMS07	3550	PHARMASCIENCE INC	DIN OWNER	Y	Y	Y	N	100	"6111, ROYALMOUNT AVENUE"	MONTREAL	QUEBEC	CANADA	H4P 2T4	
85129	PMS07	3550	PHARMASCIENCE INC	DIN OWNER	Y	Y	Y	N	100	"6111, ROYALMOUNT AVENUE"	MONTREAL	QUEBEC	CANADA	H4P 2T4	
85133	RAX08	8892	STERIMAX INC	DIN OWNER	Y	Y	Y			2770 PORTLAND DRIVE	OAKVILLE	ONTARIO	CANADA	L6H 6R4	
85138		14474	CORLISON PTE LTD	DIN OWNER	Y	Y	Y		4-Jun	"126 JOO SENG ROAD, GOLD PINE INDUSTRIAL BUILDING"	.	SAONE ET LOIRE	SINGAPORE	368355	
85148		11805	DECON LABS INC	DIN OWNER	Y	Y	Y			460 GLENNIE CIRCLE	KING OF PRUSSIA	PENNSYLVANIA	UNITED STATES	19406	
85156		7355	JEAN D'ESTREES S.A.S.	DIN OWNER	Y	Y	N	N		65 BIS RUE DU ROCHER	PARIS	SAONE ET LOIRE	FRANCE	75008	
85171		12031	"HACCO, INC."	DIN OWNER	Y	Y	Y			110 HOPKINS DRIVE	RANDOLPH	WISCONSIN	UNITED STATES	53956-1316	
85206		13636	ACCUDIAL PHARMACEUTICAL INC	DIN OWNER	Y	N	N			2091 HARTEL STREET	LEVITTOWN	PENNSYLVANIA	UNITED STATES	19057	
85209		13032	ACCORD HEALTHCARE INC	DIN OWNER	Y	Y	Y			"3535 BOULEVARD ST-CHARLES, SUITE 704"	KIRKLAND	QUEBEC	CANADA	H9H 5B9	
85220		12027	SANDOZ CANADA INCORPORATED	DIN OWNER	Y	Y	Y			145 JULES-LÉGER STREET	BOUCHERVILLE	QUEBEC	CANADA	J4B 7K8	
85233	PMS07	3550	PHARMASCIENCE INC	DIN OWNER	Y	Y	Y	N	100	"6111, ROYALMOUNT AVENUE"	MONTREAL	QUEBEC	CANADA	H4P 2T4	
85246	PMS07	3550	PHARMASCIENCE INC	DIN OWNER	Y	Y	Y	N	100	"6111, ROYALMOUNT AVENUE"	MONTREAL	QUEBEC	CANADA	H4P 2T4	
85249	PMS07	3550	PHARMASCIENCE INC	DIN OWNER	Y	Y	Y	N	100	"6111, ROYALMOUNT AVENUE"	MONTREAL	QUEBEC	CANADA	H4P 2T4	
85252		14702	FLU GOO CORPORATION	DIN OWNER	Y	Y	Y			10 CHAPARRAL VALLEY PL SE	CALGARY	ALBERTA	CANADA	T2X 0M1	
85282		12027	SANDOZ CANADA INCORPORATED	DIN OWNER	Y	Y	Y			145 JULES-LÉGER STREET	BOUCHERVILLE	QUEBEC	CANADA	J4B 7K8	
85316	RAF10	4993	RAFTER 8 PRODUCTS INC	DIN OWNER	Y	Y	Y	N		87 SKYLINE CRESCENT N.E.	CALGARY	ALBERTA	CANADA	T2K 5X2	
85320	JPC10	4415	JAMP PHARMA CORPORATION	DIN OWNER	Y	Y	Y	N		1310 RUE NOBEL	BOUCHERVILLE	QUEBEC	CANADA	J4B 5H3	
85329		11587	MEDLINE INDUSTRIES INCORPORATED	DIN OWNER	Y	N	N			1 MEDLINE PLACE	MUNDELEIN	ILLINOIS	UNITED STATES	60060	
85330		11587	MEDLINE INDUSTRIES INCORPORATED	DIN OWNER	Y	N	N			1 MEDLINE PLACE	MUNDELEIN	ILLINOIS	UNITED STATES	60060	
85334	JPC10	4415	JAMP PHARMA CORPORATION	DIN OWNER	Y	Y	Y	N		1310 RUE NOBEL	BOUCHERVILLE	QUEBEC	CANADA	J4B 5H3	
85336		14169	VELTEK ASSOCIATES INC	DIN OWNER	Y	N	N			15 LEE BOULEVARD	MALVERN	PENNSYLVANIA	UNITED STATES	19355-1234	
85337		13728	PNP PHARMACEUTICALS INC	DIN OWNER	Y	Y	Y			9388 NORTH FRASER CRESCENT	BURNABY	BRITISH COLUMBIA	CANADA	V5J 0E3	
85338		13728	PNP PHARMACEUTICALS INC	DIN OWNER	Y	Y	Y			9388 NORTH FRASER CRESCENT	BURNABY	BRITISH COLUMBIA	CANADA	V5J 0E3	
85339		13728	PNP PHARMACEUTICALS INC	DIN OWNER	Y	Y	Y			9388 NORTH FRASER CRESCENT	BURNABY	BRITISH COLUMBIA	CANADA	V5J 0E3	
85342		13728	PNP PHARMACEUTICALS INC	DIN OWNER	Y	Y	Y			9388 NORTH FRASER CRESCENT	BURNABY	BRITISH COLUMBIA	CANADA	V5J 0E3	
85368		10293	APOLLO HEALTH AND BEAUTY CARE INC.	DIN OWNER	Y	Y	N			1 APOLLO PLACE	TORONTO	ONTARIO	CANADA	M3J 0H2	
85371	APX08	3636	APOTEX INC	DIN OWNER	Y	Y	Y	N		150 SIGNET DRIVE	TORONTO	ONTARIO	CANADA	M9L 1T9	
85375		10712	COSMACEUTICAL RESEARCH LAB INC.	DIN OWNER	Y	Y	Y			12920 - 84TH AVENUE	SURREY	BRITISH COLUMBIA	CANADA	V3W 1K7	
85376		14546	WEIMAN PRODUCTS LLC	DIN OWNER	Y	Y	Y			755 TRI STATE PARKWAY	GURNEE	ILLINOIS	UNITED STATES	60031	
85378		14856	PURE BIOSCIENCE INC.	DIN OWNER	Y	Y	Y			1725 GILLESPIE WAY	EL CAJON	CALIFORNIA	UNITED STATES	92020	
85380	MCL08	4569	MCNEIL CONSUMER HEALTHCARE DIVISION OF JOHNSON & JOHNSON INC	DIN OWNER	Y	Y	Y	N		88 MCNABB STREET	MARKHAM	ONTARIO	CANADA	L3R 5L2	
85402		14256	ANGITA PHARMA INC.	DIN OWNER	Y	N	N			1380 NEWTON UNIT 203	BOUCHERVILLE	QUEBEC	CANADA	J4B 5H2	
85403		14256	ANGITA PHARMA INC.	DIN OWNER	Y	N	N			1380 NEWTON UNIT 203	BOUCHERVILLE	QUEBEC	CANADA	J4B 5H2	
85404		14256	ANGITA PHARMA INC.	DIN OWNER	Y	N	N			1380 NEWTON UNIT 203	BOUCHERVILLE	QUEBEC	CANADA	J4B 5H2	
85406		14256	ANGITA PHARMA INC.	DIN OWNER	Y	N	N			1380 NEWTON UNIT 203	BOUCHERVILLE	QUEBEC	CANADA	J4B 5H2	
85407		14256	ANGITA PHARMA INC.	DIN OWNER	Y	N	N			1380 NEWTON UNIT 203	BOUCHERVILLE	QUEBEC	CANADA	J4B 5H2	
85408		14256	ANGITA PHARMA INC.	DIN OWNER	Y	N	N			1380 NEWTON UNIT 203	BOUCHERVILLE	QUEBEC	CANADA	J4B 5H2	
85411		14256	ANGITA PHARMA INC.	DIN OWNER	Y	N	N			1380 NEWTON UNIT 203	BOUCHERVILLE	QUEBEC	CANADA	J4B 5H2	
85412		14256	ANGITA PHARMA INC.	DIN OWNER	Y	N	N			1380 NEWTON UNIT 203	BOUCHERVILLE	QUEBEC	CANADA	J4B 5H2	
85413		14256	ANGITA PHARMA INC.	DIN OWNER	Y	N	N			1380 NEWTON UNIT 203	BOUCHERVILLE	QUEBEC	CANADA	J4B 5H2	
85415	WAT95	5387	"WATER-JEL TECHNOLOGIES,LLC"	DIN OWNER	Y	N	Y	N		50 BROAD STREET	CARLSTADT	NEW JERSEY	UNITED STATES	7072	
85416		14256	ANGITA PHARMA INC.	DIN OWNER	Y	N	N			1380 NEWTON UNIT 203	BOUCHERVILLE	QUEBEC	CANADA	J4B 5H2	
85429		14256	ANGITA PHARMA INC.	DIN OWNER	Y	N	N			1380 NEWTON UNIT 203	BOUCHERVILLE	QUEBEC	CANADA	J4B 5H2	
85430		14256	ANGITA PHARMA INC.	DIN OWNER	Y	N	N			1380 NEWTON UNIT 203	BOUCHERVILLE	QUEBEC	CANADA	J4B 5H2	
85440	JAJ07	4402	JOHNSON & JOHNSON INC	DIN OWNER	Y	Y	Y	N		88 MCNABB STREET	MARKHAM	ONTARIO	CANADA	L3R 5L2	
85443	PIP95	4923	AMANO PIONEER ECLIPSE CORPORATION	DIN OWNER	Y	Y	Y	N		1 ECLIPSE ROAD	SPARTA	NORTH CAROLINA	UNITED STATES	28675	909
85447		12504	HUVEPHARMA EOOD	DIN OWNER	Y	N	Y			"5TH FLOOR, 3A NIKOLAY HAYTOV STR"	SOFIA	SAONE ET LOIRE	BULGARIA	1113	
85458		14907	MARCAN PHARMACEUTICALS INC	DIN OWNER	Y	N	N		SUITE 4	77 AURIGA DRIVE	OTTAWA	ONTARIO	CANADA	K2E 7Z7	
85459		14624	PFIZER CONSUMER HEALTHCARE A DIVISION OF PFIZER CANADA INC	DIN OWNER	Y	N	Y			"55 STANDISH COURT, SUITE 450"	MISSISSAUGA	ONTARIO	CANADA	L5R 4B2	
85465		7520	GREER LABORATORIES INC	DIN OWNER	Y	Y	Y	N		639 NUWAY CIRCLE	LENOIR	NORTH CAROLINA	UNITED STATES	28645-0800	800
85466		7520	GREER LABORATORIES INC	DIN OWNER	Y	Y	Y	N		639 NUWAY CIRCLE	LENOIR	NORTH CAROLINA	UNITED STATES	28645-0800	800
85485		8675	IMREX INC.	DIN OWNER	Y	N	N	N	UNIT 13	1550 YORKTON COURT	BURLINGTON	ONTARIO	CANADA	L7P 5B7	
85486	BGM08	3744	BIO AGRI MIX LP	DIN OWNER	Y	Y	Y	N		11 ELLENS STREET	MITCHELL	ONTARIO	CANADA	N0K 1N0	399
85496		13049	4410602 CANADA INC	DIN OWNER	Y	Y	Y			"300 SOUTH EGDEWARE, UNIT 205"	ST THOMAS	ONTARIO	CANADA	N5P 4L1	
85499	GOQ08	7007	LOGAN PHARMACEUTICALS INC.	DIN OWNER	Y	Y	Y	N	UNIT# 4	431 ALDEN ROAD	MARKHAM	ONTARIO	CANADA	L3R 3L4	
85516		8541	VITA HEALTH PRODUCTS INC	DIN OWNER	Y	N	Y	N		150 BEGHIN AVENUE	WINNIPEG	MANITOBA	CANADA	R2J 3W2	
85537		13636	ACCUDIAL PHARMACEUTICAL INC	DIN OWNER	Y	N	N			2091 HARTEL STREET	LEVITTOWN	PENNSYLVANIA	UNITED STATES	19057	
85539		14236	SANIS HEALTH INC	DIN OWNER	Y	N	N			1 PRESIDENTS CHOICE CIRCLE	BRAMPTON	ONTARIO	CANADA	L6Y 5S5	
85540		14236	SANIS HEALTH INC	DIN OWNER	Y	N	N			1 PRESIDENTS CHOICE CIRCLE	BRAMPTON	ONTARIO	CANADA	L6Y 5S5	
85542	BGM08	3744	BIO AGRI MIX LP	DIN OWNER	Y	Y	Y	N		11 ELLENS STREET	MITCHELL	ONTARIO	CANADA	N0K 1N0	399
85563		8946	OTSUKA PHARMACEUTICAL CO LTD	DIN OWNER	Y	N	N			2-9 KANDA-TSUKASAMACHI	CHIYODA-KU TOKYO	TOKYO-TO	JAPAN	101-8535	
85571	AIG10	5510	AIRGAS CANADA INC	DIN OWNER	Y	N	Y	N		9552 198TH STREEET	LANGLEY	BRITISH COLUMBIA	CANADA	V1M 3C8	
85591		14907	MARCAN PHARMACEUTICALS INC	DIN OWNER	Y	N	N		SUITE 4	77 AURIGA DRIVE	OTTAWA	ONTARIO	CANADA	K2E 7Z7	
85594	TAN08	5240	TANTA PHARMACEUTICALS INC	DIN OWNER	Y	Y	Y	N		1009 BURNS STREET EAST	WHITBY	ONTARIO	CANADA	L1N 6A6	
85595	TAN08	5240	TANTA PHARMACEUTICALS INC	DIN OWNER	Y	Y	Y	N		1009 BURNS STREET EAST	WHITBY	ONTARIO	CANADA	L1N 6A6	
85620	TAN08	5240	TANTA PHARMACEUTICALS INC	DIN OWNER	Y	Y	Y	N		1009 BURNS STREET EAST	WHITBY	ONTARIO	CANADA	L1N 6A6	
85629	PGA08	4911	PROCTER & GAMBLE INC	DIN OWNER	Y	N	N	N		4711 YONGE STREET	TORONTO	ONTARIO	CANADA	M2N 6K8	
85630	JGD95	4412	PERRIGO INTERNATIONAL	DIN OWNER	Y	Y	Y	N		515 EASTERN AVE	ALLEGAN	MICHIGAN	UNITED STATES	49010-1327	
85639		14616	RODIAL	DIN OWNER	Y	Y	N		SUITE 3.25	"535 KINGS ROAD, THE PLAZA"	LONDON	SAONE ET LOIRE	UNITED KINGDOM	SW10 0SZ	
85664	PMS07	3550	PHARMASCIENCE INC	DIN OWNER	Y	Y	Y	N	100	"6111, ROYALMOUNT AVENUE"	MONTREAL	QUEBEC	CANADA	H4P 2T4	
85672	TAN08	5240	TANTA PHARMACEUTICALS INC	DIN OWNER	Y	Y	Y	N		1009 BURNS STREET EAST	WHITBY	ONTARIO	CANADA	L1N 6A6	
85674		8552	FLAGEOLI LIMITED	DIN OWNER	Y	N	N	N		7421 SILVER PALM CT	LAS VEGAS	NEVADA	UNITED STATES	89117	
85679	JPC10	4415	JAMP PHARMA CORPORATION	DIN OWNER	Y	Y	Y	N		1310 RUE NOBEL	BOUCHERVILLE	QUEBEC	CANADA	J4B 5H3	
85725		14699	NORTHWEST SUPPLEMENTS LTD	DIN OWNER	Y	Y	Y			406-30970 WHEEL AVE	ABBOTSFORD	BRITISH COLUMBIA	CANADA	V2T 6G7	
85728		9859	PRIME ENTERPRISES INC	DIN OWNER	Y	Y	N			16363 NW 49TH AVE.	MIAMI LAKES	FLORIDA	UNITED STATES	33014-6316	
85733	DPC07	4065	DOMINION PHARMACAL	DIN OWNER	Y	Y	Y	N	SUITE 100	"6111, AVENUE ROYALMOUNT"	MONTREAL	QUEBEC	CANADA	H4P 2T4	
85735	DPC07	4065	DOMINION PHARMACAL	DIN OWNER	Y	Y	Y	N	SUITE 100	"6111, AVENUE ROYALMOUNT"	MONTREAL	QUEBEC	CANADA	H4P 2T4	
85737	DPC07	4065	DOMINION PHARMACAL	DIN OWNER	Y	Y	Y	N	SUITE 100	"6111, AVENUE ROYALMOUNT"	MONTREAL	QUEBEC	CANADA	H4P 2T4	
85739	DPC07	4065	DOMINION PHARMACAL	DIN OWNER	Y	Y	Y	N	SUITE 100	"6111, AVENUE ROYALMOUNT"	MONTREAL	QUEBEC	CANADA	H4P 2T4	
85740	DPC07	4065	DOMINION PHARMACAL	DIN OWNER	Y	Y	Y	N	SUITE 100	"6111, AVENUE ROYALMOUNT"	MONTREAL	QUEBEC	CANADA	H4P 2T4	
85753		8460	BIMEDA-MTC ANIMAL HEALTH INC	DIN OWNER	Y	Y	Y	N		420 BEAVERDALE RD.	CAMBRIDGE	ONTARIO	CANADA	N3W 2W4	
85802		13840	MISSION PRODUCT HOLDINGS INC	DIN OWNER	Y	Y	Y		12 FLOOR	185 MADISON AVENUE	NEW YORK	NEW YORK	UNITED STATES	10016	
85822		9859	PRIME ENTERPRISES INC	DIN OWNER	Y	Y	N			16363 NW 49TH AVE.	MIAMI LAKES	FLORIDA	UNITED STATES	33014-6316	
85833	JAJ07	4402	JOHNSON & JOHNSON INC	DIN OWNER	Y	Y	Y	N		88 MCNABB STREET	MARKHAM	ONTARIO	CANADA	L3R 5L2	
85842		15029	LAROSH DERMOCOSMETIC LABORATORIES INC.	DIN OWNER	Y	Y	N		UNIT 1	11 CANADIAN ROAD	SCARBOROUGH	ONTARIO	CANADA	M1R 5G1	
85853		12463	GENMED A DIVISION OF PFIZER CANADA INC	DIN OWNER	Y	Y	Y			17300 TRANS CANADA HIGHWAY	KIRKLAND	QUEBEC	CANADA	H9J 2M5	
85854		12463	GENMED A DIVISION OF PFIZER CANADA INC	DIN OWNER	Y	Y	Y			17300 TRANS CANADA HIGHWAY	KIRKLAND	QUEBEC	CANADA	H9J 2M5	
85855		12463	GENMED A DIVISION OF PFIZER CANADA INC	DIN OWNER	Y	Y	Y			17300 TRANS CANADA HIGHWAY	KIRKLAND	QUEBEC	CANADA	H9J 2M5	
85856		12463	GENMED A DIVISION OF PFIZER CANADA INC	DIN OWNER	Y	Y	Y			17300 TRANS CANADA HIGHWAY	KIRKLAND	QUEBEC	CANADA	H9J 2M5	
85906		10225	DR REDDYS LABORATORIES INC	DIN OWNER	Y	Y	Y			107 COLLEGE ROAD EAST	PRINCETON	NEW JERSEY	UNITED STATES	8540	
85907		10225	DR REDDYS LABORATORIES INC	DIN OWNER	Y	Y	Y			107 COLLEGE ROAD EAST	PRINCETON	NEW JERSEY	UNITED STATES	8540	
85908		10225	DR REDDYS LABORATORIES INC	DIN OWNER	Y	Y	Y			107 COLLEGE ROAD EAST	PRINCETON	NEW JERSEY	UNITED STATES	8540	
85925	PFI07	4908	PFIZER CANADA INC	DIN OWNER	Y	Y	Y	N		17300 TRANS-CANADA HIGHWAY	KIRKLAND	QUEBEC	CANADA	H9J 2M5	
85926	PFI07	4908	PFIZER CANADA INC	DIN OWNER	Y	Y	Y	N		17300 TRANS-CANADA HIGHWAY	KIRKLAND	QUEBEC	CANADA	H9J 2M5	
85930	ODN07	4835	ODAN LABORATORIES LTD	DIN OWNER	Y	Y	Y	N		325 STILLVIEW AVENUE	POINTE-CLAIRE	QUEBEC	CANADA	H9R 2Y6	
85931	ODN07	4835	ODAN LABORATORIES LTD	DIN OWNER	Y	Y	Y	N		325 STILLVIEW AVENUE	POINTE-CLAIRE	QUEBEC	CANADA	H9R 2Y6	
85936		14842	HELP REMEDIES INC	DIN OWNER	Y	Y	Y			57 WEST 28TH STREET	NEW YORK	NEW YORK	UNITED STATES	10001	
85944	JAJ07	4402	JOHNSON & JOHNSON INC	DIN OWNER	Y	Y	Y	N		88 MCNABB STREET	MARKHAM	ONTARIO	CANADA	L3R 5L2	
85949		14691	JUBILANT DRAXIMAGE INC	DIN OWNER	Y	Y	Y			16751 TRANS CANADA HWY	KIRKLAND	QUEBEC	CANADA	H9H 4J4	
85961		14256	ANGITA PHARMA INC.	DIN OWNER	Y	N	N			1380 NEWTON UNIT 203	BOUCHERVILLE	QUEBEC	CANADA	J4B 5H2	
85962		14256	ANGITA PHARMA INC.	DIN OWNER	Y	N	N			1380 NEWTON UNIT 203	BOUCHERVILLE	QUEBEC	CANADA	J4B 5H2	
85979		14256	ANGITA PHARMA INC.	DIN OWNER	Y	N	N			1380 NEWTON UNIT 203	BOUCHERVILLE	QUEBEC	CANADA	J4B 5H2	
85981		14831	KANE BIOTECH INCORPORATED	DIN OWNER	Y	Y	Y			162-196 INNOVATION DRIVE	WINNIPEG	MANITOBA	CANADA	R3T 2N2	
85991		14256	ANGITA PHARMA INC.	DIN OWNER	Y	N	N			1380 NEWTON UNIT 203	BOUCHERVILLE	QUEBEC	CANADA	J4B 5H2	
85992		14256	ANGITA PHARMA INC.	DIN OWNER	Y	N	N			1380 NEWTON UNIT 203	BOUCHERVILLE	QUEBEC	CANADA	J4B 5H2	
85995		14907	MARCAN PHARMACEUTICALS INC	DIN OWNER	Y	N	N		SUITE 4	77 AURIGA DRIVE	OTTAWA	ONTARIO	CANADA	K2E 7Z7	
85996		14907	MARCAN PHARMACEUTICALS INC	DIN OWNER	Y	N	N		SUITE 4	77 AURIGA DRIVE	OTTAWA	ONTARIO	CANADA	K2E 7Z7	
85997		14907	MARCAN PHARMACEUTICALS INC	DIN OWNER	Y	N	N		SUITE 4	77 AURIGA DRIVE	OTTAWA	ONTARIO	CANADA	K2E 7Z7	
85998		14907	MARCAN PHARMACEUTICALS INC	DIN OWNER	Y	N	N		SUITE 4	77 AURIGA DRIVE	OTTAWA	ONTARIO	CANADA	K2E 7Z7	
85999		14907	MARCAN PHARMACEUTICALS INC	DIN OWNER	Y	N	N		SUITE 4	77 AURIGA DRIVE	OTTAWA	ONTARIO	CANADA	K2E 7Z7	
86009		14658	SYRVET CANADA INC	DIN OWNER	Y	Y	Y			207A DES ALOUETTES	ST-ALPHONSE DE GRANBY	QUEBEC	CANADA	J0E 2A0	
86012		13137	SANTE ANIMALE ANIVET INC	DIN OWNER	Y	Y	Y		242	RUE ST-CYRILLE OUEST	UPTON	QUEBEC	CANADA	J0H 2E0	
86026		14169	VELTEK ASSOCIATES INC	DIN OWNER	Y	N	N			15 LEE BOULEVARD	MALVERN	PENNSYLVANIA	UNITED STATES	19355-1234	
86028	CIE95	3900	"CCA INDUSTRIES, INC."	DIN OWNER	Y	Y	Y	N		"65 CHALLENGER ROAD, SUITE 340"	RIDGEFIELD PARK	NEW JERSEY	UNITED STATES	7660	
86038		11581	AGRISAN SPECIALTY CHEMICAL & PHARMACEUTICAL	DIN OWNER	Y	Y	N			451 SMITH ST	ARTHUR	ONTARIO	CANADA	N0G 1A0	69
86048	APX08	3636	APOTEX INC	DIN OWNER	Y	Y	Y	N		150 SIGNET DRIVE	TORONTO	ONTARIO	CANADA	M9L 1T9	
86049	APX08	3636	APOTEX INC	DIN OWNER	Y	Y	Y	N		150 SIGNET DRIVE	TORONTO	ONTARIO	CANADA	M9L 1T9	
86050	ALC08	3594	ALCON CANADA INC	DIN OWNER	Y	Y	Y	N		2665 MEADOWPINE BLVD	MISSISSAUGA	ONTARIO	CANADA	L5N 8C7	
86052		14842	HELP REMEDIES INC	DIN OWNER	Y	Y	Y			57 WEST 28TH STREET	NEW YORK	NEW YORK	UNITED STATES	10001	
86062		15061	Q-GEN PHARMACEUTICALS INC	DIN OWNER	Y	Y	N			"1100 CENTRAL PARK WEST, UNIT 1, APT 2"	MISSISSAUGA	ONTARIO	CANADA	L5C 4E5	
86063		15061	Q-GEN PHARMACEUTICALS INC	DIN OWNER	Y	Y	N			"1100 CENTRAL PARK WEST, UNIT 1, APT 2"	MISSISSAUGA	ONTARIO	CANADA	L5C 4E5	
86067	TAR08	5241	TARO PHARMACEUTICALS INC	DIN OWNER	Y	Y	N	N		130 EAST DRIVE	BRAMPTON	ONTARIO	CANADA	L6T 1C1	
86073	APX08	3636	APOTEX INC	DIN OWNER	Y	Y	Y	N		150 SIGNET DRIVE	TORONTO	ONTARIO	CANADA	M9L 1T9	
86075		14169	VELTEK ASSOCIATES INC	DIN OWNER	Y	N	N			15 LEE BOULEVARD	MALVERN	PENNSYLVANIA	UNITED STATES	19355-1234	
86077		15067	YORK CHEMICAL TECHNOLOGIES INC	DIN OWNER	Y	Y	Y				TORONTO	ONTARIO	CANADA	M9C 5N5	91055
86079		14842	HELP REMEDIES INC	DIN OWNER	Y	Y	Y			57 WEST 28TH STREET	NEW YORK	NEW YORK	UNITED STATES	10001	
86085		13049	4410602 CANADA INC	DIN OWNER	Y	Y	Y			"300 SOUTH EGDEWARE, UNIT 205"	ST THOMAS	ONTARIO	CANADA	N5P 4L1	
86086	RAF10	4993	RAFTER 8 PRODUCTS INC	DIN OWNER	Y	Y	Y	N		87 SKYLINE CRESCENT N.E.	CALGARY	ALBERTA	CANADA	T2K 5X2	
86114		15083	DR REDDYS LABORATORIES LTD	DIN OWNER	Y	N	N			"SURVEY NOS 42,45,46,54 BACHUPALLY, QUTHBULLAPUR"	HYDERBAD	TELANGANA	INDIA	500090	
86115		15083	DR REDDYS LABORATORIES LTD	DIN OWNER	Y	N	N			"SURVEY NOS 42,45,46,54 BACHUPALLY, QUTHBULLAPUR"	HYDERBAD	TELANGANA	INDIA	500090	
86116		15083	DR REDDYS LABORATORIES LTD	DIN OWNER	Y	N	N			"SURVEY NOS 42,45,46,54 BACHUPALLY, QUTHBULLAPUR"	HYDERBAD	TELANGANA	INDIA	500090	
86117		15083	DR REDDYS LABORATORIES LTD	DIN OWNER	Y	N	N			"SURVEY NOS 42,45,46,54 BACHUPALLY, QUTHBULLAPUR"	HYDERBAD	TELANGANA	INDIA	500090	
86120	KIG10	6921	KINESYS PHARMACEUTICAL INC	DIN OWNER	Y	N	N	N	118	12920 84TH AVENUE	SURREY	BRITISH COLUMBIA	CANADA	V3W 1K7	
86130	NVR07	7277	NOVARTIS PHARMACEUTICALS CANADA INC	DIN OWNER	Y	Y	Y	N		385 BOUCHARD BLVD	DORVAL	QUEBEC	CANADA	H9S 1A9	
86131	NVR07	7277	NOVARTIS PHARMACEUTICALS CANADA INC	DIN OWNER	Y	Y	Y	N		385 BOUCHARD BLVD	DORVAL	QUEBEC	CANADA	H9S 1A9	
86132	NVR07	7277	NOVARTIS PHARMACEUTICALS CANADA INC	DIN OWNER	Y	Y	Y	N		385 BOUCHARD BLVD	DORVAL	QUEBEC	CANADA	H9S 1A9	
86150		14461	SEPTA PHARMACEUTICALS INC	DIN OWNER	Y	Y	N			7490 PACIFIC CIRCLE UNIT #1	MISSISSAUGA	ONTARIO	CANADA	L5T 2A3	
86151		14461	SEPTA PHARMACEUTICALS INC	DIN OWNER	Y	Y	N			7490 PACIFIC CIRCLE UNIT #1	MISSISSAUGA	ONTARIO	CANADA	L5T 2A3	
86152		14461	SEPTA PHARMACEUTICALS INC	DIN OWNER	Y	Y	N			7490 PACIFIC CIRCLE UNIT #1	MISSISSAUGA	ONTARIO	CANADA	L5T 2A3	
86153		14461	SEPTA PHARMACEUTICALS INC	DIN OWNER	Y	Y	N			7490 PACIFIC CIRCLE UNIT #1	MISSISSAUGA	ONTARIO	CANADA	L5T 2A3	
86154		14461	SEPTA PHARMACEUTICALS INC	DIN OWNER	Y	Y	N			7490 PACIFIC CIRCLE UNIT #1	MISSISSAUGA	ONTARIO	CANADA	L5T 2A3	
86160	TDC95	5251	TENDER CORPORATION	DIN OWNER	Y	Y	Y	N		944 INDUSTRIAL PARK ROAD	LITTLETON	NEW HAMPSHIRE	UNITED STATES	3561	
86161	TDC95	5251	TENDER CORPORATION	DIN OWNER	Y	Y	Y	N		944 INDUSTRIAL PARK ROAD	LITTLETON	NEW HAMPSHIRE	UNITED STATES	3561	
86162	PGA08	4911	PROCTER & GAMBLE INC	DIN OWNER	Y	N	N	N		4711 YONGE STREET	TORONTO	ONTARIO	CANADA	M2N 6K8	
86176		15061	Q-GEN PHARMACEUTICALS INC	DIN OWNER	Y	Y	N			"1100 CENTRAL PARK WEST, UNIT 1, APT 2"	MISSISSAUGA	ONTARIO	CANADA	L5C 4E5	
86177		15061	Q-GEN PHARMACEUTICALS INC	DIN OWNER	Y	Y	N			"1100 CENTRAL PARK WEST, UNIT 1, APT 2"	MISSISSAUGA	ONTARIO	CANADA	L5C 4E5	
86178		15061	Q-GEN PHARMACEUTICALS INC	DIN OWNER	Y	Y	N			"1100 CENTRAL PARK WEST, UNIT 1, APT 2"	MISSISSAUGA	ONTARIO	CANADA	L5C 4E5	
86179		15061	Q-GEN PHARMACEUTICALS INC	DIN OWNER	Y	Y	N			"1100 CENTRAL PARK WEST, UNIT 1, APT 2"	MISSISSAUGA	ONTARIO	CANADA	L5C 4E5	
86181	RAF10	4993	RAFTER 8 PRODUCTS INC	DIN OWNER	Y	Y	Y	N		87 SKYLINE CRESCENT N.E.	CALGARY	ALBERTA	CANADA	T2K 5X2	
86187		14842	HELP REMEDIES INC	DIN OWNER	Y	Y	Y			57 WEST 28TH STREET	NEW YORK	NEW YORK	UNITED STATES	10001	
86199		13998	B. BRAUN AVITUM AG	DIN OWNER	Y	N	N			SCHWARZENBERGER WEG 73 79	MELSUNGEN	SAONE ET LOIRE	GERMANY	34212	
86200		13998	B. BRAUN AVITUM AG	DIN OWNER	Y	N	N			SCHWARZENBERGER WEG 73 79	MELSUNGEN	SAONE ET LOIRE	GERMANY	34212	
86201		13998	B. BRAUN AVITUM AG	DIN OWNER	Y	N	N			SCHWARZENBERGER WEG 73 79	MELSUNGEN	SAONE ET LOIRE	GERMANY	34212	
86206		12007	PARTNAR ANIMAL HEALTH INC	DIN OWNER	Y	Y	Y			14057 ILDERTON ROAD	ILDERTON	ONTARIO	CANADA	N0M 2A0	
86207		12007	PARTNAR ANIMAL HEALTH INC	DIN OWNER	Y	Y	Y			14057 ILDERTON ROAD	ILDERTON	ONTARIO	CANADA	N0M 2A0	
86218	DPC07	4065	DOMINION PHARMACAL	DIN OWNER	Y	Y	Y	N	SUITE 100	"6111, AVENUE ROYALMOUNT"	MONTREAL	QUEBEC	CANADA	H4P 2T4	
86219	DPC07	4065	DOMINION PHARMACAL	DIN OWNER	Y	Y	Y	N	SUITE 100	"6111, AVENUE ROYALMOUNT"	MONTREAL	QUEBEC	CANADA	H4P 2T4	
86220	DPC07	4065	DOMINION PHARMACAL	DIN OWNER	Y	Y	Y	N	SUITE 100	"6111, AVENUE ROYALMOUNT"	MONTREAL	QUEBEC	CANADA	H4P 2T4	
86221	GAC08	4225	GALDERMA CANADA INC	DIN OWNER	Y	Y	Y	N		55 COMMERCE VALLEY DRIVE WEST	THORNHILL	ONTARIO	CANADA	L3T 7V9	
86235		14589	PATRIOT A DIVISION OF JANSSEN INC	DIN OWNER	Y	N	Y			19 GREEN BELT DRIVE	TORONTO	ONTARIO	CANADA	M3C 1L9	
86236		14589	PATRIOT A DIVISION OF JANSSEN INC	DIN OWNER	Y	N	Y			19 GREEN BELT DRIVE	TORONTO	ONTARIO	CANADA	M3C 1L9	
86237		14589	PATRIOT A DIVISION OF JANSSEN INC	DIN OWNER	Y	N	Y			19 GREEN BELT DRIVE	TORONTO	ONTARIO	CANADA	M3C 1L9	
86238		14589	PATRIOT A DIVISION OF JANSSEN INC	DIN OWNER	Y	N	Y			19 GREEN BELT DRIVE	TORONTO	ONTARIO	CANADA	M3C 1L9	
86239		14589	PATRIOT A DIVISION OF JANSSEN INC	DIN OWNER	Y	N	Y			19 GREEN BELT DRIVE	TORONTO	ONTARIO	CANADA	M3C 1L9	
86241		14318	TEVA CANADA LIMITED	DIN OWNER	Y	Y	N			30 NOVOPHARM COURT	TORONTO	ONTARIO	CANADA	M1B 2K9	
86242		14318	TEVA CANADA LIMITED	DIN OWNER	Y	Y	N			30 NOVOPHARM COURT	TORONTO	ONTARIO	CANADA	M1B 2K9	
86243		14318	TEVA CANADA LIMITED	DIN OWNER	Y	Y	N			30 NOVOPHARM COURT	TORONTO	ONTARIO	CANADA	M1B 2K9	
86258		14341	RUBBERMAID COMMERCIAL PRODUCTS LLC	DIN OWNER	Y	Y	Y			3124 VALLEY AVENUE	WINCHESTER	VIRGINIA	UNITED STATES	22601	
86272		14169	VELTEK ASSOCIATES INC	DIN OWNER	Y	N	N			15 LEE BOULEVARD	MALVERN	PENNSYLVANIA	UNITED STATES	19355-1234	
86281	YNO08	5348	BAYER INC CONSUMER CARE	DIN OWNER	Y	N	Y	N		2920  MATHESON BLVD E	MISSISSAUGA	ONTARIO	CANADA	L4W 5R6	
86294		14391	PROMOBILIA COM DISTRIBUTION CORP	DIN OWNER	Y	Y	Y		UNIT 213	5920 NO. 6 ROAD	RICHMOND	BRITISH COLUMBIA	CANADA	V6V 1Z1	
86303		12463	GENMED A DIVISION OF PFIZER CANADA INC	DIN OWNER	Y	Y	Y			17300 TRANS CANADA HIGHWAY	KIRKLAND	QUEBEC	CANADA	H9J 2M5	
86304		12463	GENMED A DIVISION OF PFIZER CANADA INC	DIN OWNER	Y	Y	Y			17300 TRANS CANADA HIGHWAY	KIRKLAND	QUEBEC	CANADA	H9J 2M5	
86305		12463	GENMED A DIVISION OF PFIZER CANADA INC	DIN OWNER	Y	Y	Y			17300 TRANS CANADA HIGHWAY	KIRKLAND	QUEBEC	CANADA	H9J 2M5	
86306		12463	GENMED A DIVISION OF PFIZER CANADA INC	DIN OWNER	Y	Y	Y			17300 TRANS CANADA HIGHWAY	KIRKLAND	QUEBEC	CANADA	H9J 2M5	
86313		14355	HAEMONETICS CORPORATION	DIN OWNER	Y	N	Y			400 WOOD ROAD	BRAINTREE	MASSACHUSETTS	UNITED STATES	2184	
86321		15115	BENEFIT COMESTICS LLC	DIN OWNER	Y	N	N			"225 BUSH STREET, FLOOR 20"	SAN FRANCISCO	CALIFORNIA	UNITED STATES	94104	
86326		13942	IRONWOOD CLAY COMPANY INC	DIN OWNER	Y	Y	Y		SUITE 450	3771 JACOMBS ROAD	RICHMOND	BRITISH COLUMBIA	CANADA	V6V 2L9	
86327		14777	COSTWIN TECHNOLOGIES LLC	DIN OWNER	Y	Y	Y			23526 LOGAN WAY	LAKEVILLE	MINNESOTA	UNITED STATES	55044	
86338		15115	BENEFIT COMESTICS LLC	DIN OWNER	Y	N	N			"225 BUSH STREET, FLOOR 20"	SAN FRANCISCO	CALIFORNIA	UNITED STATES	94104	
86343		12027	SANDOZ CANADA INCORPORATED	DIN OWNER	Y	Y	Y			145 JULES-LÉGER STREET	BOUCHERVILLE	QUEBEC	CANADA	J4B 7K8	
86357	APX08	3636	APOTEX INC	DIN OWNER	Y	Y	Y	N		150 SIGNET DRIVE	TORONTO	ONTARIO	CANADA	M9L 1T9	
86361		11580	THE WINNING COMBINATION INC.	DIN OWNER	Y	N	Y		SUITE 6	1099 WILKES AVE	WINNIPEG	MANITOBA	CANADA	R3P 2S2	
86362		11580	THE WINNING COMBINATION INC.	DIN OWNER	Y	N	Y		SUITE 6	1099 WILKES AVE	WINNIPEG	MANITOBA	CANADA	R3P 2S2	
86364		11580	THE WINNING COMBINATION INC.	DIN OWNER	Y	N	Y		SUITE 6	1099 WILKES AVE	WINNIPEG	MANITOBA	CANADA	R3P 2S2	
86365		11580	THE WINNING COMBINATION INC.	DIN OWNER	Y	N	Y		SUITE 6	1099 WILKES AVE	WINNIPEG	MANITOBA	CANADA	R3P 2S2	
86366		11580	THE WINNING COMBINATION INC.	DIN OWNER	Y	N	Y		SUITE 6	1099 WILKES AVE	WINNIPEG	MANITOBA	CANADA	R3P 2S2	
86379	RAF10	4993	RAFTER 8 PRODUCTS INC	DIN OWNER	Y	Y	Y	N		87 SKYLINE CRESCENT N.E.	CALGARY	ALBERTA	CANADA	T2K 5X2	
86383		14907	MARCAN PHARMACEUTICALS INC	DIN OWNER	Y	N	N		SUITE 4	77 AURIGA DRIVE	OTTAWA	ONTARIO	CANADA	K2E 7Z7	
86384		14907	MARCAN PHARMACEUTICALS INC	DIN OWNER	Y	N	N		SUITE 4	77 AURIGA DRIVE	OTTAWA	ONTARIO	CANADA	K2E 7Z7	
86388		14067	DERMATOLOGIC COSMETIC LABORATORIES	DIN OWNER	Y	Y	N			20 COMMERCE ST	EAST HAVEN	CONNECTICUT	UNITED STATES	6512	
86389		14907	MARCAN PHARMACEUTICALS INC	DIN OWNER	Y	N	N		SUITE 4	77 AURIGA DRIVE	OTTAWA	ONTARIO	CANADA	K2E 7Z7	
86390		14907	MARCAN PHARMACEUTICALS INC	DIN OWNER	Y	N	N		SUITE 4	77 AURIGA DRIVE	OTTAWA	ONTARIO	CANADA	K2E 7Z7	
86392		11581	AGRISAN SPECIALTY CHEMICAL & PHARMACEUTICAL	DIN OWNER	Y	Y	N			451 SMITH ST	ARTHUR	ONTARIO	CANADA	N0G 1A0	69
86393		9071	THE CLOROX COMPANY OF CANADA LTD	DIN OWNER	Y	Y	Y			150 BISCAYNE CRESCENT	BRAMPTON	ONTARIO	CANADA	L6W 4V3	
86394		9071	THE CLOROX COMPANY OF CANADA LTD	DIN OWNER	Y	Y	Y			150 BISCAYNE CRESCENT	BRAMPTON	ONTARIO	CANADA	L6W 4V3	
86406		12990	PROFOOT INC.	DIN OWNER	Y	N	Y			74 20TH STREET	BROOKLYN	NEW YORK	UNITED STATES	11232	
86414	JPC10	4415	JAMP PHARMA CORPORATION	DIN OWNER	Y	Y	Y	N		1310 RUE NOBEL	BOUCHERVILLE	QUEBEC	CANADA	J4B 5H3	
86425		12538	SANOFI-AVENTIS CANADA INC	DIN OWNER	Y	N	Y			2905 PLACE LOUIS-R. RENAUD	LAVAL	QUEBEC	CANADA	H7V 0A3	
86444		13636	ACCUDIAL PHARMACEUTICAL INC	DIN OWNER	Y	N	N			2091 HARTEL STREET	LEVITTOWN	PENNSYLVANIA	UNITED STATES	19057	
86447	JGD95	4412	PERRIGO INTERNATIONAL	DIN OWNER	Y	Y	Y	N		515 EASTERN AVE	ALLEGAN	MICHIGAN	UNITED STATES	49010-1327	
86456		14907	MARCAN PHARMACEUTICALS INC	DIN OWNER	Y	N	N		SUITE 4	77 AURIGA DRIVE	OTTAWA	ONTARIO	CANADA	K2E 7Z7	
86457		14907	MARCAN PHARMACEUTICALS INC	DIN OWNER	Y	N	N		SUITE 4	77 AURIGA DRIVE	OTTAWA	ONTARIO	CANADA	K2E 7Z7	
86458		14907	MARCAN PHARMACEUTICALS INC	DIN OWNER	Y	N	N		SUITE 4	77 AURIGA DRIVE	OTTAWA	ONTARIO	CANADA	K2E 7Z7	
86459		8189	GUARDIAN DRUG COMPANY INC	DIN OWNER	Y	Y	N			2 CHARLES COURT	DAYTON	NEW JERSEY	UNITED STATES	08810-1508	
86461		8189	GUARDIAN DRUG COMPANY INC	DIN OWNER	Y	Y	N			2 CHARLES COURT	DAYTON	NEW JERSEY	UNITED STATES	08810-1508	
86471	TDC95	5251	TENDER CORPORATION	DIN OWNER	Y	Y	Y	N		944 INDUSTRIAL PARK ROAD	LITTLETON	NEW HAMPSHIRE	UNITED STATES	3561	
86472		14907	MARCAN PHARMACEUTICALS INC	DIN OWNER	Y	N	N		SUITE 4	77 AURIGA DRIVE	OTTAWA	ONTARIO	CANADA	K2E 7Z7	
86473		14907	MARCAN PHARMACEUTICALS INC	DIN OWNER	Y	N	N		SUITE 4	77 AURIGA DRIVE	OTTAWA	ONTARIO	CANADA	K2E 7Z7	
86474		8541	VITA HEALTH PRODUCTS INC	DIN OWNER	Y	N	Y	N		150 BEGHIN AVENUE	WINNIPEG	MANITOBA	CANADA	R2J 3W2	
86492		14907	MARCAN PHARMACEUTICALS INC	DIN OWNER	Y	N	N		SUITE 4	77 AURIGA DRIVE	OTTAWA	ONTARIO	CANADA	K2E 7Z7	
86493		14907	MARCAN PHARMACEUTICALS INC	DIN OWNER	Y	N	N		SUITE 4	77 AURIGA DRIVE	OTTAWA	ONTARIO	CANADA	K2E 7Z7	
86500		10774	BAYER INC	DIN OWNER	Y	N	Y			2920 MATHESON BLVD EAST	MISSISSAUGA	ONTARIO	CANADA	L4W 5R6	
86505	PMS07	3550	PHARMASCIENCE INC	DIN OWNER	Y	Y	Y	N	100	"6111, ROYALMOUNT AVENUE"	MONTREAL	QUEBEC	CANADA	H4P 2T4	
86518		8541	VITA HEALTH PRODUCTS INC	DIN OWNER	Y	N	Y	N		150 BEGHIN AVENUE	WINNIPEG	MANITOBA	CANADA	R2J 3W2	
86528		13001	ACTAVIS GROUP PTC EHF	DIN OWNER	Y	N	N			REYKJAVIKURVEGI 78	HAFNARFJORDUR	SAONE ET LOIRE	ICELAND	220	
86535		15139	GRIFOLS THERAPEUTICS INC	DIN OWNER	Y	N	Y			8368 US 70 BUSINESS HWY. WEST	CLAYTON	NORTH CAROLINA	UNITED STATES	27520-9464	
86537		15139	GRIFOLS THERAPEUTICS INC	DIN OWNER	Y	N	Y			8368 US 70 BUSINESS HWY. WEST	CLAYTON	NORTH CAROLINA	UNITED STATES	27520-9464	
86547		14441	"H2OCEAN, INC."	DIN OWNER	Y	Y	Y			7938 SW JACK JAMES DRIVE	STUART	FLORIDA	UNITED STATES	34997	
86549		15139	GRIFOLS THERAPEUTICS INC	DIN OWNER	Y	N	Y			8368 US 70 BUSINESS HWY. WEST	CLAYTON	NORTH CAROLINA	UNITED STATES	27520-9464	
86553		14907	MARCAN PHARMACEUTICALS INC	DIN OWNER	Y	N	N		SUITE 4	77 AURIGA DRIVE	OTTAWA	ONTARIO	CANADA	K2E 7Z7	
86597		15158	PRESIDIO BRANDS INC	DIN OWNER	Y	Y	Y			3661 SACRAMENTO STREET	SAN FRANCISCO	CALIFORNIA	UNITED STATES	94118	
86603	JPC10	4415	JAMP PHARMA CORPORATION	DIN OWNER	Y	Y	Y	N		1310 RUE NOBEL	BOUCHERVILLE	QUEBEC	CANADA	J4B 5H3	
86604	YNO08	5348	BAYER INC CONSUMER CARE	DIN OWNER	Y	N	Y	N		2920  MATHESON BLVD E	MISSISSAUGA	ONTARIO	CANADA	L4W 5R6	
86610	APX08	3636	APOTEX INC	DIN OWNER	Y	Y	Y	N		150 SIGNET DRIVE	TORONTO	ONTARIO	CANADA	M9L 1T9	
86612	APX08	3636	APOTEX INC	DIN OWNER	Y	Y	Y	N		150 SIGNET DRIVE	TORONTO	ONTARIO	CANADA	M9L 1T9	
86615		11580	THE WINNING COMBINATION INC.	DIN OWNER	Y	N	Y		SUITE 6	1099 WILKES AVE	WINNIPEG	MANITOBA	CANADA	R3P 2S2	
86620	PMT07	4933	PHARMETICS (2011) INC	DIN OWNER	Y	Y	Y	N		3695 AUTOROUTE DES LAURENTIDES	LAVAL	QUEBEC	CANADA	H7L 3H7	
86621	PMT07	4933	PHARMETICS (2011) INC	DIN OWNER	Y	Y	Y	N		3695 AUTOROUTE DES LAURENTIDES	LAVAL	QUEBEC	CANADA	H7L 3H7	
86622		13838	TORRENT PHARMACEUTICALS LIMITED	DIN OWNER	Y	N	N			AHMEDABAD-MEHSANA HIGHWAY	"TALUKA-KADI DIST. OF MEHSANA, INDRAD"	GUJARAT	INDIA	382721	
86623		13838	TORRENT PHARMACEUTICALS LIMITED	DIN OWNER	Y	N	N			AHMEDABAD-MEHSANA HIGHWAY	"TALUKA-KADI DIST. OF MEHSANA, INDRAD"	GUJARAT	INDIA	382721	
86624		13838	TORRENT PHARMACEUTICALS LIMITED	DIN OWNER	Y	N	N			AHMEDABAD-MEHSANA HIGHWAY	"TALUKA-KADI DIST. OF MEHSANA, INDRAD"	GUJARAT	INDIA	382721	
86654	SCN07	6569	PROMOTION ECO ST-CLAIR INC.	DIN OWNER	Y	Y	Y	N		568 RUE MARQUIS	RÉPENTIGNY	QUEBEC	CANADA	J6A 7J2	
86665	PMS07	3550	PHARMASCIENCE INC	DIN OWNER	Y	Y	Y	N	100	"6111, ROYALMOUNT AVENUE"	MONTREAL	QUEBEC	CANADA	H4P 2T4	
86670		11001	ALPINE SPECIALTY CHEMICALS LTD	DIN OWNER	Y	Y	Y			9 CITY VIEW DRIVE	ETOBICOKE	ONTARIO	CANADA	M9W 5A5	
86716		14447	SNUGZ USA	DIN OWNER	Y	Y	Y			9258 SOUTH PROSPERITY ROAD	WEST JORDAN	UTAH	UNITED STATES	84081	
86725		15138	U.S. NONWOVENS CORP	DIN OWNER	Y	Y	Y			100 EMJAY BOULEVARD	BRENTWOOD	NEW YORK	UNITED STATES	11717	
86729	CCP08	3857	CANADIAN CUSTOM PACKAGING COMPANY	DIN OWNER	Y	Y	N	N		333 RIMROCK ROAD	TORONTO	ONTARIO	CANADA	M3J 3J9	
86755		15772	ACTAVIS PHARMA COMPANY	DIN OWNER	Y	Y	Y			"6733 MISSISSAUGA ROAD, SUITE 400"	MISSISSAUGA	ONTARIO	CANADA	L5N 6J5	
86764		14318	TEVA CANADA LIMITED	DIN OWNER	Y	Y	N			30 NOVOPHARM COURT	TORONTO	ONTARIO	CANADA	M1B 2K9	
86765		14318	TEVA CANADA LIMITED	DIN OWNER	Y	Y	N			30 NOVOPHARM COURT	TORONTO	ONTARIO	CANADA	M1B 2K9	
86766		14318	TEVA CANADA LIMITED	DIN OWNER	Y	Y	N			30 NOVOPHARM COURT	TORONTO	ONTARIO	CANADA	M1B 2K9	
86778		16555	FRESENIUS KABI CANADA LTD	DIN OWNER	Y	Y	Y			"165 GALAXY BLVD, SUITE 100"	TORONTO	ONTARIO	CANADA	M9W 0C8	
86788		12861	ALVEDA PHARMACEUTICALS INC	DIN OWNER	Y	Y	Y		1500	10 KING STREET EAST	TORONTO	ONTARIO	CANADA	M5C 1C3	
86789		12861	ALVEDA PHARMACEUTICALS INC	DIN OWNER	Y	Y	Y		1500	10 KING STREET EAST	TORONTO	ONTARIO	CANADA	M5C 1C3	
86800		13032	ACCORD HEALTHCARE INC	DIN OWNER	Y	Y	Y			"3535 BOULEVARD ST-CHARLES, SUITE 704"	KIRKLAND	QUEBEC	CANADA	H9H 5B9	
86804	PGA08	4911	PROCTER & GAMBLE INC	DIN OWNER	Y	N	N	N		4711 YONGE STREET	TORONTO	ONTARIO	CANADA	M2N 6K8	
86807		15023	ALBERTA VETERINARY LABORATORIES LTD	DIN OWNER	Y	Y	Y			411-19TH STREET S.E.	CALGARY	ALBERTA	CANADA	T2E 6J7	
86808		13930	MYLAN PHARMACEUTICALS ULC	DIN OWNER	Y	Y	Y			85 ADVANCE ROAD	ETOBICOKE	ONTARIO	CANADA	M8Z 2S6	
86809		13930	MYLAN PHARMACEUTICALS ULC	DIN OWNER	Y	Y	Y			85 ADVANCE ROAD	ETOBICOKE	ONTARIO	CANADA	M8Z 2S6	
86810		13930	MYLAN PHARMACEUTICALS ULC	DIN OWNER	Y	Y	Y			85 ADVANCE ROAD	ETOBICOKE	ONTARIO	CANADA	M8Z 2S6	
86811		13930	MYLAN PHARMACEUTICALS ULC	DIN OWNER	Y	Y	Y			85 ADVANCE ROAD	ETOBICOKE	ONTARIO	CANADA	M8Z 2S6	
86812		13930	MYLAN PHARMACEUTICALS ULC	DIN OWNER	Y	Y	Y			85 ADVANCE ROAD	ETOBICOKE	ONTARIO	CANADA	M8Z 2S6	
86813	JPC10	4415	JAMP PHARMA CORPORATION	DIN OWNER	Y	Y	Y	N		1310 RUE NOBEL	BOUCHERVILLE	QUEBEC	CANADA	J4B 5H3	
86851		10891	IMPORTATIONS BIOCHALA INC.	DIN OWNER	Y	Y	Y			307 RUE ROSKY	ROXTON FALLS	QUEBEC	CANADA	J0H 1E0	539
86876		12027	SANDOZ CANADA INCORPORATED	DIN OWNER	Y	Y	Y			145 JULES-LÉGER STREET	BOUCHERVILLE	QUEBEC	CANADA	J4B 7K8	
86877		12027	SANDOZ CANADA INCORPORATED	DIN OWNER	Y	Y	Y			145 JULES-LÉGER STREET	BOUCHERVILLE	QUEBEC	CANADA	J4B 7K8	
86879		12027	SANDOZ CANADA INCORPORATED	DIN OWNER	Y	Y	Y			145 JULES-LÉGER STREET	BOUCHERVILLE	QUEBEC	CANADA	J4B 7K8	
86886		13930	MYLAN PHARMACEUTICALS ULC	DIN OWNER	Y	Y	Y			85 ADVANCE ROAD	ETOBICOKE	ONTARIO	CANADA	M8Z 2S6	
86887		13930	MYLAN PHARMACEUTICALS ULC	DIN OWNER	Y	Y	Y			85 ADVANCE ROAD	ETOBICOKE	ONTARIO	CANADA	M8Z 2S6	
86894		13930	MYLAN PHARMACEUTICALS ULC	DIN OWNER	Y	Y	Y			85 ADVANCE ROAD	ETOBICOKE	ONTARIO	CANADA	M8Z 2S6	
86895		11902	VALEANT CANADA LP/VALEANT CANADA S.E.C.	DIN OWNER	Y	Y	Y			2150 BOUL. ST-ELZEAR OUEST	LAVAL	QUEBEC	CANADA	H7L 4A8	
86896		11902	VALEANT CANADA LP/VALEANT CANADA S.E.C.	DIN OWNER	Y	Y	Y			2150 BOUL. ST-ELZEAR OUEST	LAVAL	QUEBEC	CANADA	H7L 4A8	
86899		13930	MYLAN PHARMACEUTICALS ULC	DIN OWNER	Y	Y	Y			85 ADVANCE ROAD	ETOBICOKE	ONTARIO	CANADA	M8Z 2S6	
86900		13930	MYLAN PHARMACEUTICALS ULC	DIN OWNER	Y	Y	Y			85 ADVANCE ROAD	ETOBICOKE	ONTARIO	CANADA	M8Z 2S6	
86914		12027	SANDOZ CANADA INCORPORATED	DIN OWNER	Y	Y	Y			145 JULES-LÉGER STREET	BOUCHERVILLE	QUEBEC	CANADA	J4B 7K8	
86925		13930	MYLAN PHARMACEUTICALS ULC	DIN OWNER	Y	Y	Y			85 ADVANCE ROAD	ETOBICOKE	ONTARIO	CANADA	M8Z 2S6	
86933		13930	MYLAN PHARMACEUTICALS ULC	DIN OWNER	Y	Y	Y			85 ADVANCE ROAD	ETOBICOKE	ONTARIO	CANADA	M8Z 2S6	
86934		13930	MYLAN PHARMACEUTICALS ULC	DIN OWNER	Y	Y	Y			85 ADVANCE ROAD	ETOBICOKE	ONTARIO	CANADA	M8Z 2S6	
86944		14154	GENVION CORPORATION	DIN OWNER	Y	Y	Y			500 CAMIEL SYSTEM STREET	WINNIPEG	MANITOBA	CANADA	R2J 4K2	
86951		13930	MYLAN PHARMACEUTICALS ULC	DIN OWNER	Y	Y	Y			85 ADVANCE ROAD	ETOBICOKE	ONTARIO	CANADA	M8Z 2S6	
86952		13930	MYLAN PHARMACEUTICALS ULC	DIN OWNER	Y	Y	Y			85 ADVANCE ROAD	ETOBICOKE	ONTARIO	CANADA	M8Z 2S6	
86985		13930	MYLAN PHARMACEUTICALS ULC	DIN OWNER	Y	Y	Y			85 ADVANCE ROAD	ETOBICOKE	ONTARIO	CANADA	M8Z 2S6	
86997		9071	THE CLOROX COMPANY OF CANADA LTD	DIN OWNER	Y	Y	Y			150 BISCAYNE CRESCENT	BRAMPTON	ONTARIO	CANADA	L6W 4V3	
87005		14907	MARCAN PHARMACEUTICALS INC	DIN OWNER	Y	N	N		SUITE 4	77 AURIGA DRIVE	OTTAWA	ONTARIO	CANADA	K2E 7Z7	
87015	PGA08	4911	PROCTER & GAMBLE INC	DIN OWNER	Y	N	N	N		4711 YONGE STREET	TORONTO	ONTARIO	CANADA	M2N 6K8	
87065		14318	TEVA CANADA LIMITED	DIN OWNER	Y	Y	N			30 NOVOPHARM COURT	TORONTO	ONTARIO	CANADA	M1B 2K9	
87066		14318	TEVA CANADA LIMITED	DIN OWNER	Y	Y	N			30 NOVOPHARM COURT	TORONTO	ONTARIO	CANADA	M1B 2K9	
87068	JPC10	4415	JAMP PHARMA CORPORATION	DIN OWNER	Y	Y	Y	N		1310 RUE NOBEL	BOUCHERVILLE	QUEBEC	CANADA	J4B 5H3	
87069	JPC10	4415	JAMP PHARMA CORPORATION	DIN OWNER	Y	Y	Y	N		1310 RUE NOBEL	BOUCHERVILLE	QUEBEC	CANADA	J4B 5H3	
87077	RAX08	8892	STERIMAX INC	DIN OWNER	Y	Y	Y			2770 PORTLAND DRIVE	OAKVILLE	ONTARIO	CANADA	L6H 6R4	
87085		12027	SANDOZ CANADA INCORPORATED	DIN OWNER	Y	Y	Y			145 JULES-LÉGER STREET	BOUCHERVILLE	QUEBEC	CANADA	J4B 7K8	
87086		12027	SANDOZ CANADA INCORPORATED	DIN OWNER	Y	Y	Y			145 JULES-LÉGER STREET	BOUCHERVILLE	QUEBEC	CANADA	J4B 7K8	
87087	TDC95	5251	TENDER CORPORATION	DIN OWNER	Y	Y	Y	N		944 INDUSTRIAL PARK ROAD	LITTLETON	NEW HAMPSHIRE	UNITED STATES	3561	
87090		8541	VITA HEALTH PRODUCTS INC	DIN OWNER	Y	N	Y	N		150 BEGHIN AVENUE	WINNIPEG	MANITOBA	CANADA	R2J 3W2	
87100		15130	SIVEM PHARMACEUTICALS ULC	DIN OWNER	Y	N	Y			4705 DOBRIN STREET	SAINT-LAURENT	QUEBEC	CANADA	H4R 2P7	
87113		14318	TEVA CANADA LIMITED	DIN OWNER	Y	Y	N			30 NOVOPHARM COURT	TORONTO	ONTARIO	CANADA	M1B 2K9	
87114		14318	TEVA CANADA LIMITED	DIN OWNER	Y	Y	N			30 NOVOPHARM COURT	TORONTO	ONTARIO	CANADA	M1B 2K9	
87115		14318	TEVA CANADA LIMITED	DIN OWNER	Y	Y	N			30 NOVOPHARM COURT	TORONTO	ONTARIO	CANADA	M1B 2K9	
87116		14318	TEVA CANADA LIMITED	DIN OWNER	Y	Y	N			30 NOVOPHARM COURT	TORONTO	ONTARIO	CANADA	M1B 2K9	
87117		15130	SIVEM PHARMACEUTICALS ULC	DIN OWNER	Y	N	Y			4705 DOBRIN STREET	SAINT-LAURENT	QUEBEC	CANADA	H4R 2P7	
87120		14907	MARCAN PHARMACEUTICALS INC	DIN OWNER	Y	N	N		SUITE 4	77 AURIGA DRIVE	OTTAWA	ONTARIO	CANADA	K2E 7Z7	
87121		14907	MARCAN PHARMACEUTICALS INC	DIN OWNER	Y	N	N		SUITE 4	77 AURIGA DRIVE	OTTAWA	ONTARIO	CANADA	K2E 7Z7	
87129		12027	SANDOZ CANADA INCORPORATED	DIN OWNER	Y	Y	Y			145 JULES-LÉGER STREET	BOUCHERVILLE	QUEBEC	CANADA	J4B 7K8	
87130		12027	SANDOZ CANADA INCORPORATED	DIN OWNER	Y	Y	Y			145 JULES-LÉGER STREET	BOUCHERVILLE	QUEBEC	CANADA	J4B 7K8	
87131		11902	VALEANT CANADA LP/VALEANT CANADA S.E.C.	DIN OWNER	Y	Y	Y			2150 BOUL. ST-ELZEAR OUEST	LAVAL	QUEBEC	CANADA	H7L 4A8	
87134		14750	FRESENIUS BIOTECH GMBH	DIN OWNER	Y	N	Y			AM HAAG 6-7	82166 GRÄFELFING	BAVARIA	GERMANY	82166	
87135		14750	FRESENIUS BIOTECH GMBH	DIN OWNER	Y	N	Y			AM HAAG 6-7	82166 GRÄFELFING	BAVARIA	GERMANY	82166	
87146		11581	AGRISAN SPECIALTY CHEMICAL & PHARMACEUTICAL	DIN OWNER	Y	Y	N			451 SMITH ST	ARTHUR	ONTARIO	CANADA	N0G 1A0	69
87152		15130	SIVEM PHARMACEUTICALS ULC	DIN OWNER	Y	N	Y			4705 DOBRIN STREET	SAINT-LAURENT	QUEBEC	CANADA	H4R 2P7	
87169		15130	SIVEM PHARMACEUTICALS ULC	DIN OWNER	Y	N	Y			4705 DOBRIN STREET	SAINT-LAURENT	QUEBEC	CANADA	H4R 2P7	
87172		15130	SIVEM PHARMACEUTICALS ULC	DIN OWNER	Y	N	Y			4705 DOBRIN STREET	SAINT-LAURENT	QUEBEC	CANADA	H4R 2P7	
87184		15130	SIVEM PHARMACEUTICALS ULC	DIN OWNER	Y	N	Y			4705 DOBRIN STREET	SAINT-LAURENT	QUEBEC	CANADA	H4R 2P7	
87195		16136	MESOBLAST INTERNATIONAL SARL	DIN OWNER	Y	N	Y			"505 FIFTH AVENUE, LEVEL 3"	NEW YORK	NEW YORK	UNITED STATES	10017	
87217		10293	APOLLO HEALTH AND BEAUTY CARE INC.	DIN OWNER	Y	Y	N			1 APOLLO PLACE	TORONTO	ONTARIO	CANADA	M3J 0H2	
87218		10293	APOLLO HEALTH AND BEAUTY CARE INC.	DIN OWNER	Y	Y	N			1 APOLLO PLACE	TORONTO	ONTARIO	CANADA	M3J 0H2	
87226	CCP08	3857	CANADIAN CUSTOM PACKAGING COMPANY	DIN OWNER	Y	Y	N	N		333 RIMROCK ROAD	TORONTO	ONTARIO	CANADA	M3J 3J9	
87233	DPC07	4065	DOMINION PHARMACAL	DIN OWNER	Y	Y	Y	N	SUITE 100	"6111, AVENUE ROYALMOUNT"	MONTREAL	QUEBEC	CANADA	H4P 2T4	
87234		13930	MYLAN PHARMACEUTICALS ULC	DIN OWNER	Y	Y	Y			85 ADVANCE ROAD	ETOBICOKE	ONTARIO	CANADA	M8Z 2S6	
87235		13838	TORRENT PHARMACEUTICALS LIMITED	DIN OWNER	Y	N	N			AHMEDABAD-MEHSANA HIGHWAY	"TALUKA-KADI DIST. OF MEHSANA, INDRAD"	GUJARAT	INDIA	382721	
87236		13838	TORRENT PHARMACEUTICALS LIMITED	DIN OWNER	Y	N	N			AHMEDABAD-MEHSANA HIGHWAY	"TALUKA-KADI DIST. OF MEHSANA, INDRAD"	GUJARAT	INDIA	382721	
87239		14907	MARCAN PHARMACEUTICALS INC	DIN OWNER	Y	N	N		SUITE 4	77 AURIGA DRIVE	OTTAWA	ONTARIO	CANADA	K2E 7Z7	
87244	OBT08	10028	COBALT PHARMACEUTICALS COMPANY	DIN OWNER	Y	Y	N			"6733 MISSISSAUGA ROAD, SUITE 400"	MISSISSAUGA	ONTARIO	CANADA	L5N 6J5	
87250		14355	HAEMONETICS CORPORATION	DIN OWNER	Y	N	Y			400 WOOD ROAD	BRAINTREE	MASSACHUSETTS	UNITED STATES	2184	
87256	PIP95	4923	AMANO PIONEER ECLIPSE CORPORATION	DIN OWNER	Y	Y	Y	N		1 ECLIPSE ROAD	SPARTA	NORTH CAROLINA	UNITED STATES	28675	909
87259		12573	GE HEALTHCARE CANADA INC	DIN OWNER	Y	Y	Y			2300 MEADOWVALE BLVD	MISSISSAUGA	ONTARIO	CANADA	L5N 5P9	
87264	PGA08	4911	PROCTER & GAMBLE INC	DIN OWNER	Y	N	N	N		4711 YONGE STREET	TORONTO	ONTARIO	CANADA	M2N 6K8	
87267		11271	RANBAXY PHARMACEUTICALS CANADA INC.	DIN OWNER	Y	Y	Y			126 EAST DRIVE	BRAMPTON	ONTARIO	CANADA	L6T 1C1	
87268		11271	RANBAXY PHARMACEUTICALS CANADA INC.	DIN OWNER	Y	Y	Y			126 EAST DRIVE	BRAMPTON	ONTARIO	CANADA	L6T 1C1	
87269		14907	MARCAN PHARMACEUTICALS INC	DIN OWNER	Y	N	N		SUITE 4	77 AURIGA DRIVE	OTTAWA	ONTARIO	CANADA	K2E 7Z7	
87286	PMS07	3550	PHARMASCIENCE INC	DIN OWNER	Y	Y	Y	N	100	"6111, ROYALMOUNT AVENUE"	MONTREAL	QUEBEC	CANADA	H4P 2T4	
87290		12027	SANDOZ CANADA INCORPORATED	DIN OWNER	Y	Y	Y			145 JULES-LÉGER STREET	BOUCHERVILLE	QUEBEC	CANADA	J4B 7K8	
87291		12027	SANDOZ CANADA INCORPORATED	DIN OWNER	Y	Y	Y			145 JULES-LÉGER STREET	BOUCHERVILLE	QUEBEC	CANADA	J4B 7K8	
87295		12027	SANDOZ CANADA INCORPORATED	DIN OWNER	Y	Y	Y			145 JULES-LÉGER STREET	BOUCHERVILLE	QUEBEC	CANADA	J4B 7K8	
87296		12027	SANDOZ CANADA INCORPORATED	DIN OWNER	Y	Y	Y			145 JULES-LÉGER STREET	BOUCHERVILLE	QUEBEC	CANADA	J4B 7K8	
87303		16525	LIEBEL-FLARSHEIM CANADA INC	DIN OWNER	Y	Y	Y			7500 TRANS-CANADA HIGHWAY	POINTE-CLAIRE	QUEBEC	CANADA	H9R 5H8	
87311		14907	MARCAN PHARMACEUTICALS INC	DIN OWNER	Y	N	N		SUITE 4	77 AURIGA DRIVE	OTTAWA	ONTARIO	CANADA	K2E 7Z7	
87312		14907	MARCAN PHARMACEUTICALS INC	DIN OWNER	Y	N	N		SUITE 4	77 AURIGA DRIVE	OTTAWA	ONTARIO	CANADA	K2E 7Z7	
87313		14907	MARCAN PHARMACEUTICALS INC	DIN OWNER	Y	N	N		SUITE 4	77 AURIGA DRIVE	OTTAWA	ONTARIO	CANADA	K2E 7Z7	
87314		14907	MARCAN PHARMACEUTICALS INC	DIN OWNER	Y	N	N		SUITE 4	77 AURIGA DRIVE	OTTAWA	ONTARIO	CANADA	K2E 7Z7	
87321		10577	CHIEF MEDICAL SUPPLIES LTD	DIN OWNER	Y	Y	Y			411-19 ST SE	CALGARY	ALBERTA	CANADA	T2E 6J7	
87329		13930	MYLAN PHARMACEUTICALS ULC	DIN OWNER	Y	Y	Y			85 ADVANCE ROAD	ETOBICOKE	ONTARIO	CANADA	M8Z 2S6	
87392	PIA08	8481	PALADIN LABS INC	DIN OWNER	Y	Y	Y	N		"100 BLVD ALEXIS-NIHON, SUITE 600"	SAINT-LAURENT	QUEBEC	CANADA	H4M 2P2	
87393	PIA08	8481	PALADIN LABS INC	DIN OWNER	Y	Y	Y	N		"100 BLVD ALEXIS-NIHON, SUITE 600"	SAINT-LAURENT	QUEBEC	CANADA	H4M 2P2	
87394	PIA08	8481	PALADIN LABS INC	DIN OWNER	Y	Y	Y	N		"100 BLVD ALEXIS-NIHON, SUITE 600"	SAINT-LAURENT	QUEBEC	CANADA	H4M 2P2	
87395	PIA08	8481	PALADIN LABS INC	DIN OWNER	Y	Y	Y	N		"100 BLVD ALEXIS-NIHON, SUITE 600"	SAINT-LAURENT	QUEBEC	CANADA	H4M 2P2	
87418		15208	ATLANTIC COAST MEDIA GROUP	DIN OWNER	Y	Y	Y			499 WASHINGTON BLVD	JERSEY CITY	NEW JERSEY	UNITED STATES	7310	
87419		14507	EISAI LIMITED	DIN OWNER	Y	Y	Y			"6925 CENTURY AVE, SUITE 701"	MISSISSAUGA	ONTARIO	CANADA	L5N 7K2	
87425		14318	TEVA CANADA LIMITED	DIN OWNER	Y	Y	N			30 NOVOPHARM COURT	TORONTO	ONTARIO	CANADA	M1B 2K9	
87426		14318	TEVA CANADA LIMITED	DIN OWNER	Y	Y	N			30 NOVOPHARM COURT	TORONTO	ONTARIO	CANADA	M1B 2K9	
87427		14318	TEVA CANADA LIMITED	DIN OWNER	Y	Y	N			30 NOVOPHARM COURT	TORONTO	ONTARIO	CANADA	M1B 2K9	
87430		14318	TEVA CANADA LIMITED	DIN OWNER	Y	Y	N			30 NOVOPHARM COURT	TORONTO	ONTARIO	CANADA	M1B 2K9	
87434		9889	LLOYD'S LABORATORIES INC.	DIN OWNER	Y	Y	Y			613 NEAL DRIVE	PETERBOROUGH	ONTARIO	CANADA	K9J 6X7	
87452		12027	SANDOZ CANADA INCORPORATED	DIN OWNER	Y	Y	Y			145 JULES-LÉGER STREET	BOUCHERVILLE	QUEBEC	CANADA	J4B 7K8	
87464		14586	LUPIN LIMITED	DIN OWNER	Y	Y	Y			"KALPATARU INSPIRE, 3RD FLOOR, OFF WESTERN HIGHWAY, SANTACRUZ  EAST"	MUMBAI	MAHARASHTRA	INDIA	400055	
87465		14586	LUPIN LIMITED	DIN OWNER	Y	Y	Y			"KALPATARU INSPIRE, 3RD FLOOR, OFF WESTERN HIGHWAY, SANTACRUZ  EAST"	MUMBAI	MAHARASHTRA	INDIA	400055	
87466		14586	LUPIN LIMITED	DIN OWNER	Y	Y	Y			"KALPATARU INSPIRE, 3RD FLOOR, OFF WESTERN HIGHWAY, SANTACRUZ  EAST"	MUMBAI	MAHARASHTRA	INDIA	400055	
87470		12027	SANDOZ CANADA INCORPORATED	DIN OWNER	Y	Y	Y			145 JULES-LÉGER STREET	BOUCHERVILLE	QUEBEC	CANADA	J4B 7K8	
87471		12027	SANDOZ CANADA INCORPORATED	DIN OWNER	Y	Y	Y			145 JULES-LÉGER STREET	BOUCHERVILLE	QUEBEC	CANADA	J4B 7K8	
87481		11271	RANBAXY PHARMACEUTICALS CANADA INC.	DIN OWNER	Y	Y	Y			126 EAST DRIVE	BRAMPTON	ONTARIO	CANADA	L6T 1C1	
87482		11271	RANBAXY PHARMACEUTICALS CANADA INC.	DIN OWNER	Y	Y	Y			126 EAST DRIVE	BRAMPTON	ONTARIO	CANADA	L6T 1C1	
87483		11271	RANBAXY PHARMACEUTICALS CANADA INC.	DIN OWNER	Y	Y	Y			126 EAST DRIVE	BRAMPTON	ONTARIO	CANADA	L6T 1C1	
87484		11271	RANBAXY PHARMACEUTICALS CANADA INC.	DIN OWNER	Y	Y	Y			126 EAST DRIVE	BRAMPTON	ONTARIO	CANADA	L6T 1C1	
87485		11271	RANBAXY PHARMACEUTICALS CANADA INC.	DIN OWNER	Y	Y	Y			126 EAST DRIVE	BRAMPTON	ONTARIO	CANADA	L6T 1C1	
87491		11271	RANBAXY PHARMACEUTICALS CANADA INC.	DIN OWNER	Y	Y	Y			126 EAST DRIVE	BRAMPTON	ONTARIO	CANADA	L6T 1C1	
87492		11271	RANBAXY PHARMACEUTICALS CANADA INC.	DIN OWNER	Y	Y	Y			126 EAST DRIVE	BRAMPTON	ONTARIO	CANADA	L6T 1C1	
87493		11271	RANBAXY PHARMACEUTICALS CANADA INC.	DIN OWNER	Y	Y	Y			126 EAST DRIVE	BRAMPTON	ONTARIO	CANADA	L6T 1C1	
87504	DPC07	4065	DOMINION PHARMACAL	DIN OWNER	Y	Y	Y	N	SUITE 100	"6111, AVENUE ROYALMOUNT"	MONTREAL	QUEBEC	CANADA	H4P 2T4	
87505		11271	RANBAXY PHARMACEUTICALS CANADA INC.	DIN OWNER	Y	Y	Y			126 EAST DRIVE	BRAMPTON	ONTARIO	CANADA	L6T 1C1	
87506		11271	RANBAXY PHARMACEUTICALS CANADA INC.	DIN OWNER	Y	Y	Y			126 EAST DRIVE	BRAMPTON	ONTARIO	CANADA	L6T 1C1	
87507		11271	RANBAXY PHARMACEUTICALS CANADA INC.	DIN OWNER	Y	Y	Y			126 EAST DRIVE	BRAMPTON	ONTARIO	CANADA	L6T 1C1	
87508		11271	RANBAXY PHARMACEUTICALS CANADA INC.	DIN OWNER	Y	Y	Y			126 EAST DRIVE	BRAMPTON	ONTARIO	CANADA	L6T 1C1	
87523		11271	RANBAXY PHARMACEUTICALS CANADA INC.	DIN OWNER	Y	Y	Y			126 EAST DRIVE	BRAMPTON	ONTARIO	CANADA	L6T 1C1	
87525		14169	VELTEK ASSOCIATES INC	DIN OWNER	Y	N	N			15 LEE BOULEVARD	MALVERN	PENNSYLVANIA	UNITED STATES	19355-1234	
87536		7284	SCHULKE & MAYR G.M.B.H.	DIN OWNER	Y	Y	Y	N		ROBERT-KOCH-STR. 2	NORDERSTEDT	SCHLESWIG-HOLSTEIN	GERMANY	22851	
87537	MCL08	4569	MCNEIL CONSUMER HEALTHCARE DIVISION OF JOHNSON & JOHNSON INC	DIN OWNER	Y	Y	Y	N		88 MCNABB STREET	MARKHAM	ONTARIO	CANADA	L3R 5L2	
87539	MCL08	4569	MCNEIL CONSUMER HEALTHCARE DIVISION OF JOHNSON & JOHNSON INC	DIN OWNER	Y	Y	Y	N		88 MCNABB STREET	MARKHAM	ONTARIO	CANADA	L3R 5L2	
87541		13838	TORRENT PHARMACEUTICALS LIMITED	DIN OWNER	Y	N	N			AHMEDABAD-MEHSANA HIGHWAY	"TALUKA-KADI DIST. OF MEHSANA, INDRAD"	GUJARAT	INDIA	382721	
87542		13838	TORRENT PHARMACEUTICALS LIMITED	DIN OWNER	Y	N	N			AHMEDABAD-MEHSANA HIGHWAY	"TALUKA-KADI DIST. OF MEHSANA, INDRAD"	GUJARAT	INDIA	382721	
87543	JPC10	4415	JAMP PHARMA CORPORATION	DIN OWNER	Y	Y	Y	N		1310 RUE NOBEL	BOUCHERVILLE	QUEBEC	CANADA	J4B 5H3	
87548		12966	LABORATOIRE M2 INC	DIN OWNER	Y	Y	Y			4005-A RUE DE LA GARLOCK	SHERBROOKE	QUEBEC	CANADA	J1L 1W9	
87551		12966	LABORATOIRE M2 INC	DIN OWNER	Y	Y	Y			4005-A RUE DE LA GARLOCK	SHERBROOKE	QUEBEC	CANADA	J1L 1W9	
87557		11271	RANBAXY PHARMACEUTICALS CANADA INC.	DIN OWNER	Y	Y	Y			126 EAST DRIVE	BRAMPTON	ONTARIO	CANADA	L6T 1C1	
87558		11271	RANBAXY PHARMACEUTICALS CANADA INC.	DIN OWNER	Y	Y	Y			126 EAST DRIVE	BRAMPTON	ONTARIO	CANADA	L6T 1C1	
87559		11271	RANBAXY PHARMACEUTICALS CANADA INC.	DIN OWNER	Y	Y	Y			126 EAST DRIVE	BRAMPTON	ONTARIO	CANADA	L6T 1C1	
87560		13838	TORRENT PHARMACEUTICALS LIMITED	DIN OWNER	Y	N	N			AHMEDABAD-MEHSANA HIGHWAY	"TALUKA-KADI DIST. OF MEHSANA, INDRAD"	GUJARAT	INDIA	382721	
87561		13838	TORRENT PHARMACEUTICALS LIMITED	DIN OWNER	Y	N	N			AHMEDABAD-MEHSANA HIGHWAY	"TALUKA-KADI DIST. OF MEHSANA, INDRAD"	GUJARAT	INDIA	382721	
87562		13838	TORRENT PHARMACEUTICALS LIMITED	DIN OWNER	Y	N	N			AHMEDABAD-MEHSANA HIGHWAY	"TALUKA-KADI DIST. OF MEHSANA, INDRAD"	GUJARAT	INDIA	382721	
87563		13838	TORRENT PHARMACEUTICALS LIMITED	DIN OWNER	Y	N	N			AHMEDABAD-MEHSANA HIGHWAY	"TALUKA-KADI DIST. OF MEHSANA, INDRAD"	GUJARAT	INDIA	382721	
87565		11271	RANBAXY PHARMACEUTICALS CANADA INC.	DIN OWNER	Y	Y	Y			126 EAST DRIVE	BRAMPTON	ONTARIO	CANADA	L6T 1C1	
87568		11979	AURO PHARMA INC	DIN OWNER	Y	Y	Y			"3700 STEELES AVENUE WEST, SUITE 402"	WOODBRIDGE	ONTARIO	CANADA	L4L 8K8	
87573	REK07	5010	RECKITT BENCKISER (CANADA) INC	DIN OWNER	Y	Y	Y	N	UNIT #2	1680 TECH AVENUE	MISSISSAUGA	ONTARIO	CANADA	L4W 5S9	
87589	DPC07	4065	DOMINION PHARMACAL	DIN OWNER	Y	Y	Y	N	SUITE 100	"6111, AVENUE ROYALMOUNT"	MONTREAL	QUEBEC	CANADA	H4P 2T4	
87590	DPC07	4065	DOMINION PHARMACAL	DIN OWNER	Y	Y	Y	N	SUITE 100	"6111, AVENUE ROYALMOUNT"	MONTREAL	QUEBEC	CANADA	H4P 2T4	
87598		12027	SANDOZ CANADA INCORPORATED	DIN OWNER	Y	Y	Y			145 JULES-LÉGER STREET	BOUCHERVILLE	QUEBEC	CANADA	J4B 7K8	
87617		13389	VI-JON INC	DIN OWNER	Y	Y	N			8800 PAGE AVENUE	ST.LOUIS	MISSOURI	UNITED STATES	63114	
87618		13389	VI-JON INC	DIN OWNER	Y	Y	N			8800 PAGE AVENUE	ST.LOUIS	MISSOURI	UNITED STATES	63114	
87619	JGD95	4412	PERRIGO INTERNATIONAL	DIN OWNER	Y	Y	Y	N		515 EASTERN AVE	ALLEGAN	MICHIGAN	UNITED STATES	49010-1327	
87632		13389	VI-JON INC	DIN OWNER	Y	Y	N			8800 PAGE AVENUE	ST.LOUIS	MISSOURI	UNITED STATES	63114	
87633		14907	MARCAN PHARMACEUTICALS INC	DIN OWNER	Y	N	N		SUITE 4	77 AURIGA DRIVE	OTTAWA	ONTARIO	CANADA	K2E 7Z7	
87634		14907	MARCAN PHARMACEUTICALS INC	DIN OWNER	Y	N	N		SUITE 4	77 AURIGA DRIVE	OTTAWA	ONTARIO	CANADA	K2E 7Z7	
87635		14907	MARCAN PHARMACEUTICALS INC	DIN OWNER	Y	N	N		SUITE 4	77 AURIGA DRIVE	OTTAWA	ONTARIO	CANADA	K2E 7Z7	
87638	JGD95	4412	PERRIGO INTERNATIONAL	DIN OWNER	Y	Y	Y	N		515 EASTERN AVE	ALLEGAN	MICHIGAN	UNITED STATES	49010-1327	
87652		15176	EMPACK SPRAYTECH INC	DIN OWNER	Y	Y	Y			98 WALKER DRIVE	BRAMPTON	ONTARIO	CANADA	L6T 4H6	
87653		15176	EMPACK SPRAYTECH INC	DIN OWNER	Y	Y	Y			98 WALKER DRIVE	BRAMPTON	ONTARIO	CANADA	L6T 4H6	
87666		11271	RANBAXY PHARMACEUTICALS CANADA INC.	DIN OWNER	Y	Y	Y			126 EAST DRIVE	BRAMPTON	ONTARIO	CANADA	L6T 1C1	
87667		11271	RANBAXY PHARMACEUTICALS CANADA INC.	DIN OWNER	Y	Y	Y			126 EAST DRIVE	BRAMPTON	ONTARIO	CANADA	L6T 1C1	
87674		11271	RANBAXY PHARMACEUTICALS CANADA INC.	DIN OWNER	Y	Y	Y			126 EAST DRIVE	BRAMPTON	ONTARIO	CANADA	L6T 1C1	
87675		11271	RANBAXY PHARMACEUTICALS CANADA INC.	DIN OWNER	Y	Y	Y			126 EAST DRIVE	BRAMPTON	ONTARIO	CANADA	L6T 1C1	
87676		11271	RANBAXY PHARMACEUTICALS CANADA INC.	DIN OWNER	Y	Y	Y			126 EAST DRIVE	BRAMPTON	ONTARIO	CANADA	L6T 1C1	
87695		14907	MARCAN PHARMACEUTICALS INC	DIN OWNER	Y	N	N		SUITE 4	77 AURIGA DRIVE	OTTAWA	ONTARIO	CANADA	K2E 7Z7	
87696		14907	MARCAN PHARMACEUTICALS INC	DIN OWNER	Y	N	N		SUITE 4	77 AURIGA DRIVE	OTTAWA	ONTARIO	CANADA	K2E 7Z7	
87697		11271	RANBAXY PHARMACEUTICALS CANADA INC.	DIN OWNER	Y	Y	Y			126 EAST DRIVE	BRAMPTON	ONTARIO	CANADA	L6T 1C1	
87698		11271	RANBAXY PHARMACEUTICALS CANADA INC.	DIN OWNER	Y	Y	Y			126 EAST DRIVE	BRAMPTON	ONTARIO	CANADA	L6T 1C1	
87701	GCC08	4231	GERMIPHENE CORPORATION	DIN OWNER	Y	Y	Y	N		1379 COLBORNE STREET EAST	BRANTFORD	ONTARIO	CANADA	N3T 5M1	
87702		15304	EXIR PHARMA INC	DIN OWNER	Y	Y	Y			"70 SILTON ROAD, UNIT 18"	WOODBRIDGE	ONTARIO	CANADA	L4L 8B9	
87705		3568	AMGEN CANADA INC	DIN OWNER	Y	Y	Y	N		"6775 FINANCIAL DRIVE, SUITE 100"	MISSISSAUGA	ONTARIO	CANADA	L5N 0A4	
87713		3568	AMGEN CANADA INC	DIN OWNER	Y	Y	Y	N		"6775 FINANCIAL DRIVE, SUITE 100"	MISSISSAUGA	ONTARIO	CANADA	L5N 0A4	
87715		3568	AMGEN CANADA INC	DIN OWNER	Y	Y	Y	N		"6775 FINANCIAL DRIVE, SUITE 100"	MISSISSAUGA	ONTARIO	CANADA	L5N 0A4	
87730		14548	METHOD PRODUCTS INC	DIN OWNER	Y	Y	N		SUITE 300	637 COMMERCIAL STREET	SAN FRANCISCO	CALIFORNIA	UNITED STATES	94111	
87732		14548	METHOD PRODUCTS INC	DIN OWNER	Y	Y	N		SUITE 300	637 COMMERCIAL STREET	SAN FRANCISCO	CALIFORNIA	UNITED STATES	94111	
87734		11902	VALEANT CANADA LP/VALEANT CANADA S.E.C.	DIN OWNER	Y	Y	Y			2150 BOUL. ST-ELZEAR OUEST	LAVAL	QUEBEC	CANADA	H7L 4A8	
87735	ZEP07	5477	ZEP MANUFACTURING COMPANY OF CANADA	DIN OWNER	Y	Y	Y	N		11627-178 STREET	EDMONTON	ALBERTA	CANADA	T5S 1N6	
87737	BUI95	3822	BUCKEYE INTERNATIONAL INC	DIN OWNER	Y	N	N	N		2700 WAGNER PLACE	MARYLAND HEIGHTS	MISSOURI	UNITED STATES	63043-3471	
87744		8189	GUARDIAN DRUG COMPANY INC	DIN OWNER	Y	Y	N			2 CHARLES COURT	DAYTON	NEW JERSEY	UNITED STATES	08810-1508	
87756		12027	SANDOZ CANADA INCORPORATED	DIN OWNER	Y	Y	Y			145 JULES-LÉGER STREET	BOUCHERVILLE	QUEBEC	CANADA	J4B 7K8	
87757		12027	SANDOZ CANADA INCORPORATED	DIN OWNER	Y	Y	Y			145 JULES-LÉGER STREET	BOUCHERVILLE	QUEBEC	CANADA	J4B 7K8	
87758		12027	SANDOZ CANADA INCORPORATED	DIN OWNER	Y	Y	Y			145 JULES-LÉGER STREET	BOUCHERVILLE	QUEBEC	CANADA	J4B 7K8	
87772		13930	MYLAN PHARMACEUTICALS ULC	DIN OWNER	Y	Y	Y			85 ADVANCE ROAD	ETOBICOKE	ONTARIO	CANADA	M8Z 2S6	
87787		13838	TORRENT PHARMACEUTICALS LIMITED	DIN OWNER	Y	N	N			AHMEDABAD-MEHSANA HIGHWAY	"TALUKA-KADI DIST. OF MEHSANA, INDRAD"	GUJARAT	INDIA	382721	
87788		13838	TORRENT PHARMACEUTICALS LIMITED	DIN OWNER	Y	N	N			AHMEDABAD-MEHSANA HIGHWAY	"TALUKA-KADI DIST. OF MEHSANA, INDRAD"	GUJARAT	INDIA	382721	
87794		16571	ELANCO CANADA LIMITED	DIN OWNER	Y	N	Y		120	150 RESEARCH LANE	GUELPH	ONTARIO	CANADA	N1G 4T2	
87796	MCL08	4569	MCNEIL CONSUMER HEALTHCARE DIVISION OF JOHNSON & JOHNSON INC	DIN OWNER	Y	Y	Y	N		88 MCNABB STREET	MARKHAM	ONTARIO	CANADA	L3R 5L2	
87797	MCL08	4569	MCNEIL CONSUMER HEALTHCARE DIVISION OF JOHNSON & JOHNSON INC	DIN OWNER	Y	Y	Y	N		88 MCNABB STREET	MARKHAM	ONTARIO	CANADA	L3R 5L2	
87800		11271	RANBAXY PHARMACEUTICALS CANADA INC.	DIN OWNER	Y	Y	Y			126 EAST DRIVE	BRAMPTON	ONTARIO	CANADA	L6T 1C1	
87803		13930	MYLAN PHARMACEUTICALS ULC	DIN OWNER	Y	Y	Y			85 ADVANCE ROAD	ETOBICOKE	ONTARIO	CANADA	M8Z 2S6	
87839		16525	LIEBEL-FLARSHEIM CANADA INC	DIN OWNER	Y	Y	Y			7500 TRANS-CANADA HIGHWAY	POINTE-CLAIRE	QUEBEC	CANADA	H9R 5H8	
87840		16525	LIEBEL-FLARSHEIM CANADA INC	DIN OWNER	Y	Y	Y			7500 TRANS-CANADA HIGHWAY	POINTE-CLAIRE	QUEBEC	CANADA	H9R 5H8	
87841		16525	LIEBEL-FLARSHEIM CANADA INC	DIN OWNER	Y	Y	Y			7500 TRANS-CANADA HIGHWAY	POINTE-CLAIRE	QUEBEC	CANADA	H9R 5H8	
87842		16525	LIEBEL-FLARSHEIM CANADA INC	DIN OWNER	Y	Y	Y			7500 TRANS-CANADA HIGHWAY	POINTE-CLAIRE	QUEBEC	CANADA	H9R 5H8	
87844		12027	SANDOZ CANADA INCORPORATED	DIN OWNER	Y	Y	Y			145 JULES-LÉGER STREET	BOUCHERVILLE	QUEBEC	CANADA	J4B 7K8	
87845		12027	SANDOZ CANADA INCORPORATED	DIN OWNER	Y	Y	Y			145 JULES-LÉGER STREET	BOUCHERVILLE	QUEBEC	CANADA	J4B 7K8	
87857	JPC10	4415	JAMP PHARMA CORPORATION	DIN OWNER	Y	Y	Y	N		1310 RUE NOBEL	BOUCHERVILLE	QUEBEC	CANADA	J4B 5H3	
87882		9043	VIROX TECHNOLOGIES INC	DIN OWNER	Y	Y	Y	N		2770 COVENTRY ROAD	OAKVILLE	ONTARIO	CANADA	L6H 6R1	
87884		9043	VIROX TECHNOLOGIES INC	DIN OWNER	Y	Y	Y	N		2770 COVENTRY ROAD	OAKVILLE	ONTARIO	CANADA	L6H 6R1	
87889		8922	GUTHY-RENKER LLC	DIN OWNER	Y	Y	N	N	1600	100 N SEPULVEDA BLVD	EL SEGUNDO	CALIFORNIA	UNITED STATES	90245	
87892		15176	EMPACK SPRAYTECH INC	DIN OWNER	Y	Y	Y			98 WALKER DRIVE	BRAMPTON	ONTARIO	CANADA	L6T 4H6	
87896		7841	ALOETTE COSMETICS INC.	DIN OWNER	Y	Y	Y	N	300	"6120 POWERS FERRY RD, NW"	ATLANTA	GEORGIA	UNITED STATES	30339	
87897		15176	EMPACK SPRAYTECH INC	DIN OWNER	Y	Y	Y			98 WALKER DRIVE	BRAMPTON	ONTARIO	CANADA	L6T 4H6	
87898		15176	EMPACK SPRAYTECH INC	DIN OWNER	Y	Y	Y			98 WALKER DRIVE	BRAMPTON	ONTARIO	CANADA	L6T 4H6	
87902		13930	MYLAN PHARMACEUTICALS ULC	DIN OWNER	Y	Y	Y			85 ADVANCE ROAD	ETOBICOKE	ONTARIO	CANADA	M8Z 2S6	
87920		12122	L' OREAL CANADA	DIN OWNER	Y	N	N			4895 RUE HICKMORE	MONTREAL	QUEBEC	CANADA	H4T 1K5	
87938		14318	TEVA CANADA LIMITED	DIN OWNER	Y	Y	N			30 NOVOPHARM COURT	TORONTO	ONTARIO	CANADA	M1B 2K9	
87960		15238	KVG GROUP INC	DIN OWNER	Y	Y	Y			"1 WESTSIDE DRIVE, UNIT 12"	TORONTO	ONTARIO	CANADA	M9B 1C2	
87962		12122	L' OREAL CANADA	DIN OWNER	Y	N	N			4895 RUE HICKMORE	MONTREAL	QUEBEC	CANADA	H4T 1K5	
87986		14907	MARCAN PHARMACEUTICALS INC	DIN OWNER	Y	N	N		SUITE 4	77 AURIGA DRIVE	OTTAWA	ONTARIO	CANADA	K2E 7Z7	
87988		14907	MARCAN PHARMACEUTICALS INC	DIN OWNER	Y	N	N		SUITE 4	77 AURIGA DRIVE	OTTAWA	ONTARIO	CANADA	K2E 7Z7	
87989		14907	MARCAN PHARMACEUTICALS INC	DIN OWNER	Y	N	N		SUITE 4	77 AURIGA DRIVE	OTTAWA	ONTARIO	CANADA	K2E 7Z7	
87994	PMS07	3550	PHARMASCIENCE INC	DIN OWNER	Y	Y	Y	N	100	"6111, ROYALMOUNT AVENUE"	MONTREAL	QUEBEC	CANADA	H4P 2T4	
88001		13221	MINT PHARMACEUTICALS INC	DIN OWNER	Y	Y	Y		UNIT 1	1093 MEYERSIDE DRIVE	MISSISSAUGA	ONTARIO	CANADA	L5T 1J6	
88005		12027	SANDOZ CANADA INCORPORATED	DIN OWNER	Y	Y	Y			145 JULES-LÉGER STREET	BOUCHERVILLE	QUEBEC	CANADA	J4B 7K8	
88006		13838	TORRENT PHARMACEUTICALS LIMITED	DIN OWNER	Y	N	N			AHMEDABAD-MEHSANA HIGHWAY	"TALUKA-KADI DIST. OF MEHSANA, INDRAD"	GUJARAT	INDIA	382721	
88008		11587	MEDLINE INDUSTRIES INCORPORATED	DIN OWNER	Y	N	N			1 MEDLINE PLACE	MUNDELEIN	ILLINOIS	UNITED STATES	60060	
88016		9904	OMBRELLE CANADA	DIN OWNER	Y	N	N			4895 HICKMORE	MONTREAL	QUEBEC	CANADA	H4T 1K5	
88018		9904	OMBRELLE CANADA	DIN OWNER	Y	N	N			4895 HICKMORE	MONTREAL	QUEBEC	CANADA	H4T 1K5	
88020		9904	OMBRELLE CANADA	DIN OWNER	Y	N	N			4895 HICKMORE	MONTREAL	QUEBEC	CANADA	H4T 1K5	
88021		9904	OMBRELLE CANADA	DIN OWNER	Y	N	N			4895 HICKMORE	MONTREAL	QUEBEC	CANADA	H4T 1K5	
88023		14907	MARCAN PHARMACEUTICALS INC	DIN OWNER	Y	N	N		SUITE 4	77 AURIGA DRIVE	OTTAWA	ONTARIO	CANADA	K2E 7Z7	
88026	BSH95	5661	BAUSCH & LOMB INC	DIN OWNER	Y	N	N	N		1400 N GOODMAN STREET	ROCHESTER	NEW YORK	UNITED STATES	14609	
88028	PMS07	3550	PHARMASCIENCE INC	DIN OWNER	Y	Y	Y	N	100	"6111, ROYALMOUNT AVENUE"	MONTREAL	QUEBEC	CANADA	H4P 2T4	
88030		10348	MEDEXUS INC	DIN OWNER	Y	Y	Y			"35 NIXON ROAD, UNIT 1"	BOLTON	ONTARIO	CANADA	L7E 1K1	
88031		14803	JUBILANT GENERICS LIMITED	DIN OWNER	Y	Y	N			"1A, SECTOR 16A INSTITUTIONAL AREA"	NOIDA	UTTAR PRADESH	INDIA	201301	
88032		14803	JUBILANT GENERICS LIMITED	DIN OWNER	Y	Y	N			"1A, SECTOR 16A INSTITUTIONAL AREA"	NOIDA	UTTAR PRADESH	INDIA	201301	
88033		14803	JUBILANT GENERICS LIMITED	DIN OWNER	Y	Y	N			"1A, SECTOR 16A INSTITUTIONAL AREA"	NOIDA	UTTAR PRADESH	INDIA	201301	
88041		15772	ACTAVIS PHARMA COMPANY	DIN OWNER	Y	Y	Y			"6733 MISSISSAUGA ROAD, SUITE 400"	MISSISSAUGA	ONTARIO	CANADA	L5N 6J5	
88043		14907	MARCAN PHARMACEUTICALS INC	DIN OWNER	Y	N	N		SUITE 4	77 AURIGA DRIVE	OTTAWA	ONTARIO	CANADA	K2E 7Z7	
88044		14907	MARCAN PHARMACEUTICALS INC	DIN OWNER	Y	N	N		SUITE 4	77 AURIGA DRIVE	OTTAWA	ONTARIO	CANADA	K2E 7Z7	
88045		14907	MARCAN PHARMACEUTICALS INC	DIN OWNER	Y	N	N		SUITE 4	77 AURIGA DRIVE	OTTAWA	ONTARIO	CANADA	K2E 7Z7	
88049	BSH95	5661	BAUSCH & LOMB INC	DIN OWNER	Y	N	N	N		1400 N GOODMAN STREET	ROCHESTER	NEW YORK	UNITED STATES	14609	
88066		14803	JUBILANT GENERICS LIMITED	DIN OWNER	Y	Y	N			"1A, SECTOR 16A INSTITUTIONAL AREA"	NOIDA	UTTAR PRADESH	INDIA	201301	
88067		14803	JUBILANT GENERICS LIMITED	DIN OWNER	Y	Y	N			"1A, SECTOR 16A INSTITUTIONAL AREA"	NOIDA	UTTAR PRADESH	INDIA	201301	
88078	DPC07	4065	DOMINION PHARMACAL	DIN OWNER	Y	Y	Y	N	SUITE 100	"6111, AVENUE ROYALMOUNT"	MONTREAL	QUEBEC	CANADA	H4P 2T4	
88083	DPC07	4065	DOMINION PHARMACAL	DIN OWNER	Y	Y	Y	N	SUITE 100	"6111, AVENUE ROYALMOUNT"	MONTREAL	QUEBEC	CANADA	H4P 2T4	
88084	DPC07	4065	DOMINION PHARMACAL	DIN OWNER	Y	Y	Y	N	SUITE 100	"6111, AVENUE ROYALMOUNT"	MONTREAL	QUEBEC	CANADA	H4P 2T4	
88086		12027	SANDOZ CANADA INCORPORATED	DIN OWNER	Y	Y	Y			145 JULES-LÉGER STREET	BOUCHERVILLE	QUEBEC	CANADA	J4B 7K8	
88087		12027	SANDOZ CANADA INCORPORATED	DIN OWNER	Y	Y	Y			145 JULES-LÉGER STREET	BOUCHERVILLE	QUEBEC	CANADA	J4B 7K8	
88088		12027	SANDOZ CANADA INCORPORATED	DIN OWNER	Y	Y	Y			145 JULES-LÉGER STREET	BOUCHERVILLE	QUEBEC	CANADA	J4B 7K8	
88089		15176	EMPACK SPRAYTECH INC	DIN OWNER	Y	Y	Y			98 WALKER DRIVE	BRAMPTON	ONTARIO	CANADA	L6T 4H6	
88090		15176	EMPACK SPRAYTECH INC	DIN OWNER	Y	Y	Y			98 WALKER DRIVE	BRAMPTON	ONTARIO	CANADA	L6T 4H6	
88092		15176	EMPACK SPRAYTECH INC	DIN OWNER	Y	Y	Y			98 WALKER DRIVE	BRAMPTON	ONTARIO	CANADA	L6T 4H6	
88095		15176	EMPACK SPRAYTECH INC	DIN OWNER	Y	Y	Y			98 WALKER DRIVE	BRAMPTON	ONTARIO	CANADA	L6T 4H6	
88098		15176	EMPACK SPRAYTECH INC	DIN OWNER	Y	Y	Y			98 WALKER DRIVE	BRAMPTON	ONTARIO	CANADA	L6T 4H6	
88101		15176	EMPACK SPRAYTECH INC	DIN OWNER	Y	Y	Y			98 WALKER DRIVE	BRAMPTON	ONTARIO	CANADA	L6T 4H6	
88107		14803	JUBILANT GENERICS LIMITED	DIN OWNER	Y	Y	N			"1A, SECTOR 16A INSTITUTIONAL AREA"	NOIDA	UTTAR PRADESH	INDIA	201301	
88108		14803	JUBILANT GENERICS LIMITED	DIN OWNER	Y	Y	N			"1A, SECTOR 16A INSTITUTIONAL AREA"	NOIDA	UTTAR PRADESH	INDIA	201301	
88109		14803	JUBILANT GENERICS LIMITED	DIN OWNER	Y	Y	N			"1A, SECTOR 16A INSTITUTIONAL AREA"	NOIDA	UTTAR PRADESH	INDIA	201301	
88111	8-Nov	4776	NOVOCOL PHARMACEUTICAL OF CANADA INC	DIN OWNER	Y	N	N	N		25 WOLSELEY COURT	CAMBRIDGE	ONTARIO	CANADA	N1R 6X3	
88122		15069	ARTEMIS BIO SOLUTIONS	DIN OWNER	Y	Y	Y		4	960 N INDUSTRIAL	ELMHURST	ILLINOIS	UNITED STATES	60126	
88123		15468	APZ PHARMACEUTICAL CORPORATION	DIN OWNER	Y	N	Y			295 COLLEGE STREET	TORONTO	ONTARIO	CANADA	M5T 1S2	
88124	DPC07	4065	DOMINION PHARMACAL	DIN OWNER	Y	Y	Y	N	SUITE 100	"6111, AVENUE ROYALMOUNT"	MONTREAL	QUEBEC	CANADA	H4P 2T4	
88126		12462	MATRIX ENVIRONMENTAL SOLUTIONS LTD	DIN OWNER	Y	N	N			463 DAWSON ROAD N	WINNIPEG	MANITOBA	CANADA	R2J 0S8	
88161		14803	JUBILANT GENERICS LIMITED	DIN OWNER	Y	Y	N			"1A, SECTOR 16A INSTITUTIONAL AREA"	NOIDA	UTTAR PRADESH	INDIA	201301	
88162		14803	JUBILANT GENERICS LIMITED	DIN OWNER	Y	Y	N			"1A, SECTOR 16A INSTITUTIONAL AREA"	NOIDA	UTTAR PRADESH	INDIA	201301	
88168		15023	ALBERTA VETERINARY LABORATORIES LTD	DIN OWNER	Y	Y	Y			411-19TH STREET S.E.	CALGARY	ALBERTA	CANADA	T2E 6J7	
88169	APX08	3636	APOTEX INC	DIN OWNER	Y	Y	Y	N		150 SIGNET DRIVE	TORONTO	ONTARIO	CANADA	M9L 1T9	
88181		15157	UNIMARK REMEDIES LIMITED	DIN OWNER	Y	N	Y			"FACT: 337, KERALA NALSAROVAR ROAD, KERALA, BAVLA"	AHMEDABAD	GUJARAT	INDIA	382220	
88182		15157	UNIMARK REMEDIES LIMITED	DIN OWNER	Y	N	Y			"FACT: 337, KERALA NALSAROVAR ROAD, KERALA, BAVLA"	AHMEDABAD	GUJARAT	INDIA	382220	
88183		15157	UNIMARK REMEDIES LIMITED	DIN OWNER	Y	N	Y			"FACT: 337, KERALA NALSAROVAR ROAD, KERALA, BAVLA"	AHMEDABAD	GUJARAT	INDIA	382220	
88186	ALL07	3574	ALLERGAN INC	DIN OWNER	Y	Y	Y	N	SUITE 500	85 ENTERPRISE BLVD	MARKHAM	ONTARIO	CANADA	L6G 0B5	
88188		15645	ZOETIS CANADA INC	DIN OWNER	Y	Y	Y			16740 TRANS CANADA HIGHWAY	KIRKLAND	QUEBEC	CANADA	H9H 4M7	
88202		14907	MARCAN PHARMACEUTICALS INC	DIN OWNER	Y	N	N		SUITE 4	77 AURIGA DRIVE	OTTAWA	ONTARIO	CANADA	K2E 7Z7	
88203		14907	MARCAN PHARMACEUTICALS INC	DIN OWNER	Y	N	N		SUITE 4	77 AURIGA DRIVE	OTTAWA	ONTARIO	CANADA	K2E 7Z7	
88204		14907	MARCAN PHARMACEUTICALS INC	DIN OWNER	Y	N	N		SUITE 4	77 AURIGA DRIVE	OTTAWA	ONTARIO	CANADA	K2E 7Z7	
88205		14907	MARCAN PHARMACEUTICALS INC	DIN OWNER	Y	N	N		SUITE 4	77 AURIGA DRIVE	OTTAWA	ONTARIO	CANADA	K2E 7Z7	
88216		13306	NEXMED USA INC	DIN OWNER	Y	Y	Y			"11975 EL CAMINO REAL, SUITE 300"	SAN DIEGO	CALIFORNIA	UNITED STATES	92130	
88217		9161	DIAL CANADA INC A DIVISION OF HENKEL CONSUMER GOODS OF CANADA INC	DIN OWNER	Y	Y	N			2515 MEADOWPINE BOULEVARD	MISSISSAUGA	ONTARIO	CANADA	L5N 6C3	
88219		15498	INSPIRED BEAUTY BRANDS INC	DIN OWNER	Y	Y	N			"277 NORTHERN BLVD, SUITE 208"	GREAT NECK	NEW YORK	UNITED STATES	11021	
88220		14589	PATRIOT A DIVISION OF JANSSEN INC	DIN OWNER	Y	N	Y			19 GREEN BELT DRIVE	TORONTO	ONTARIO	CANADA	M3C 1L9	
88221		14589	PATRIOT A DIVISION OF JANSSEN INC	DIN OWNER	Y	N	Y			19 GREEN BELT DRIVE	TORONTO	ONTARIO	CANADA	M3C 1L9	
88222		14589	PATRIOT A DIVISION OF JANSSEN INC	DIN OWNER	Y	N	Y			19 GREEN BELT DRIVE	TORONTO	ONTARIO	CANADA	M3C 1L9	
88223		14589	PATRIOT A DIVISION OF JANSSEN INC	DIN OWNER	Y	N	Y			19 GREEN BELT DRIVE	TORONTO	ONTARIO	CANADA	M3C 1L9	
88224		14589	PATRIOT A DIVISION OF JANSSEN INC	DIN OWNER	Y	N	Y			19 GREEN BELT DRIVE	TORONTO	ONTARIO	CANADA	M3C 1L9	
88230		11979	AURO PHARMA INC	DIN OWNER	Y	Y	Y			"3700 STEELES AVENUE WEST, SUITE 402"	WOODBRIDGE	ONTARIO	CANADA	L4L 8K8	
88232		11979	AURO PHARMA INC	DIN OWNER	Y	Y	Y			"3700 STEELES AVENUE WEST, SUITE 402"	WOODBRIDGE	ONTARIO	CANADA	L4L 8K8	
88245		12027	SANDOZ CANADA INCORPORATED	DIN OWNER	Y	Y	Y			145 JULES-LÉGER STREET	BOUCHERVILLE	QUEBEC	CANADA	J4B 7K8	
88246		8675	IMREX INC.	DIN OWNER	Y	N	N	N	UNIT 13	1550 YORKTON COURT	BURLINGTON	ONTARIO	CANADA	L7P 5B7	
88247	PMS07	3550	PHARMASCIENCE INC	DIN OWNER	Y	Y	Y	N	100	"6111, ROYALMOUNT AVENUE"	MONTREAL	QUEBEC	CANADA	H4P 2T4	
88248	PMS07	3550	PHARMASCIENCE INC	DIN OWNER	Y	Y	Y	N	100	"6111, ROYALMOUNT AVENUE"	MONTREAL	QUEBEC	CANADA	H4P 2T4	
88249	PMS07	3550	PHARMASCIENCE INC	DIN OWNER	Y	Y	Y	N	100	"6111, ROYALMOUNT AVENUE"	MONTREAL	QUEBEC	CANADA	H4P 2T4	
88250	PMS07	3550	PHARMASCIENCE INC	DIN OWNER	Y	Y	Y	N	100	"6111, ROYALMOUNT AVENUE"	MONTREAL	QUEBEC	CANADA	H4P 2T4	
88262		13829	ACCEL PHARMA INC	DIN OWNER	Y	Y	Y			99 PLACE FRONTENAC	POINTE CLAIRE	QUEBEC	CANADA	H9R 4Z7	
88263		15426	MALLINCKRODT CANADA ULC	DIN OWNER	Y	Y	Y			"6500 TRANS CANADA HIGHWAY, SUITE 400"	POINTE CLAIRE	QUEBEC	CANADA	H9R 0A5	
88265		12392	GROUPE MARCELLE INC	DIN OWNER	Y	N	Y			9200 CÔTE DE LIESSE	LACHINE	QUEBEC	CANADA	H8T 1A1	
88275		12504	HUVEPHARMA EOOD	DIN OWNER	Y	N	Y			"5TH FLOOR, 3A NIKOLAY HAYTOV STR"	SOFIA	SAONE ET LOIRE	BULGARIA	1113	
88295		15645	ZOETIS CANADA INC	DIN OWNER	Y	Y	Y			16740 TRANS CANADA HIGHWAY	KIRKLAND	QUEBEC	CANADA	H9H 4M7	
88298		14907	MARCAN PHARMACEUTICALS INC	DIN OWNER	Y	N	N		SUITE 4	77 AURIGA DRIVE	OTTAWA	ONTARIO	CANADA	K2E 7Z7	
88315		14907	MARCAN PHARMACEUTICALS INC	DIN OWNER	Y	N	N		SUITE 4	77 AURIGA DRIVE	OTTAWA	ONTARIO	CANADA	K2E 7Z7	
88316		14907	MARCAN PHARMACEUTICALS INC	DIN OWNER	Y	N	N		SUITE 4	77 AURIGA DRIVE	OTTAWA	ONTARIO	CANADA	K2E 7Z7	
88317		14907	MARCAN PHARMACEUTICALS INC	DIN OWNER	Y	N	N		SUITE 4	77 AURIGA DRIVE	OTTAWA	ONTARIO	CANADA	K2E 7Z7	
88318		14907	MARCAN PHARMACEUTICALS INC	DIN OWNER	Y	N	N		SUITE 4	77 AURIGA DRIVE	OTTAWA	ONTARIO	CANADA	K2E 7Z7	
88322		15500	NATURAL WORLD DISTRIBUTION INC	DIN OWNER	Y	Y	Y			65 BOUL STE-MADELEINE	TROIS-RIVIÈRES	QUEBEC	CANADA	G8T 3K8	
88323		12027	SANDOZ CANADA INCORPORATED	DIN OWNER	Y	Y	Y			145 JULES-LÉGER STREET	BOUCHERVILLE	QUEBEC	CANADA	J4B 7K8	
88324		14907	MARCAN PHARMACEUTICALS INC	DIN OWNER	Y	N	N		SUITE 4	77 AURIGA DRIVE	OTTAWA	ONTARIO	CANADA	K2E 7Z7	
88326		14907	MARCAN PHARMACEUTICALS INC	DIN OWNER	Y	N	N		SUITE 4	77 AURIGA DRIVE	OTTAWA	ONTARIO	CANADA	K2E 7Z7	
88327		14907	MARCAN PHARMACEUTICALS INC	DIN OWNER	Y	N	N		SUITE 4	77 AURIGA DRIVE	OTTAWA	ONTARIO	CANADA	K2E 7Z7	
88367	PGA08	4911	PROCTER & GAMBLE INC	DIN OWNER	Y	N	N	N		4711 YONGE STREET	TORONTO	ONTARIO	CANADA	M2N 6K8	
88368	PGA08	4911	PROCTER & GAMBLE INC	DIN OWNER	Y	N	N	N		4711 YONGE STREET	TORONTO	ONTARIO	CANADA	M2N 6K8	
88371		13829	ACCEL PHARMA INC	DIN OWNER	Y	Y	Y			99 PLACE FRONTENAC	POINTE CLAIRE	QUEBEC	CANADA	H9R 4Z7	
88381		14907	MARCAN PHARMACEUTICALS INC	DIN OWNER	Y	N	N		SUITE 4	77 AURIGA DRIVE	OTTAWA	ONTARIO	CANADA	K2E 7Z7	
88382		14907	MARCAN PHARMACEUTICALS INC	DIN OWNER	Y	N	N		SUITE 4	77 AURIGA DRIVE	OTTAWA	ONTARIO	CANADA	K2E 7Z7	
88384		11581	AGRISAN SPECIALTY CHEMICAL & PHARMACEUTICAL	DIN OWNER	Y	Y	N			451 SMITH ST	ARTHUR	ONTARIO	CANADA	N0G 1A0	69
88412	APX08	3636	APOTEX INC	DIN OWNER	Y	Y	Y	N		150 SIGNET DRIVE	TORONTO	ONTARIO	CANADA	M9L 1T9	
88413	APX08	3636	APOTEX INC	DIN OWNER	Y	Y	Y	N		150 SIGNET DRIVE	TORONTO	ONTARIO	CANADA	M9L 1T9	
88417		10927	PUR MINERALS	DIN OWNER	Y	Y	Y		300	"6120 POWERS FERRY RD, NW"	ATLANTA	GEORGIA	UNITED STATES	30339	
88439	DPC07	4065	DOMINION PHARMACAL	DIN OWNER	Y	Y	Y	N	SUITE 100	"6111, AVENUE ROYALMOUNT"	MONTREAL	QUEBEC	CANADA	H4P 2T4	
88451	PGA08	4911	PROCTER & GAMBLE INC	DIN OWNER	Y	N	N	N		4711 YONGE STREET	TORONTO	ONTARIO	CANADA	M2N 6K8	
88457		15115	BENEFIT COMESTICS LLC	DIN OWNER	Y	N	N			"225 BUSH STREET, FLOOR 20"	SAN FRANCISCO	CALIFORNIA	UNITED STATES	94104	
88460		15138	U.S. NONWOVENS CORP	DIN OWNER	Y	Y	Y			100 EMJAY BOULEVARD	BRENTWOOD	NEW YORK	UNITED STATES	11717	
88461		14907	MARCAN PHARMACEUTICALS INC	DIN OWNER	Y	N	N		SUITE 4	77 AURIGA DRIVE	OTTAWA	ONTARIO	CANADA	K2E 7Z7	
88475		15023	ALBERTA VETERINARY LABORATORIES LTD	DIN OWNER	Y	Y	Y			411-19TH STREET S.E.	CALGARY	ALBERTA	CANADA	T2E 6J7	
88478	WEC10	5403	WESCLEAN EQUIPMENT AND CLEANING SUPPLIES LTD.	DIN OWNER	Y	Y	Y	N		11450 -149TH STREET	EDMONTON	ALBERTA	CANADA	T5M 1W7	
88498	ALL07	3574	ALLERGAN INC	DIN OWNER	Y	Y	Y	N	SUITE 500	85 ENTERPRISE BLVD	MARKHAM	ONTARIO	CANADA	L6G 0B5	
88502	PGA08	4911	PROCTER & GAMBLE INC	DIN OWNER	Y	N	N	N		4711 YONGE STREET	TORONTO	ONTARIO	CANADA	M2N 6K8	
88538		12027	SANDOZ CANADA INCORPORATED	DIN OWNER	Y	Y	Y			145 JULES-LÉGER STREET	BOUCHERVILLE	QUEBEC	CANADA	J4B 7K8	
88539		12027	SANDOZ CANADA INCORPORATED	DIN OWNER	Y	Y	Y			145 JULES-LÉGER STREET	BOUCHERVILLE	QUEBEC	CANADA	J4B 7K8	
88541	OMG07	4852	OMEGA LABORATORIES LTD	DIN OWNER	Y	Y	Y	N		11177 HAMON	MONTREAL	QUEBEC	CANADA	H3M 3E4	
88547		15130	SIVEM PHARMACEUTICALS ULC	DIN OWNER	Y	N	Y			4705 DOBRIN STREET	SAINT-LAURENT	QUEBEC	CANADA	H4R 2P7	
88548		15130	SIVEM PHARMACEUTICALS ULC	DIN OWNER	Y	N	Y			4705 DOBRIN STREET	SAINT-LAURENT	QUEBEC	CANADA	H4R 2P7	
88549		15130	SIVEM PHARMACEUTICALS ULC	DIN OWNER	Y	N	Y			4705 DOBRIN STREET	SAINT-LAURENT	QUEBEC	CANADA	H4R 2P7	
88550		13829	ACCEL PHARMA INC	DIN OWNER	Y	Y	Y			99 PLACE FRONTENAC	POINTE CLAIRE	QUEBEC	CANADA	H9R 4Z7	
88551		13829	ACCEL PHARMA INC	DIN OWNER	Y	Y	Y			99 PLACE FRONTENAC	POINTE CLAIRE	QUEBEC	CANADA	H9R 4Z7	
88575		14464	CRLS	DIN OWNER	Y	Y	Y			"333-24 AVENUE SW, SUITE 300"	CALGARY	ALBERTA	CANADA	T2S 3E6	1381
88580		13829	ACCEL PHARMA INC	DIN OWNER	Y	Y	Y			99 PLACE FRONTENAC	POINTE CLAIRE	QUEBEC	CANADA	H9R 4Z7	
88581		13930	MYLAN PHARMACEUTICALS ULC	DIN OWNER	Y	Y	Y			85 ADVANCE ROAD	ETOBICOKE	ONTARIO	CANADA	M8Z 2S6	
88584		13829	ACCEL PHARMA INC	DIN OWNER	Y	Y	Y			99 PLACE FRONTENAC	POINTE CLAIRE	QUEBEC	CANADA	H9R 4Z7	
88587		13829	ACCEL PHARMA INC	DIN OWNER	Y	Y	Y			99 PLACE FRONTENAC	POINTE CLAIRE	QUEBEC	CANADA	H9R 4Z7	
88588		13829	ACCEL PHARMA INC	DIN OWNER	Y	Y	Y			99 PLACE FRONTENAC	POINTE CLAIRE	QUEBEC	CANADA	H9R 4Z7	
88620	MKC08	4619	MARY KAY COSMETICS LTD	DIN OWNER	Y	Y	Y	N		2020 MEADOWVALE BLVD	MISSISSAUGA	ONTARIO	CANADA	L5N 6Y2	
88628		14907	MARCAN PHARMACEUTICALS INC	DIN OWNER	Y	N	N		SUITE 4	77 AURIGA DRIVE	OTTAWA	ONTARIO	CANADA	K2E 7Z7	
88629		14907	MARCAN PHARMACEUTICALS INC	DIN OWNER	Y	N	N		SUITE 4	77 AURIGA DRIVE	OTTAWA	ONTARIO	CANADA	K2E 7Z7	
88630		14907	MARCAN PHARMACEUTICALS INC	DIN OWNER	Y	N	N		SUITE 4	77 AURIGA DRIVE	OTTAWA	ONTARIO	CANADA	K2E 7Z7	
88631		15023	ALBERTA VETERINARY LABORATORIES LTD	DIN OWNER	Y	Y	Y			411-19TH STREET S.E.	CALGARY	ALBERTA	CANADA	T2E 6J7	
88643		15130	SIVEM PHARMACEUTICALS ULC	DIN OWNER	Y	N	Y			4705 DOBRIN STREET	SAINT-LAURENT	QUEBEC	CANADA	H4R 2P7	
88645		15130	SIVEM PHARMACEUTICALS ULC	DIN OWNER	Y	N	Y			4705 DOBRIN STREET	SAINT-LAURENT	QUEBEC	CANADA	H4R 2P7	
88647		14464	CRLS	DIN OWNER	Y	Y	Y			"333-24 AVENUE SW, SUITE 300"	CALGARY	ALBERTA	CANADA	T2S 3E6	1381
88648		15023	ALBERTA VETERINARY LABORATORIES LTD	DIN OWNER	Y	Y	Y			411-19TH STREET S.E.	CALGARY	ALBERTA	CANADA	T2E 6J7	
88658	PFI07	4908	PFIZER CANADA INC	DIN OWNER	Y	Y	Y	N		17300 TRANS-CANADA HIGHWAY	KIRKLAND	QUEBEC	CANADA	H9J 2M5	
88662	PFI07	4908	PFIZER CANADA INC	DIN OWNER	Y	Y	Y	N		17300 TRANS-CANADA HIGHWAY	KIRKLAND	QUEBEC	CANADA	H9J 2M5	
88663	PFI07	4908	PFIZER CANADA INC	DIN OWNER	Y	Y	Y	N		17300 TRANS-CANADA HIGHWAY	KIRKLAND	QUEBEC	CANADA	H9J 2M5	
88673		14803	JUBILANT GENERICS LIMITED	DIN OWNER	Y	Y	N			"1A, SECTOR 16A INSTITUTIONAL AREA"	NOIDA	UTTAR PRADESH	INDIA	201301	
88674		14803	JUBILANT GENERICS LIMITED	DIN OWNER	Y	Y	N			"1A, SECTOR 16A INSTITUTIONAL AREA"	NOIDA	UTTAR PRADESH	INDIA	201301	
88675		14803	JUBILANT GENERICS LIMITED	DIN OWNER	Y	Y	N			"1A, SECTOR 16A INSTITUTIONAL AREA"	NOIDA	UTTAR PRADESH	INDIA	201301	
88676		11915	ID BIOMEDICAL CORPORATION OF QUEBEC	DIN OWNER	Y	N	N			2323 BOUL PARC TECHNOLOGIQUE	QUEBEC	QUEBEC	CANADA	G1P 4R8	
88681		14464	CRLS	DIN OWNER	Y	Y	Y			"333-24 AVENUE SW, SUITE 300"	CALGARY	ALBERTA	CANADA	T2S 3E6	1381
88682		12504	HUVEPHARMA EOOD	DIN OWNER	Y	N	Y			"5TH FLOOR, 3A NIKOLAY HAYTOV STR"	SOFIA	SAONE ET LOIRE	BULGARIA	1113	
88683	FEI08	4174	FERRING INC	DIN OWNER	Y	Y	Y	N		"200 YORKLAND BLVD, SUITE 500"	NORTH YORK	ONTARIO	CANADA	M2J 5C1	
88689		16133	ISOLOGIC INNOVATIVE RADIOPHARMACEUTICALS LTD.	DIN OWNER	Y	N	Y			1855 32ND AVENUE	LACHINE	QUEBEC	CANADA	H8T 3J1	
88692		15023	ALBERTA VETERINARY LABORATORIES LTD	DIN OWNER	Y	Y	Y			411-19TH STREET S.E.	CALGARY	ALBERTA	CANADA	T2E 6J7	
88706		13930	MYLAN PHARMACEUTICALS ULC	DIN OWNER	Y	Y	Y			85 ADVANCE ROAD	ETOBICOKE	ONTARIO	CANADA	M8Z 2S6	
88727		15172	STERILEX CORPORATION	DIN OWNER	Y	Y	Y			111 LAKE FRONT DRIVE	HUNT VALLEY	MARYLAND	UNITED STATES	21015	
88729	REK07	5010	RECKITT BENCKISER (CANADA) INC	DIN OWNER	Y	Y	Y	N	UNIT #2	1680 TECH AVENUE	MISSISSAUGA	ONTARIO	CANADA	L4W 5S9	
88733		15579	FOCUS HEALTH GROUP	DIN OWNER	Y	Y	Y			5802 KINGSTON PIKE	KNOXVILLE	TENNESSEE	UNITED STATES	37919	
88734	APX08	3636	APOTEX INC	DIN OWNER	Y	Y	Y	N		150 SIGNET DRIVE	TORONTO	ONTARIO	CANADA	M9L 1T9	
88735		14907	MARCAN PHARMACEUTICALS INC	DIN OWNER	Y	N	N		SUITE 4	77 AURIGA DRIVE	OTTAWA	ONTARIO	CANADA	K2E 7Z7	
88736		14907	MARCAN PHARMACEUTICALS INC	DIN OWNER	Y	N	N		SUITE 4	77 AURIGA DRIVE	OTTAWA	ONTARIO	CANADA	K2E 7Z7	
88742	DPC07	4065	DOMINION PHARMACAL	DIN OWNER	Y	Y	Y	N	SUITE 100	"6111, AVENUE ROYALMOUNT"	MONTREAL	QUEBEC	CANADA	H4P 2T4	
88743	DPC07	4065	DOMINION PHARMACAL	DIN OWNER	Y	Y	Y	N	SUITE 100	"6111, AVENUE ROYALMOUNT"	MONTREAL	QUEBEC	CANADA	H4P 2T4	
88759		13124	OCCY LABORATOIRE INC.	DIN OWNER	Y	Y	Y			2929 JOSEPH-ARMAND BOMBARDIER	LAVAL	QUEBEC	CANADA	H7P 6C4	
88768		17109	TELIGENT OU	DIN OWNER	Y	N	N			AKADEEMIA TEE 21/5	TALLINN	HARJU COUNTY	ESTONIA	12618	
88769		17109	TELIGENT OU	DIN OWNER	Y	N	N			AKADEEMIA TEE 21/5	TALLINN	HARJU COUNTY	ESTONIA	12618	
88777		15772	ACTAVIS PHARMA COMPANY	DIN OWNER	Y	Y	Y			"6733 MISSISSAUGA ROAD, SUITE 400"	MISSISSAUGA	ONTARIO	CANADA	L5N 6J5	
88779		15772	ACTAVIS PHARMA COMPANY	DIN OWNER	Y	Y	Y			"6733 MISSISSAUGA ROAD, SUITE 400"	MISSISSAUGA	ONTARIO	CANADA	L5N 6J5	
88794	APX08	3636	APOTEX INC	DIN OWNER	Y	Y	Y	N		150 SIGNET DRIVE	TORONTO	ONTARIO	CANADA	M9L 1T9	
88795	APX08	3636	APOTEX INC	DIN OWNER	Y	Y	Y	N		150 SIGNET DRIVE	TORONTO	ONTARIO	CANADA	M9L 1T9	
88802		14907	MARCAN PHARMACEUTICALS INC	DIN OWNER	Y	N	N		SUITE 4	77 AURIGA DRIVE	OTTAWA	ONTARIO	CANADA	K2E 7Z7	
88810		11642	HOSPIRA HEALTHCARE CORPORATION	DIN OWNER	Y	Y	Y			17300 TRANS-CANADA HIGHWAY	KIRKLAND	QUEBEC	CANADA	H9J 2M5	
88838		14803	JUBILANT GENERICS LIMITED	DIN OWNER	Y	Y	N			"1A, SECTOR 16A INSTITUTIONAL AREA"	NOIDA	UTTAR PRADESH	INDIA	201301	
88839		14803	JUBILANT GENERICS LIMITED	DIN OWNER	Y	Y	N			"1A, SECTOR 16A INSTITUTIONAL AREA"	NOIDA	UTTAR PRADESH	INDIA	201301	
88841		13389	VI-JON INC	DIN OWNER	Y	Y	N			8800 PAGE AVENUE	ST.LOUIS	MISSOURI	UNITED STATES	63114	
88846	GCC08	4231	GERMIPHENE CORPORATION	DIN OWNER	Y	Y	Y	N		1379 COLBORNE STREET EAST	BRANTFORD	ONTARIO	CANADA	N3T 5M1	
88854	APX08	3636	APOTEX INC	DIN OWNER	Y	Y	Y	N		150 SIGNET DRIVE	TORONTO	ONTARIO	CANADA	M9L 1T9	
88855	APX08	3636	APOTEX INC	DIN OWNER	Y	Y	Y	N		150 SIGNET DRIVE	TORONTO	ONTARIO	CANADA	M9L 1T9	
88856	APX08	3636	APOTEX INC	DIN OWNER	Y	Y	Y	N		150 SIGNET DRIVE	TORONTO	ONTARIO	CANADA	M9L 1T9	
88857	APX08	3636	APOTEX INC	DIN OWNER	Y	Y	Y	N		150 SIGNET DRIVE	TORONTO	ONTARIO	CANADA	M9L 1T9	
88858	APX08	3636	APOTEX INC	DIN OWNER	Y	Y	Y	N		150 SIGNET DRIVE	TORONTO	ONTARIO	CANADA	M9L 1T9	
88859	PFI07	4908	PFIZER CANADA INC	DIN OWNER	Y	Y	Y	N		17300 TRANS-CANADA HIGHWAY	KIRKLAND	QUEBEC	CANADA	H9J 2M5	
88860	PFI07	4908	PFIZER CANADA INC	DIN OWNER	Y	Y	Y	N		17300 TRANS-CANADA HIGHWAY	KIRKLAND	QUEBEC	CANADA	H9J 2M5	
88861		15632	DANNORTH NATURAL LABORATORIES INC	DIN OWNER	Y	Y	Y			"1080 BROCK RD., UNIT 11"	PICKERING	ONTARIO	CANADA	L1W 3H3	
88862		15632	DANNORTH NATURAL LABORATORIES INC	DIN OWNER	Y	Y	Y			"1080 BROCK RD., UNIT 11"	PICKERING	ONTARIO	CANADA	L1W 3H3	
88863		15632	DANNORTH NATURAL LABORATORIES INC	DIN OWNER	Y	Y	Y			"1080 BROCK RD., UNIT 11"	PICKERING	ONTARIO	CANADA	L1W 3H3	
88875		8552	FLAGEOLI LIMITED	DIN OWNER	Y	N	N	N		7421 SILVER PALM CT	LAS VEGAS	NEVADA	UNITED STATES	89117	
88876		14803	JUBILANT GENERICS LIMITED	DIN OWNER	Y	Y	N			"1A, SECTOR 16A INSTITUTIONAL AREA"	NOIDA	UTTAR PRADESH	INDIA	201301	
88877		14803	JUBILANT GENERICS LIMITED	DIN OWNER	Y	Y	N			"1A, SECTOR 16A INSTITUTIONAL AREA"	NOIDA	UTTAR PRADESH	INDIA	201301	
88878		14803	JUBILANT GENERICS LIMITED	DIN OWNER	Y	Y	N			"1A, SECTOR 16A INSTITUTIONAL AREA"	NOIDA	UTTAR PRADESH	INDIA	201301	
88880	BSH95	5661	BAUSCH & LOMB INC	DIN OWNER	Y	N	N	N		1400 N GOODMAN STREET	ROCHESTER	NEW YORK	UNITED STATES	14609	
88886		12027	SANDOZ CANADA INCORPORATED	DIN OWNER	Y	Y	Y			145 JULES-LÉGER STREET	BOUCHERVILLE	QUEBEC	CANADA	J4B 7K8	
88892	RIV07	5034	LABORATOIRE RIVA INC	DIN OWNER	Y	Y	N	N		660 BOUL. INDUSTRIEL	BLAINVILLE	QUEBEC	CANADA	J7C 3V4	
88894		13137	SANTE ANIMALE ANIVET INC	DIN OWNER	Y	Y	Y		242	RUE ST-CYRILLE OUEST	UPTON	QUEBEC	CANADA	J0H 2E0	
88895	RAF10	4993	RAFTER 8 PRODUCTS INC	DIN OWNER	Y	Y	Y	N		87 SKYLINE CRESCENT N.E.	CALGARY	ALBERTA	CANADA	T2K 5X2	
88920	APX08	3636	APOTEX INC	DIN OWNER	Y	Y	Y	N		150 SIGNET DRIVE	TORONTO	ONTARIO	CANADA	M9L 1T9	
88935	PMS07	3550	PHARMASCIENCE INC	DIN OWNER	Y	Y	Y	N	100	"6111, ROYALMOUNT AVENUE"	MONTREAL	QUEBEC	CANADA	H4P 2T4	
88936	RAF10	4993	RAFTER 8 PRODUCTS INC	DIN OWNER	Y	Y	Y	N		87 SKYLINE CRESCENT N.E.	CALGARY	ALBERTA	CANADA	T2K 5X2	
88946	PMS07	3550	PHARMASCIENCE INC	DIN OWNER	Y	Y	Y	N	100	"6111, ROYALMOUNT AVENUE"	MONTREAL	QUEBEC	CANADA	H4P 2T4	
88947	PMS07	3550	PHARMASCIENCE INC	DIN OWNER	Y	Y	Y	N	100	"6111, ROYALMOUNT AVENUE"	MONTREAL	QUEBEC	CANADA	H4P 2T4	
88950		13838	TORRENT PHARMACEUTICALS LIMITED	DIN OWNER	Y	N	N			AHMEDABAD-MEHSANA HIGHWAY	"TALUKA-KADI DIST. OF MEHSANA, INDRAD"	GUJARAT	INDIA	382721	
88952		13838	TORRENT PHARMACEUTICALS LIMITED	DIN OWNER	Y	N	N			AHMEDABAD-MEHSANA HIGHWAY	"TALUKA-KADI DIST. OF MEHSANA, INDRAD"	GUJARAT	INDIA	382721	
88953		13838	TORRENT PHARMACEUTICALS LIMITED	DIN OWNER	Y	N	N			AHMEDABAD-MEHSANA HIGHWAY	"TALUKA-KADI DIST. OF MEHSANA, INDRAD"	GUJARAT	INDIA	382721	
88955		13838	TORRENT PHARMACEUTICALS LIMITED	DIN OWNER	Y	N	N			AHMEDABAD-MEHSANA HIGHWAY	"TALUKA-KADI DIST. OF MEHSANA, INDRAD"	GUJARAT	INDIA	382721	
88957		15614	NIP+FAB LIMITED	DIN OWNER	Y	Y	Y			"SUITE 3.25, 535 KINGS ROAD"	"CHELSEA, LONDON"	SAONE ET LOIRE	UNITED KINGDOM	SW10 0SZ	
88959		8541	VITA HEALTH PRODUCTS INC	DIN OWNER	Y	N	Y	N		150 BEGHIN AVENUE	WINNIPEG	MANITOBA	CANADA	R2J 3W2	
88960		8541	VITA HEALTH PRODUCTS INC	DIN OWNER	Y	N	Y	N		150 BEGHIN AVENUE	WINNIPEG	MANITOBA	CANADA	R2J 3W2	
88977		10748	POUND INTERNATIONAL LTD.	DIN OWNER	Y	Y	Y			47B WELBECK ST	LONDON	--	GREAT BRITAIN	W1G 9XA	
88986	RAX08	8892	STERIMAX INC	DIN OWNER	Y	Y	Y			2770 PORTLAND DRIVE	OAKVILLE	ONTARIO	CANADA	L6H 6R4	
88992	CPA08	3951	COLGATE-PALMOLIVE CANADA INC	DIN OWNER	Y	Y	Y	N		"TWO MORNEAU SHEPELL CENTRE, 895 DON MILLS ROAD, 5TH FLOOR"	TORONTO	ONTARIO	CANADA	M3C 1W3	
89003		14803	JUBILANT GENERICS LIMITED	DIN OWNER	Y	Y	N			"1A, SECTOR 16A INSTITUTIONAL AREA"	NOIDA	UTTAR PRADESH	INDIA	201301	
89004		14803	JUBILANT GENERICS LIMITED	DIN OWNER	Y	Y	N			"1A, SECTOR 16A INSTITUTIONAL AREA"	NOIDA	UTTAR PRADESH	INDIA	201301	
89005		10114	GLAXOSMITHKLINE CONSUMER HEALTHCARE INC.	DIN OWNER	Y	Y	Y			"7333 MISSISSAUGA ROAD, 4TH FLOOR"	MISSISSAUGA	ONTARIO	CANADA	L5N 6L4	
89006		10114	GLAXOSMITHKLINE CONSUMER HEALTHCARE INC.	DIN OWNER	Y	Y	Y			"7333 MISSISSAUGA ROAD, 4TH FLOOR"	MISSISSAUGA	ONTARIO	CANADA	L5N 6L4	
89007		15176	EMPACK SPRAYTECH INC	DIN OWNER	Y	Y	Y			98 WALKER DRIVE	BRAMPTON	ONTARIO	CANADA	L6T 4H6	
89008		15176	EMPACK SPRAYTECH INC	DIN OWNER	Y	Y	Y			98 WALKER DRIVE	BRAMPTON	ONTARIO	CANADA	L6T 4H6	
89009		15176	EMPACK SPRAYTECH INC	DIN OWNER	Y	Y	Y			98 WALKER DRIVE	BRAMPTON	ONTARIO	CANADA	L6T 4H6	
89010		15176	EMPACK SPRAYTECH INC	DIN OWNER	Y	Y	Y			98 WALKER DRIVE	BRAMPTON	ONTARIO	CANADA	L6T 4H6	
89011		15176	EMPACK SPRAYTECH INC	DIN OWNER	Y	Y	Y			98 WALKER DRIVE	BRAMPTON	ONTARIO	CANADA	L6T 4H6	
89012		15176	EMPACK SPRAYTECH INC	DIN OWNER	Y	Y	Y			98 WALKER DRIVE	BRAMPTON	ONTARIO	CANADA	L6T 4H6	
89016	APX08	3636	APOTEX INC	DIN OWNER	Y	Y	Y	N		150 SIGNET DRIVE	TORONTO	ONTARIO	CANADA	M9L 1T9	
89017	APX08	3636	APOTEX INC	DIN OWNER	Y	Y	Y	N		150 SIGNET DRIVE	TORONTO	ONTARIO	CANADA	M9L 1T9	
89018	APX08	3636	APOTEX INC	DIN OWNER	Y	Y	Y	N		150 SIGNET DRIVE	TORONTO	ONTARIO	CANADA	M9L 1T9	
89019	APX08	3636	APOTEX INC	DIN OWNER	Y	Y	Y	N		150 SIGNET DRIVE	TORONTO	ONTARIO	CANADA	M9L 1T9	
89020	APX08	3636	APOTEX INC	DIN OWNER	Y	Y	Y	N		150 SIGNET DRIVE	TORONTO	ONTARIO	CANADA	M9L 1T9	
89021		14330	ABRI PHARMACEUTICALS INC	DIN OWNER	Y	Y	Y			6500 KITIMAT ROAD	MISSISSAUGA	ONTARIO	CANADA	L5N 2B8	
89022		14330	ABRI PHARMACEUTICALS INC	DIN OWNER	Y	Y	Y			6500 KITIMAT ROAD	MISSISSAUGA	ONTARIO	CANADA	L5N 2B8	
89023		14330	ABRI PHARMACEUTICALS INC	DIN OWNER	Y	Y	Y			6500 KITIMAT ROAD	MISSISSAUGA	ONTARIO	CANADA	L5N 2B8	
89024		15636	OPUS PHARMA	DIN OWNER	Y	N	N			C.P. 274 SUCCURSALE PLACE D'ARMES	MONTRÉAL	QUEBEC	CANADA	H2Y 3G7	
89025		14330	ABRI PHARMACEUTICALS INC	DIN OWNER	Y	Y	Y			6500 KITIMAT ROAD	MISSISSAUGA	ONTARIO	CANADA	L5N 2B8	
89026		14330	ABRI PHARMACEUTICALS INC	DIN OWNER	Y	Y	Y			6500 KITIMAT ROAD	MISSISSAUGA	ONTARIO	CANADA	L5N 2B8	
89027		14330	ABRI PHARMACEUTICALS INC	DIN OWNER	Y	Y	Y			6500 KITIMAT ROAD	MISSISSAUGA	ONTARIO	CANADA	L5N 2B8	
89029	APX08	3636	APOTEX INC	DIN OWNER	Y	Y	Y	N		150 SIGNET DRIVE	TORONTO	ONTARIO	CANADA	M9L 1T9	
89030	APX08	3636	APOTEX INC	DIN OWNER	Y	Y	Y	N		150 SIGNET DRIVE	TORONTO	ONTARIO	CANADA	M9L 1T9	
89031		13930	MYLAN PHARMACEUTICALS ULC	DIN OWNER	Y	Y	Y			85 ADVANCE ROAD	ETOBICOKE	ONTARIO	CANADA	M8Z 2S6	
89059		11902	VALEANT CANADA LP/VALEANT CANADA S.E.C.	DIN OWNER	Y	Y	Y			2150 BOUL. ST-ELZEAR OUEST	LAVAL	QUEBEC	CANADA	H7L 4A8	
89076		16555	FRESENIUS KABI CANADA LTD	DIN OWNER	Y	Y	Y			"165 GALAXY BLVD, SUITE 100"	TORONTO	ONTARIO	CANADA	M9W 0C8	
89077		13032	ACCORD HEALTHCARE INC	DIN OWNER	Y	Y	Y			"3535 BOULEVARD ST-CHARLES, SUITE 704"	KIRKLAND	QUEBEC	CANADA	H9H 5B9	
89078		13032	ACCORD HEALTHCARE INC	DIN OWNER	Y	Y	Y			"3535 BOULEVARD ST-CHARLES, SUITE 704"	KIRKLAND	QUEBEC	CANADA	H9H 5B9	
89079		16847	TRUCLEAN SOLUTIONS	DIN OWNER	Y	Y	Y			559 FENMAR DRIVE	TORONTO	ONTARIO	CANADA	M9L 2R6	
89080		15581	DISTRIBUTION SIMARD INC	DIN OWNER	Y	Y	Y			1 PARC INDUSTRIEL	ST-URBAIN	QUEBEC	CANADA	G0A 4K0	
89081		16847	TRUCLEAN SOLUTIONS	DIN OWNER	Y	Y	Y			559 FENMAR DRIVE	TORONTO	ONTARIO	CANADA	M9L 2R6	
89082		16847	TRUCLEAN SOLUTIONS	DIN OWNER	Y	Y	Y			559 FENMAR DRIVE	TORONTO	ONTARIO	CANADA	M9L 2R6	
89097		10144	ORALABS INC	DIN OWNER	Y	Y	Y			18685 EAST PLAZA DRIVE	PARKER	COLORADO	UNITED STATES	80134	
89098	JAJ07	4402	JOHNSON & JOHNSON INC	DIN OWNER	Y	Y	Y	N		88 MCNABB STREET	MARKHAM	ONTARIO	CANADA	L3R 5L2	
89099	JAJ07	4402	JOHNSON & JOHNSON INC	DIN OWNER	Y	Y	Y	N		88 MCNABB STREET	MARKHAM	ONTARIO	CANADA	L3R 5L2	
89100		11979	AURO PHARMA INC	DIN OWNER	Y	Y	Y			"3700 STEELES AVENUE WEST, SUITE 402"	WOODBRIDGE	ONTARIO	CANADA	L4L 8K8	
89101		11979	AURO PHARMA INC	DIN OWNER	Y	Y	Y			"3700 STEELES AVENUE WEST, SUITE 402"	WOODBRIDGE	ONTARIO	CANADA	L4L 8K8	
89105		13829	ACCEL PHARMA INC	DIN OWNER	Y	Y	Y			99 PLACE FRONTENAC	POINTE CLAIRE	QUEBEC	CANADA	H9R 4Z7	
89110		13930	MYLAN PHARMACEUTICALS ULC	DIN OWNER	Y	Y	Y			85 ADVANCE ROAD	ETOBICOKE	ONTARIO	CANADA	M8Z 2S6	
89113	PMS07	3550	PHARMASCIENCE INC	DIN OWNER	Y	Y	Y	N	100	"6111, ROYALMOUNT AVENUE"	MONTREAL	QUEBEC	CANADA	H4P 2T4	
89117	APX08	3636	APOTEX INC	DIN OWNER	Y	Y	Y	N		150 SIGNET DRIVE	TORONTO	ONTARIO	CANADA	M9L 1T9	
89118	APX08	3636	APOTEX INC	DIN OWNER	Y	Y	Y	N		150 SIGNET DRIVE	TORONTO	ONTARIO	CANADA	M9L 1T9	
89119		11611	STRIDES ARCOLAB LIMITED	DIN OWNER	Y	Y	Y			"STRIDES HOUSE, BILEKAHALLI, BANNERGHATTA ROAD"	BANGALORE	SAONE ET LOIRE	INDIA	560076	
89120		11611	STRIDES ARCOLAB LIMITED	DIN OWNER	Y	Y	Y			"STRIDES HOUSE, BILEKAHALLI, BANNERGHATTA ROAD"	BANGALORE	SAONE ET LOIRE	INDIA	560076	
89121		13930	MYLAN PHARMACEUTICALS ULC	DIN OWNER	Y	Y	Y			85 ADVANCE ROAD	ETOBICOKE	ONTARIO	CANADA	M8Z 2S6	
89122		13930	MYLAN PHARMACEUTICALS ULC	DIN OWNER	Y	Y	Y			85 ADVANCE ROAD	ETOBICOKE	ONTARIO	CANADA	M8Z 2S6	
89123		13930	MYLAN PHARMACEUTICALS ULC	DIN OWNER	Y	Y	Y			85 ADVANCE ROAD	ETOBICOKE	ONTARIO	CANADA	M8Z 2S6	
89124		13930	MYLAN PHARMACEUTICALS ULC	DIN OWNER	Y	Y	Y			85 ADVANCE ROAD	ETOBICOKE	ONTARIO	CANADA	M8Z 2S6	
89125		13930	MYLAN PHARMACEUTICALS ULC	DIN OWNER	Y	Y	Y			85 ADVANCE ROAD	ETOBICOKE	ONTARIO	CANADA	M8Z 2S6	
89126		13930	MYLAN PHARMACEUTICALS ULC	DIN OWNER	Y	Y	Y			85 ADVANCE ROAD	ETOBICOKE	ONTARIO	CANADA	M8Z 2S6	
89127	APX08	3636	APOTEX INC	DIN OWNER	Y	Y	Y	N		150 SIGNET DRIVE	TORONTO	ONTARIO	CANADA	M9L 1T9	
89128	APX08	3636	APOTEX INC	DIN OWNER	Y	Y	Y	N		150 SIGNET DRIVE	TORONTO	ONTARIO	CANADA	M9L 1T9	
89129	APX08	3636	APOTEX INC	DIN OWNER	Y	Y	Y	N		150 SIGNET DRIVE	TORONTO	ONTARIO	CANADA	M9L 1T9	
89130	APX08	3636	APOTEX INC	DIN OWNER	Y	Y	Y	N		150 SIGNET DRIVE	TORONTO	ONTARIO	CANADA	M9L 1T9	
89136		12027	SANDOZ CANADA INCORPORATED	DIN OWNER	Y	Y	Y			145 JULES-LÉGER STREET	BOUCHERVILLE	QUEBEC	CANADA	J4B 7K8	
89146	JPC10	4415	JAMP PHARMA CORPORATION	DIN OWNER	Y	Y	Y	N		1310 RUE NOBEL	BOUCHERVILLE	QUEBEC	CANADA	J4B 5H3	
89147	JPC10	4415	JAMP PHARMA CORPORATION	DIN OWNER	Y	Y	Y	N		1310 RUE NOBEL	BOUCHERVILLE	QUEBEC	CANADA	J4B 5H3	
89152	DIV08	4044	DIVERSEY INC	DIN OWNER	Y	N	N	N		P.O. BOX 19747	CHARLOTTE	NORTH CAROLINA	UNITED STATES	28219	
89155		15083	DR REDDYS LABORATORIES LTD	DIN OWNER	Y	N	N			"SURVEY NOS 42,45,46,54 BACHUPALLY, QUTHBULLAPUR"	HYDERBAD	TELANGANA	INDIA	500090	
89157		15083	DR REDDYS LABORATORIES LTD	DIN OWNER	Y	N	N			"SURVEY NOS 42,45,46,54 BACHUPALLY, QUTHBULLAPUR"	HYDERBAD	TELANGANA	INDIA	500090	
89161	PMT07	4933	PHARMETICS (2011) INC	DIN OWNER	Y	Y	Y	N		3695 AUTOROUTE DES LAURENTIDES	LAVAL	QUEBEC	CANADA	H7L 3H7	
89176		14962	JUBILANT HOLLISTERSTIER LLC	DIN OWNER	Y	Y	Y			3525 NORTH REGAL STREET	SPOKANE	WASHINGTON	UNITED STATES	99207	
89186		14803	JUBILANT GENERICS LIMITED	DIN OWNER	Y	Y	N			"1A, SECTOR 16A INSTITUTIONAL AREA"	NOIDA	UTTAR PRADESH	INDIA	201301	
89187		14803	JUBILANT GENERICS LIMITED	DIN OWNER	Y	Y	N			"1A, SECTOR 16A INSTITUTIONAL AREA"	NOIDA	UTTAR PRADESH	INDIA	201301	
89188		14803	JUBILANT GENERICS LIMITED	DIN OWNER	Y	Y	N			"1A, SECTOR 16A INSTITUTIONAL AREA"	NOIDA	UTTAR PRADESH	INDIA	201301	
89200		13930	MYLAN PHARMACEUTICALS ULC	DIN OWNER	Y	Y	Y			85 ADVANCE ROAD	ETOBICOKE	ONTARIO	CANADA	M8Z 2S6	
89211		13221	MINT PHARMACEUTICALS INC	DIN OWNER	Y	Y	Y		UNIT 1	1093 MEYERSIDE DRIVE	MISSISSAUGA	ONTARIO	CANADA	L5T 1J6	
89222		13985	GENERIC MEDICAL PARTNERS INC	DIN OWNER	Y	Y	Y		SUITE 1200	251 CONSUMERS ROAD	TORONTO	ONTARIO	CANADA	M2J 4R3	
89233	MCL08	4569	MCNEIL CONSUMER HEALTHCARE DIVISION OF JOHNSON & JOHNSON INC	DIN OWNER	Y	Y	Y	N		88 MCNABB STREET	MARKHAM	ONTARIO	CANADA	L3R 5L2	
89237	DPC07	4065	DOMINION PHARMACAL	DIN OWNER	Y	Y	Y	N	SUITE 100	"6111, AVENUE ROYALMOUNT"	MONTREAL	QUEBEC	CANADA	H4P 2T4	
89238	DPC07	4065	DOMINION PHARMACAL	DIN OWNER	Y	Y	Y	N	SUITE 100	"6111, AVENUE ROYALMOUNT"	MONTREAL	QUEBEC	CANADA	H4P 2T4	
89239	DPC07	4065	DOMINION PHARMACAL	DIN OWNER	Y	Y	Y	N	SUITE 100	"6111, AVENUE ROYALMOUNT"	MONTREAL	QUEBEC	CANADA	H4P 2T4	
89257	BOE07	3617	BOEHRINGER INGELHEIM (CANADA) LTD LTEE	DIN OWNER	Y	Y	Y	N		5180 SOUTH SERVICE ROAD	BURLINGTON	ONTARIO	CANADA	L7L 5H4	
89265		13930	MYLAN PHARMACEUTICALS ULC	DIN OWNER	Y	Y	Y			85 ADVANCE ROAD	ETOBICOKE	ONTARIO	CANADA	M8Z 2S6	
89269		16088	LUPIN PHARMA CANADA LIMITED	DIN OWNER	Y	Y	Y			"1001 DE MAISONNEUVE EST, SUITE 304"	MONTREAL	QUEBEC	CANADA	H2L 4P9	
89275		15365	CADENCE PHARMACEUTICALS INC	DIN OWNER	Y	Y	Y			"12481 HIGH BLUFF DRIVE, SUITE 200"	SAN DIEGO	CALIFORNIA	UNITED STATES	92130	
89276		13930	MYLAN PHARMACEUTICALS ULC	DIN OWNER	Y	Y	Y			85 ADVANCE ROAD	ETOBICOKE	ONTARIO	CANADA	M8Z 2S6	
89305		15772	ACTAVIS PHARMA COMPANY	DIN OWNER	Y	Y	Y			"6733 MISSISSAUGA ROAD, SUITE 400"	MISSISSAUGA	ONTARIO	CANADA	L5N 6J5	
89320		15772	ACTAVIS PHARMA COMPANY	DIN OWNER	Y	Y	Y			"6733 MISSISSAUGA ROAD, SUITE 400"	MISSISSAUGA	ONTARIO	CANADA	L5N 6J5	
89325		12027	SANDOZ CANADA INCORPORATED	DIN OWNER	Y	Y	Y			145 JULES-LÉGER STREET	BOUCHERVILLE	QUEBEC	CANADA	J4B 7K8	
89332		14318	TEVA CANADA LIMITED	DIN OWNER	Y	Y	N			30 NOVOPHARM COURT	TORONTO	ONTARIO	CANADA	M1B 2K9	
89334		13221	MINT PHARMACEUTICALS INC	DIN OWNER	Y	Y	Y		UNIT 1	1093 MEYERSIDE DRIVE	MISSISSAUGA	ONTARIO	CANADA	L5T 1J6	
89335		13221	MINT PHARMACEUTICALS INC	DIN OWNER	Y	Y	Y		UNIT 1	1093 MEYERSIDE DRIVE	MISSISSAUGA	ONTARIO	CANADA	L5T 1J6	
89347	PHH07	4917	PHARMEL INC	DIN OWNER	Y	Y	Y	N		"6111, AVENUE ROYALMOUNT, SUITE 100"	MONTREAL	QUEBEC	CANADA	H4P 2T4	
89349	PHH07	4917	PHARMEL INC	DIN OWNER	Y	Y	Y	N		"6111, AVENUE ROYALMOUNT, SUITE 100"	MONTREAL	QUEBEC	CANADA	H4P 2T4	
89355		9071	THE CLOROX COMPANY OF CANADA LTD	DIN OWNER	Y	Y	Y			150 BISCAYNE CRESCENT	BRAMPTON	ONTARIO	CANADA	L6W 4V3	
89363		13221	MINT PHARMACEUTICALS INC	DIN OWNER	Y	Y	Y		UNIT 1	1093 MEYERSIDE DRIVE	MISSISSAUGA	ONTARIO	CANADA	L5T 1J6	
89364		13221	MINT PHARMACEUTICALS INC	DIN OWNER	Y	Y	Y		UNIT 1	1093 MEYERSIDE DRIVE	MISSISSAUGA	ONTARIO	CANADA	L5T 1J6	
89365		13221	MINT PHARMACEUTICALS INC	DIN OWNER	Y	Y	Y		UNIT 1	1093 MEYERSIDE DRIVE	MISSISSAUGA	ONTARIO	CANADA	L5T 1J6	
89367		13221	MINT PHARMACEUTICALS INC	DIN OWNER	Y	Y	Y		UNIT 1	1093 MEYERSIDE DRIVE	MISSISSAUGA	ONTARIO	CANADA	L5T 1J6	
89368		11271	RANBAXY PHARMACEUTICALS CANADA INC.	DIN OWNER	Y	Y	Y			126 EAST DRIVE	BRAMPTON	ONTARIO	CANADA	L6T 1C1	
89381		12463	GENMED A DIVISION OF PFIZER CANADA INC	DIN OWNER	Y	Y	Y			17300 TRANS CANADA HIGHWAY	KIRKLAND	QUEBEC	CANADA	H9J 2M5	
89387		14543	"SCENTSY CANADA ENTERPRISES, ULC"	DIN OWNER	Y	N	N			"SUITE 115, 1925-18 AVENUE NE"	CALGARY	ALBERTA	CANADA	T2E 7T8	
89390		16555	FRESENIUS KABI CANADA LTD	DIN OWNER	Y	Y	Y			"165 GALAXY BLVD, SUITE 100"	TORONTO	ONTARIO	CANADA	M9W 0C8	
89391	PMS07	3550	PHARMASCIENCE INC	DIN OWNER	Y	Y	Y	N	100	"6111, ROYALMOUNT AVENUE"	MONTREAL	QUEBEC	CANADA	H4P 2T4	
89403	DIV08	4044	DIVERSEY INC	DIN OWNER	Y	N	N	N		P.O. BOX 19747	CHARLOTTE	NORTH CAROLINA	UNITED STATES	28219	
89408	OMG07	4852	OMEGA LABORATORIES LTD	DIN OWNER	Y	Y	Y	N		11177 HAMON	MONTREAL	QUEBEC	CANADA	H3M 3E4	
89409	GCC08	4231	GERMIPHENE CORPORATION	DIN OWNER	Y	Y	Y	N		1379 COLBORNE STREET EAST	BRANTFORD	ONTARIO	CANADA	N3T 5M1	
89410		14803	JUBILANT GENERICS LIMITED	DIN OWNER	Y	Y	N			"1A, SECTOR 16A INSTITUTIONAL AREA"	NOIDA	UTTAR PRADESH	INDIA	201301	
89411		14803	JUBILANT GENERICS LIMITED	DIN OWNER	Y	Y	N			"1A, SECTOR 16A INSTITUTIONAL AREA"	NOIDA	UTTAR PRADESH	INDIA	201301	
89425		13755	ENERGIZER CANADA INC	DIN OWNER	Y	N	N			165 KINCARDINE HIGHWAY	WALKERTON	ONTARIO	CANADA	N0G 2V0	
89427		13930	MYLAN PHARMACEUTICALS ULC	DIN OWNER	Y	Y	Y			85 ADVANCE ROAD	ETOBICOKE	ONTARIO	CANADA	M8Z 2S6	
89428		9071	THE CLOROX COMPANY OF CANADA LTD	DIN OWNER	Y	Y	Y			150 BISCAYNE CRESCENT	BRAMPTON	ONTARIO	CANADA	L6W 4V3	
89432	NVR07	7277	NOVARTIS PHARMACEUTICALS CANADA INC	DIN OWNER	Y	Y	Y	N		385 BOUCHARD BLVD	DORVAL	QUEBEC	CANADA	H9S 1A9	
89437		15558	ORIMED PHARMA CORPORATION	DIN OWNER	Y	N	N			"1380 NEWTON, UNIT 203"	BOUCHERVILLE	QUEBEC	CANADA	J4B 5H2	
89438		15638	LANOCORP PACIFIC LTD	DIN OWNER	Y	Y	Y			125 WATERLOO ROAD	CHRISTCHURCH	SAONE ET LOIRE	NEW ZEALAND	8042	11-301
89442		15694	AZIACO INC	DIN OWNER	Y	Y	Y			100 SPY COURT	MARKHAM	ONTARIO	CANADA	L3R 5H6	
89448		9071	THE CLOROX COMPANY OF CANADA LTD	DIN OWNER	Y	Y	Y			150 BISCAYNE CRESCENT	BRAMPTON	ONTARIO	CANADA	L6W 4V3	
89453		13389	VI-JON INC	DIN OWNER	Y	Y	N			8800 PAGE AVENUE	ST.LOUIS	MISSOURI	UNITED STATES	63114	
89454		13985	GENERIC MEDICAL PARTNERS INC	DIN OWNER	Y	Y	Y		SUITE 1200	251 CONSUMERS ROAD	TORONTO	ONTARIO	CANADA	M2J 4R3	
89457		12027	SANDOZ CANADA INCORPORATED	DIN OWNER	Y	Y	Y			145 JULES-LÉGER STREET	BOUCHERVILLE	QUEBEC	CANADA	J4B 7K8	
89458		12027	SANDOZ CANADA INCORPORATED	DIN OWNER	Y	Y	Y			145 JULES-LÉGER STREET	BOUCHERVILLE	QUEBEC	CANADA	J4B 7K8	
89459		13985	GENERIC MEDICAL PARTNERS INC	DIN OWNER	Y	Y	Y		SUITE 1200	251 CONSUMERS ROAD	TORONTO	ONTARIO	CANADA	M2J 4R3	
89460		13985	GENERIC MEDICAL PARTNERS INC	DIN OWNER	Y	Y	Y		SUITE 1200	251 CONSUMERS ROAD	TORONTO	ONTARIO	CANADA	M2J 4R3	
89468		11271	RANBAXY PHARMACEUTICALS CANADA INC.	DIN OWNER	Y	Y	Y			126 EAST DRIVE	BRAMPTON	ONTARIO	CANADA	L6T 1C1	
89476		15710	GERI-CARE PHARMACEUTICALS CORP.	DIN OWNER	Y	Y	N			1650 63RD STREET	BROOKLYN	NEW YORK	UNITED STATES	11204	
89478	OMG07	4852	OMEGA LABORATORIES LTD	DIN OWNER	Y	Y	Y	N		11177 HAMON	MONTREAL	QUEBEC	CANADA	H3M 3E4	
89479	OMG07	4852	OMEGA LABORATORIES LTD	DIN OWNER	Y	Y	Y	N		11177 HAMON	MONTREAL	QUEBEC	CANADA	H3M 3E4	
89480		13389	VI-JON INC	DIN OWNER	Y	Y	N			8800 PAGE AVENUE	ST.LOUIS	MISSOURI	UNITED STATES	63114	
89481		13221	MINT PHARMACEUTICALS INC	DIN OWNER	Y	Y	Y		UNIT 1	1093 MEYERSIDE DRIVE	MISSISSAUGA	ONTARIO	CANADA	L5T 1J6	
89482		13221	MINT PHARMACEUTICALS INC	DIN OWNER	Y	Y	Y		UNIT 1	1093 MEYERSIDE DRIVE	MISSISSAUGA	ONTARIO	CANADA	L5T 1J6	
89483		13221	MINT PHARMACEUTICALS INC	DIN OWNER	Y	Y	Y		UNIT 1	1093 MEYERSIDE DRIVE	MISSISSAUGA	ONTARIO	CANADA	L5T 1J6	
89484		13221	MINT PHARMACEUTICALS INC	DIN OWNER	Y	Y	Y		UNIT 1	1093 MEYERSIDE DRIVE	MISSISSAUGA	ONTARIO	CANADA	L5T 1J6	
89485		13221	MINT PHARMACEUTICALS INC	DIN OWNER	Y	Y	Y		UNIT 1	1093 MEYERSIDE DRIVE	MISSISSAUGA	ONTARIO	CANADA	L5T 1J6	
89486		13221	MINT PHARMACEUTICALS INC	DIN OWNER	Y	Y	Y		UNIT 1	1093 MEYERSIDE DRIVE	MISSISSAUGA	ONTARIO	CANADA	L5T 1J6	
89487		15772	ACTAVIS PHARMA COMPANY	DIN OWNER	Y	Y	Y			"6733 MISSISSAUGA ROAD, SUITE 400"	MISSISSAUGA	ONTARIO	CANADA	L5N 6J5	
89500		13930	MYLAN PHARMACEUTICALS ULC	DIN OWNER	Y	Y	Y			85 ADVANCE ROAD	ETOBICOKE	ONTARIO	CANADA	M8Z 2S6	
89510		11271	RANBAXY PHARMACEUTICALS CANADA INC.	DIN OWNER	Y	Y	Y			126 EAST DRIVE	BRAMPTON	ONTARIO	CANADA	L6T 1C1	
89511		11271	RANBAXY PHARMACEUTICALS CANADA INC.	DIN OWNER	Y	Y	Y			126 EAST DRIVE	BRAMPTON	ONTARIO	CANADA	L6T 1C1	
89512		11271	RANBAXY PHARMACEUTICALS CANADA INC.	DIN OWNER	Y	Y	Y			126 EAST DRIVE	BRAMPTON	ONTARIO	CANADA	L6T 1C1	
89513		11271	RANBAXY PHARMACEUTICALS CANADA INC.	DIN OWNER	Y	Y	Y			126 EAST DRIVE	BRAMPTON	ONTARIO	CANADA	L6T 1C1	
89514		11271	RANBAXY PHARMACEUTICALS CANADA INC.	DIN OWNER	Y	Y	Y			126 EAST DRIVE	BRAMPTON	ONTARIO	CANADA	L6T 1C1	
89515		11271	RANBAXY PHARMACEUTICALS CANADA INC.	DIN OWNER	Y	Y	Y			126 EAST DRIVE	BRAMPTON	ONTARIO	CANADA	L6T 1C1	
89516		11271	RANBAXY PHARMACEUTICALS CANADA INC.	DIN OWNER	Y	Y	Y			126 EAST DRIVE	BRAMPTON	ONTARIO	CANADA	L6T 1C1	
89517		11271	RANBAXY PHARMACEUTICALS CANADA INC.	DIN OWNER	Y	Y	Y			126 EAST DRIVE	BRAMPTON	ONTARIO	CANADA	L6T 1C1	
89518		12250	MERCK CANADA INC	DIN OWNER	Y	Y	Y			16750 ROUTE TRANSCANADIENNE	KIRKLAND	QUEBEC	CANADA	H9H 4M7	
89535	ODN07	4835	ODAN LABORATORIES LTD	DIN OWNER	Y	Y	Y	N		325 STILLVIEW AVENUE	POINTE-CLAIRE	QUEBEC	CANADA	H9R 2Y6	
89536	ODN07	4835	ODAN LABORATORIES LTD	DIN OWNER	Y	Y	Y	N		325 STILLVIEW AVENUE	POINTE-CLAIRE	QUEBEC	CANADA	H9R 2Y6	
89547		14907	MARCAN PHARMACEUTICALS INC	DIN OWNER	Y	N	N		SUITE 4	77 AURIGA DRIVE	OTTAWA	ONTARIO	CANADA	K2E 7Z7	
89548		14907	MARCAN PHARMACEUTICALS INC	DIN OWNER	Y	N	N		SUITE 4	77 AURIGA DRIVE	OTTAWA	ONTARIO	CANADA	K2E 7Z7	
89549		14907	MARCAN PHARMACEUTICALS INC	DIN OWNER	Y	N	N		SUITE 4	77 AURIGA DRIVE	OTTAWA	ONTARIO	CANADA	K2E 7Z7	
89554		14464	CRLS	DIN OWNER	Y	Y	Y			"333-24 AVENUE SW, SUITE 300"	CALGARY	ALBERTA	CANADA	T2S 3E6	1381
89558		14907	MARCAN PHARMACEUTICALS INC	DIN OWNER	Y	N	N		SUITE 4	77 AURIGA DRIVE	OTTAWA	ONTARIO	CANADA	K2E 7Z7	
89559		14907	MARCAN PHARMACEUTICALS INC	DIN OWNER	Y	N	N		SUITE 4	77 AURIGA DRIVE	OTTAWA	ONTARIO	CANADA	K2E 7Z7	
89560		14907	MARCAN PHARMACEUTICALS INC	DIN OWNER	Y	N	N		SUITE 4	77 AURIGA DRIVE	OTTAWA	ONTARIO	CANADA	K2E 7Z7	
89561		14907	MARCAN PHARMACEUTICALS INC	DIN OWNER	Y	N	N		SUITE 4	77 AURIGA DRIVE	OTTAWA	ONTARIO	CANADA	K2E 7Z7	
89565		11642	HOSPIRA HEALTHCARE CORPORATION	DIN OWNER	Y	Y	Y			17300 TRANS-CANADA HIGHWAY	KIRKLAND	QUEBEC	CANADA	H9J 2M5	
89566		11642	HOSPIRA HEALTHCARE CORPORATION	DIN OWNER	Y	Y	Y			17300 TRANS-CANADA HIGHWAY	KIRKLAND	QUEBEC	CANADA	H9J 2M5	
89569		9071	THE CLOROX COMPANY OF CANADA LTD	DIN OWNER	Y	Y	Y			150 BISCAYNE CRESCENT	BRAMPTON	ONTARIO	CANADA	L6W 4V3	
89572		15680	ADVANCED BIO-TECHNOLOGIES INC	DIN OWNER	Y	N	N			1100 SATELLITE BOULEVARD	SUWANEE	GEORGIA	UNITED STATES	30024	
89577		15083	DR REDDYS LABORATORIES LTD	DIN OWNER	Y	N	N			"SURVEY NOS 42,45,46,54 BACHUPALLY, QUTHBULLAPUR"	HYDERBAD	TELANGANA	INDIA	500090	
89578		15083	DR REDDYS LABORATORIES LTD	DIN OWNER	Y	N	N			"SURVEY NOS 42,45,46,54 BACHUPALLY, QUTHBULLAPUR"	HYDERBAD	TELANGANA	INDIA	500090	
89579		15083	DR REDDYS LABORATORIES LTD	DIN OWNER	Y	N	N			"SURVEY NOS 42,45,46,54 BACHUPALLY, QUTHBULLAPUR"	HYDERBAD	TELANGANA	INDIA	500090	
89582		14589	PATRIOT A DIVISION OF JANSSEN INC	DIN OWNER	Y	N	Y			19 GREEN BELT DRIVE	TORONTO	ONTARIO	CANADA	M3C 1L9	
89583		14589	PATRIOT A DIVISION OF JANSSEN INC	DIN OWNER	Y	N	Y			19 GREEN BELT DRIVE	TORONTO	ONTARIO	CANADA	M3C 1L9	
89600		8541	VITA HEALTH PRODUCTS INC	DIN OWNER	Y	N	Y	N		150 BEGHIN AVENUE	WINNIPEG	MANITOBA	CANADA	R2J 3W2	
89604		14589	PATRIOT A DIVISION OF JANSSEN INC	DIN OWNER	Y	N	Y			19 GREEN BELT DRIVE	TORONTO	ONTARIO	CANADA	M3C 1L9	
89605		14589	PATRIOT A DIVISION OF JANSSEN INC	DIN OWNER	Y	N	Y			19 GREEN BELT DRIVE	TORONTO	ONTARIO	CANADA	M3C 1L9	
89607		14589	PATRIOT A DIVISION OF JANSSEN INC	DIN OWNER	Y	N	Y			19 GREEN BELT DRIVE	TORONTO	ONTARIO	CANADA	M3C 1L9	
89608		14589	PATRIOT A DIVISION OF JANSSEN INC	DIN OWNER	Y	N	Y			19 GREEN BELT DRIVE	TORONTO	ONTARIO	CANADA	M3C 1L9	
89615		15596	WEEKS & LEO COMPANY INCORPORATED	DIN OWNER	Y	Y	Y			2075 NW 92ND CT	CLIVE	IOWA	UNITED STATES	50325	
89636		15130	SIVEM PHARMACEUTICALS ULC	DIN OWNER	Y	N	Y			4705 DOBRIN STREET	SAINT-LAURENT	QUEBEC	CANADA	H4R 2P7	
89637		15130	SIVEM PHARMACEUTICALS ULC	DIN OWNER	Y	N	Y			4705 DOBRIN STREET	SAINT-LAURENT	QUEBEC	CANADA	H4R 2P7	
89639	ECO08	4114	ECOLAB CO	DIN OWNER	Y	Y	Y	N		5105 TOMKEN ROAD	MISSISSAUGA	ONTARIO	CANADA	L4W 2X5	
89640		15628	IMPACT SOULUTIONS INC	DIN OWNER	Y	N	N			14 - 851 LAGIMODIÈRE BLVD	WINNIPEG	MANITOBA	CANADA	R2J 3K4	
89642	WPT07	4247	WEST PENETONE INC	DIN OWNER	Y	Y	Y	N		10900 SECANT STREET	ANJOU	QUEBEC	CANADA	H1J 1S5	
89657		13389	VI-JON INC	DIN OWNER	Y	Y	N			8800 PAGE AVENUE	ST.LOUIS	MISSOURI	UNITED STATES	63114	
89658	JPC10	4415	JAMP PHARMA CORPORATION	DIN OWNER	Y	Y	Y	N		1310 RUE NOBEL	BOUCHERVILLE	QUEBEC	CANADA	J4B 5H3	
89659	JPC10	4415	JAMP PHARMA CORPORATION	DIN OWNER	Y	Y	Y	N		1310 RUE NOBEL	BOUCHERVILLE	QUEBEC	CANADA	J4B 5H3	
89662		13049	4410602 CANADA INC	DIN OWNER	Y	Y	Y			"300 SOUTH EGDEWARE, UNIT 205"	ST THOMAS	ONTARIO	CANADA	N5P 4L1	
89663		15766	"THE FACE SHOP CO., LTD"	DIN OWNER	Y	Y	N			58 SAEMUNAN-RO	JONGNO-GU	SEOUL TEUGBYEOLSI	"KOREA, REPUBLIC OF"	.	
89664		13429	LABORATOIRE PROVENCE CANADA	DIN OWNER	Y	Y	Y			675 RUE BERGERON	DRUMMONDVILLE	QUEBEC	CANADA	J2C 7V5	
89666		16555	FRESENIUS KABI CANADA LTD	DIN OWNER	Y	Y	Y			"165 GALAXY BLVD, SUITE 100"	TORONTO	ONTARIO	CANADA	M9W 0C8	
89667		16555	FRESENIUS KABI CANADA LTD	DIN OWNER	Y	Y	Y			"165 GALAXY BLVD, SUITE 100"	TORONTO	ONTARIO	CANADA	M9W 0C8	
89668		16555	FRESENIUS KABI CANADA LTD	DIN OWNER	Y	Y	Y			"165 GALAXY BLVD, SUITE 100"	TORONTO	ONTARIO	CANADA	M9W 0C8	
89672		14154	GENVION CORPORATION	DIN OWNER	Y	Y	Y			500 CAMIEL SYSTEM STREET	WINNIPEG	MANITOBA	CANADA	R2J 4K2	
89683	BGM08	3744	BIO AGRI MIX LP	DIN OWNER	Y	Y	Y	N		11 ELLENS STREET	MITCHELL	ONTARIO	CANADA	N0K 1N0	399
89686		9071	THE CLOROX COMPANY OF CANADA LTD	DIN OWNER	Y	Y	Y			150 BISCAYNE CRESCENT	BRAMPTON	ONTARIO	CANADA	L6W 4V3	
89695		13745	LIBERCHEM INC	DIN OWNER	Y	Y	Y			572 AVENUE ORLY	DORVAL	QUEBEC	CANADA	H9P 1E9	
89702		9071	THE CLOROX COMPANY OF CANADA LTD	DIN OWNER	Y	Y	Y			150 BISCAYNE CRESCENT	BRAMPTON	ONTARIO	CANADA	L6W 4V3	
89704		15620	LANDCO IMPORT INTERNATIONAL INC	DIN OWNER	Y	Y	Y			2912 INDUSTRIEL	LAVAL	QUEBEC	CANADA	H7L 4C4	
89705		9605	KIMBERLY-CLARK GLOBAL SALES LLC	DIN OWNER	Y	N	N			1400 HOLCOMB BRIDGE ROAD	ROSWELL	GEORGIA	UNITED STATES	30076	
89706		13389	VI-JON INC	DIN OWNER	Y	Y	N			8800 PAGE AVENUE	ST.LOUIS	MISSOURI	UNITED STATES	63114	
89719		15766	"THE FACE SHOP CO., LTD"	DIN OWNER	Y	Y	N			58 SAEMUNAN-RO	JONGNO-GU	SEOUL TEUGBYEOLSI	"KOREA, REPUBLIC OF"	.	
89720		15766	"THE FACE SHOP CO., LTD"	DIN OWNER	Y	Y	N			58 SAEMUNAN-RO	JONGNO-GU	SEOUL TEUGBYEOLSI	"KOREA, REPUBLIC OF"	.	
89721		15766	"THE FACE SHOP CO., LTD"	DIN OWNER	Y	Y	N			58 SAEMUNAN-RO	JONGNO-GU	SEOUL TEUGBYEOLSI	"KOREA, REPUBLIC OF"	.	
89722		15766	"THE FACE SHOP CO., LTD"	DIN OWNER	Y	Y	N			58 SAEMUNAN-RO	JONGNO-GU	SEOUL TEUGBYEOLSI	"KOREA, REPUBLIC OF"	.	
89723		15766	"THE FACE SHOP CO., LTD"	DIN OWNER	Y	Y	N			58 SAEMUNAN-RO	JONGNO-GU	SEOUL TEUGBYEOLSI	"KOREA, REPUBLIC OF"	.	
89724		15766	"THE FACE SHOP CO., LTD"	DIN OWNER	Y	Y	N			58 SAEMUNAN-RO	JONGNO-GU	SEOUL TEUGBYEOLSI	"KOREA, REPUBLIC OF"	.	
89725		15766	"THE FACE SHOP CO., LTD"	DIN OWNER	Y	Y	N			58 SAEMUNAN-RO	JONGNO-GU	SEOUL TEUGBYEOLSI	"KOREA, REPUBLIC OF"	.	
89726		15766	"THE FACE SHOP CO., LTD"	DIN OWNER	Y	Y	N			58 SAEMUNAN-RO	JONGNO-GU	SEOUL TEUGBYEOLSI	"KOREA, REPUBLIC OF"	.	
89727		15766	"THE FACE SHOP CO., LTD"	DIN OWNER	Y	Y	N			58 SAEMUNAN-RO	JONGNO-GU	SEOUL TEUGBYEOLSI	"KOREA, REPUBLIC OF"	.	
89728	EEC50	7002	MARY COHR	DIN OWNER	Y	N	N	N		1 RUE DE LA PAIX	PARIS	PARIS	FRANCE	75002	
89737		8196	BEAUTICONTROL CANADA	DIN OWNER	Y	N	Y			20 MELFORD DRIVE SUITE 13/14	SCARBOROUGH	ONTARIO	CANADA	M1B 2X6	
89738		8196	BEAUTICONTROL CANADA	DIN OWNER	Y	N	Y			20 MELFORD DRIVE SUITE 13/14	SCARBOROUGH	ONTARIO	CANADA	M1B 2X6	
89739		8196	BEAUTICONTROL CANADA	DIN OWNER	Y	N	Y			20 MELFORD DRIVE SUITE 13/14	SCARBOROUGH	ONTARIO	CANADA	M1B 2X6	
89740		15766	"THE FACE SHOP CO., LTD"	DIN OWNER	Y	Y	N			58 SAEMUNAN-RO	JONGNO-GU	SEOUL TEUGBYEOLSI	"KOREA, REPUBLIC OF"	.	
89741		15766	"THE FACE SHOP CO., LTD"	DIN OWNER	Y	Y	N			58 SAEMUNAN-RO	JONGNO-GU	SEOUL TEUGBYEOLSI	"KOREA, REPUBLIC OF"	.	
89744		15766	"THE FACE SHOP CO., LTD"	DIN OWNER	Y	Y	N			58 SAEMUNAN-RO	JONGNO-GU	SEOUL TEUGBYEOLSI	"KOREA, REPUBLIC OF"	.	
89749		15214	WINNIPEG REGIONAL HEALTH AUTHORITY	DIN OWNER	Y	Y	Y			"650 MAIN STREET, 4TH FLOOR"	WINNIPEG	MANITOBA	CANADA	R3B 1E2	
89755	EEC50	7002	MARY COHR	DIN OWNER	Y	N	N	N		1 RUE DE LA PAIX	PARIS	PARIS	FRANCE	75002	
89758		13930	MYLAN PHARMACEUTICALS ULC	DIN OWNER	Y	Y	Y			85 ADVANCE ROAD	ETOBICOKE	ONTARIO	CANADA	M8Z 2S6	
89761		13930	MYLAN PHARMACEUTICALS ULC	DIN OWNER	Y	Y	Y			85 ADVANCE ROAD	ETOBICOKE	ONTARIO	CANADA	M8Z 2S6	
89770		15415	ALEMBIC PHARMACEUTICALS LIMITED	DIN OWNER	Y	Y	Y			ALEMBIC ROAD	VADODARA	GUJARAT	INDIA	390003	
89771		15415	ALEMBIC PHARMACEUTICALS LIMITED	DIN OWNER	Y	Y	Y			ALEMBIC ROAD	VADODARA	GUJARAT	INDIA	390003	
89776	APX08	3636	APOTEX INC	DIN OWNER	Y	Y	Y	N		150 SIGNET DRIVE	TORONTO	ONTARIO	CANADA	M9L 1T9	
89777	APX08	3636	APOTEX INC	DIN OWNER	Y	Y	Y	N		150 SIGNET DRIVE	TORONTO	ONTARIO	CANADA	M9L 1T9	
89778	APX08	3636	APOTEX INC	DIN OWNER	Y	Y	Y	N		150 SIGNET DRIVE	TORONTO	ONTARIO	CANADA	M9L 1T9	
89779	APX08	3636	APOTEX INC	DIN OWNER	Y	Y	Y	N		150 SIGNET DRIVE	TORONTO	ONTARIO	CANADA	M9L 1T9	
89780	APX08	3636	APOTEX INC	DIN OWNER	Y	Y	Y	N		150 SIGNET DRIVE	TORONTO	ONTARIO	CANADA	M9L 1T9	
89781	APX08	3636	APOTEX INC	DIN OWNER	Y	Y	Y	N		150 SIGNET DRIVE	TORONTO	ONTARIO	CANADA	M9L 1T9	
89790		13930	MYLAN PHARMACEUTICALS ULC	DIN OWNER	Y	Y	Y			85 ADVANCE ROAD	ETOBICOKE	ONTARIO	CANADA	M8Z 2S6	
89792		13936	MANTRA PHARMA INC	DIN OWNER	Y	N	Y			"4605 B BOUL LAPINIERE, SUITE 250"	BROSSARD	QUEBEC	CANADA	J4Z 3T5	
89794		10114	GLAXOSMITHKLINE CONSUMER HEALTHCARE INC.	DIN OWNER	Y	Y	Y			"7333 MISSISSAUGA ROAD, 4TH FLOOR"	MISSISSAUGA	ONTARIO	CANADA	L5N 6L4	
89795		10114	GLAXOSMITHKLINE CONSUMER HEALTHCARE INC.	DIN OWNER	Y	Y	Y			"7333 MISSISSAUGA ROAD, 4TH FLOOR"	MISSISSAUGA	ONTARIO	CANADA	L5N 6L4	
89800		12007	PARTNAR ANIMAL HEALTH INC	DIN OWNER	Y	Y	Y			14057 ILDERTON ROAD	ILDERTON	ONTARIO	CANADA	N0M 2A0	
89811		14464	CRLS	DIN OWNER	Y	Y	Y			"333-24 AVENUE SW, SUITE 300"	CALGARY	ALBERTA	CANADA	T2S 3E6	1381
89812	PMS07	3550	PHARMASCIENCE INC	DIN OWNER	Y	Y	Y	N	100	"6111, ROYALMOUNT AVENUE"	MONTREAL	QUEBEC	CANADA	H4P 2T4	
89813	PMS07	3550	PHARMASCIENCE INC	DIN OWNER	Y	Y	Y	N	100	"6111, ROYALMOUNT AVENUE"	MONTREAL	QUEBEC	CANADA	H4P 2T4	
89823		11902	VALEANT CANADA LP/VALEANT CANADA S.E.C.	DIN OWNER	Y	Y	Y			2150 BOUL. ST-ELZEAR OUEST	LAVAL	QUEBEC	CANADA	H7L 4A8	
89831		15791	"SAYUKI CUSTOM COSMETICS, INC."	DIN OWNER	Y	N	Y			24155 LAGUNA HILLS MALL DRIVE	LAGUNA HILLS	CALIFORNIA	UNITED STATES	92653	
89832		15083	DR REDDYS LABORATORIES LTD	DIN OWNER	Y	N	N			"SURVEY NOS 42,45,46,54 BACHUPALLY, QUTHBULLAPUR"	HYDERBAD	TELANGANA	INDIA	500090	
89833		15083	DR REDDYS LABORATORIES LTD	DIN OWNER	Y	N	N			"SURVEY NOS 42,45,46,54 BACHUPALLY, QUTHBULLAPUR"	HYDERBAD	TELANGANA	INDIA	500090	
89841		11642	HOSPIRA HEALTHCARE CORPORATION	DIN OWNER	Y	Y	Y			17300 TRANS-CANADA HIGHWAY	KIRKLAND	QUEBEC	CANADA	H9J 2M5	
89846		12027	SANDOZ CANADA INCORPORATED	DIN OWNER	Y	Y	Y			145 JULES-LÉGER STREET	BOUCHERVILLE	QUEBEC	CANADA	J4B 7K8	
89849		11642	HOSPIRA HEALTHCARE CORPORATION	DIN OWNER	Y	Y	Y			17300 TRANS-CANADA HIGHWAY	KIRKLAND	QUEBEC	CANADA	H9J 2M5	
89850		11642	HOSPIRA HEALTHCARE CORPORATION	DIN OWNER	Y	Y	Y			17300 TRANS-CANADA HIGHWAY	KIRKLAND	QUEBEC	CANADA	H9J 2M5	
89851		12007	PARTNAR ANIMAL HEALTH INC	DIN OWNER	Y	Y	Y			14057 ILDERTON ROAD	ILDERTON	ONTARIO	CANADA	N0M 2A0	
89852		15652	TQM ENTERPRISES LIMITED	DIN OWNER	Y	Y	Y			12 CORAL REEF BAY NE	CALGARY	ALBERTA	CANADA	T3J 3Y4	
89853		15652	TQM ENTERPRISES LIMITED	DIN OWNER	Y	Y	Y			12 CORAL REEF BAY NE	CALGARY	ALBERTA	CANADA	T3J 3Y4	
89854		12007	PARTNAR ANIMAL HEALTH INC	DIN OWNER	Y	Y	Y			14057 ILDERTON ROAD	ILDERTON	ONTARIO	CANADA	N0M 2A0	
89855		15652	TQM ENTERPRISES LIMITED	DIN OWNER	Y	Y	Y			12 CORAL REEF BAY NE	CALGARY	ALBERTA	CANADA	T3J 3Y4	
89856		15652	TQM ENTERPRISES LIMITED	DIN OWNER	Y	Y	Y			12 CORAL REEF BAY NE	CALGARY	ALBERTA	CANADA	T3J 3Y4	
89857		15652	TQM ENTERPRISES LIMITED	DIN OWNER	Y	Y	Y			12 CORAL REEF BAY NE	CALGARY	ALBERTA	CANADA	T3J 3Y4	
89859		15652	TQM ENTERPRISES LIMITED	DIN OWNER	Y	Y	Y			12 CORAL REEF BAY NE	CALGARY	ALBERTA	CANADA	T3J 3Y4	
89860		15652	TQM ENTERPRISES LIMITED	DIN OWNER	Y	Y	Y			12 CORAL REEF BAY NE	CALGARY	ALBERTA	CANADA	T3J 3Y4	
89861		15652	TQM ENTERPRISES LIMITED	DIN OWNER	Y	Y	Y			12 CORAL REEF BAY NE	CALGARY	ALBERTA	CANADA	T3J 3Y4	
89873	PGA08	4911	PROCTER & GAMBLE INC	DIN OWNER	Y	N	N	N		4711 YONGE STREET	TORONTO	ONTARIO	CANADA	M2N 6K8	
89880	DPC07	4065	DOMINION PHARMACAL	DIN OWNER	Y	Y	Y	N	SUITE 100	"6111, AVENUE ROYALMOUNT"	MONTREAL	QUEBEC	CANADA	H4P 2T4	
89882	DPC07	4065	DOMINION PHARMACAL	DIN OWNER	Y	Y	Y	N	SUITE 100	"6111, AVENUE ROYALMOUNT"	MONTREAL	QUEBEC	CANADA	H4P 2T4	
89883	DPC07	4065	DOMINION PHARMACAL	DIN OWNER	Y	Y	Y	N	SUITE 100	"6111, AVENUE ROYALMOUNT"	MONTREAL	QUEBEC	CANADA	H4P 2T4	
89894	TAR08	5241	TARO PHARMACEUTICALS INC	DIN OWNER	Y	Y	N	N		130 EAST DRIVE	BRAMPTON	ONTARIO	CANADA	L6T 1C1	
89897		9867	BEBBINGTON INDUSTRIES INCORPORATED	DIN OWNER	Y	Y	Y			44 WRIGHT AVENUE	DARTMOUTH	NOVA SCOTIA	CANADA	B3B 1G6	
89900	SDQ95	6574	STEPAN COMPANY	DIN OWNER	Y	Y	N	N		22 W. FRONTAGE ROAD	NORTHFIELD	ILLINOIS	UNITED STATES	60093	
89902		11979	AURO PHARMA INC	DIN OWNER	Y	Y	Y			"3700 STEELES AVENUE WEST, SUITE 402"	WOODBRIDGE	ONTARIO	CANADA	L4L 8K8	
89903		11979	AURO PHARMA INC	DIN OWNER	Y	Y	Y			"3700 STEELES AVENUE WEST, SUITE 402"	WOODBRIDGE	ONTARIO	CANADA	L4L 8K8	
89904		11979	AURO PHARMA INC	DIN OWNER	Y	Y	Y			"3700 STEELES AVENUE WEST, SUITE 402"	WOODBRIDGE	ONTARIO	CANADA	L4L 8K8	
89909	JGD95	4412	PERRIGO INTERNATIONAL	DIN OWNER	Y	Y	Y	N		515 EASTERN AVE	ALLEGAN	MICHIGAN	UNITED STATES	49010-1327	
89910		11271	RANBAXY PHARMACEUTICALS CANADA INC.	DIN OWNER	Y	Y	Y			126 EAST DRIVE	BRAMPTON	ONTARIO	CANADA	L6T 1C1	
89911		11271	RANBAXY PHARMACEUTICALS CANADA INC.	DIN OWNER	Y	Y	Y			126 EAST DRIVE	BRAMPTON	ONTARIO	CANADA	L6T 1C1	
89912		11271	RANBAXY PHARMACEUTICALS CANADA INC.	DIN OWNER	Y	Y	Y			126 EAST DRIVE	BRAMPTON	ONTARIO	CANADA	L6T 1C1	
89913		11271	RANBAXY PHARMACEUTICALS CANADA INC.	DIN OWNER	Y	Y	Y			126 EAST DRIVE	BRAMPTON	ONTARIO	CANADA	L6T 1C1	
89914		11271	RANBAXY PHARMACEUTICALS CANADA INC.	DIN OWNER	Y	Y	Y			126 EAST DRIVE	BRAMPTON	ONTARIO	CANADA	L6T 1C1	
89915		11271	RANBAXY PHARMACEUTICALS CANADA INC.	DIN OWNER	Y	Y	Y			126 EAST DRIVE	BRAMPTON	ONTARIO	CANADA	L6T 1C1	
89926		11271	RANBAXY PHARMACEUTICALS CANADA INC.	DIN OWNER	Y	Y	Y			126 EAST DRIVE	BRAMPTON	ONTARIO	CANADA	L6T 1C1	
89927		11271	RANBAXY PHARMACEUTICALS CANADA INC.	DIN OWNER	Y	Y	Y			126 EAST DRIVE	BRAMPTON	ONTARIO	CANADA	L6T 1C1	
89928		11271	RANBAXY PHARMACEUTICALS CANADA INC.	DIN OWNER	Y	Y	Y			126 EAST DRIVE	BRAMPTON	ONTARIO	CANADA	L6T 1C1	
89933	BAX08	3699	BAXTER CORPORATION	DIN OWNER	Y	Y	Y	N		7125 MISSISSAUGA ROAD	MISSISSAUGA	ONTARIO	CANADA	L5N 0C2	
89936		8581	CHEMSTAR CORPORATION	DIN OWNER	Y	Y	N	N	SUITE 100	120 INTERSTATE WEST PARKWAY	LITHIA SPRINGS	GEORGIA	UNITED STATES	30122	
89939	DPC07	4065	DOMINION PHARMACAL	DIN OWNER	Y	Y	Y	N	SUITE 100	"6111, AVENUE ROYALMOUNT"	MONTREAL	QUEBEC	CANADA	H4P 2T4	
89947	BAX08	3699	BAXTER CORPORATION	DIN OWNER	Y	Y	Y	N		7125 MISSISSAUGA ROAD	MISSISSAUGA	ONTARIO	CANADA	L5N 0C2	
89958		15893	PB PHARMA INC	DIN OWNER	Y	N	Y			400-3871 BELANGER STREET	MONTREAL	QUEBEC	CANADA	H1X 3M7	
89959		15893	PB PHARMA INC	DIN OWNER	Y	N	Y			400-3871 BELANGER STREET	MONTREAL	QUEBEC	CANADA	H1X 3M7	
89960		15893	PB PHARMA INC	DIN OWNER	Y	N	Y			400-3871 BELANGER STREET	MONTREAL	QUEBEC	CANADA	H1X 3M7	
89985		11271	RANBAXY PHARMACEUTICALS CANADA INC.	DIN OWNER	Y	Y	Y			126 EAST DRIVE	BRAMPTON	ONTARIO	CANADA	L6T 1C1	
89986		11271	RANBAXY PHARMACEUTICALS CANADA INC.	DIN OWNER	Y	Y	Y			126 EAST DRIVE	BRAMPTON	ONTARIO	CANADA	L6T 1C1	
89987		14907	MARCAN PHARMACEUTICALS INC	DIN OWNER	Y	N	N		SUITE 4	77 AURIGA DRIVE	OTTAWA	ONTARIO	CANADA	K2E 7Z7	
89988		14907	MARCAN PHARMACEUTICALS INC	DIN OWNER	Y	N	N		SUITE 4	77 AURIGA DRIVE	OTTAWA	ONTARIO	CANADA	K2E 7Z7	
89990		13838	TORRENT PHARMACEUTICALS LIMITED	DIN OWNER	Y	N	N			AHMEDABAD-MEHSANA HIGHWAY	"TALUKA-KADI DIST. OF MEHSANA, INDRAD"	GUJARAT	INDIA	382721	
89991		13838	TORRENT PHARMACEUTICALS LIMITED	DIN OWNER	Y	N	N			AHMEDABAD-MEHSANA HIGHWAY	"TALUKA-KADI DIST. OF MEHSANA, INDRAD"	GUJARAT	INDIA	382721	
89992	APX08	3636	APOTEX INC	DIN OWNER	Y	Y	Y	N		150 SIGNET DRIVE	TORONTO	ONTARIO	CANADA	M9L 1T9	
90008	BAX08	3699	BAXTER CORPORATION	DIN OWNER	Y	Y	Y	N		7125 MISSISSAUGA ROAD	MISSISSAUGA	ONTARIO	CANADA	L5N 0C2	
90010	BAX08	3699	BAXTER CORPORATION	DIN OWNER	Y	Y	Y	N		7125 MISSISSAUGA ROAD	MISSISSAUGA	ONTARIO	CANADA	L5N 0C2	
90031		15825	WORTHY PROMOTIONAL PRODUCTS	DIN OWNER	Y	Y	Y			20 FIRST AVE	ECLECTIC	ALABAMA	UNITED STATES	36024	240490
90032		15825	WORTHY PROMOTIONAL PRODUCTS	DIN OWNER	Y	Y	Y			20 FIRST AVE	ECLECTIC	ALABAMA	UNITED STATES	36024	240490
90034	REV08	4602	REVLON CANADA INC	DIN OWNER	Y	Y	Y	N		1590 SOUTH GATEWAY RD	MISSISSAUGA	ONTARIO	CANADA	L4W 0A8	
90035	GCC08	4231	GERMIPHENE CORPORATION	DIN OWNER	Y	Y	Y	N		1379 COLBORNE STREET EAST	BRANTFORD	ONTARIO	CANADA	N3T 5M1	
90038	PMS07	3550	PHARMASCIENCE INC	DIN OWNER	Y	Y	Y	N	100	"6111, ROYALMOUNT AVENUE"	MONTREAL	QUEBEC	CANADA	H4P 2T4	
90059		17122	THE PROACTIV COMPANY LLC	DIN OWNER	Y	Y	N		1400	"100 N SEPULVEDA BLVD	"	EL SEGUNDO	CALIFORNIA	UNITED STATES	90245	
90062		15558	ORIMED PHARMA CORPORATION	DIN OWNER	Y	N	N			"1380 NEWTON, UNIT 203"	BOUCHERVILLE	QUEBEC	CANADA	J4B 5H2	
90064	OMG07	4852	OMEGA LABORATORIES LTD	DIN OWNER	Y	Y	Y	N		11177 HAMON	MONTREAL	QUEBEC	CANADA	H3M 3E4	
90072		14907	MARCAN PHARMACEUTICALS INC	DIN OWNER	Y	N	N		SUITE 4	77 AURIGA DRIVE	OTTAWA	ONTARIO	CANADA	K2E 7Z7	
90073		14907	MARCAN PHARMACEUTICALS INC	DIN OWNER	Y	N	N		SUITE 4	77 AURIGA DRIVE	OTTAWA	ONTARIO	CANADA	K2E 7Z7	
90074		14907	MARCAN PHARMACEUTICALS INC	DIN OWNER	Y	N	N		SUITE 4	77 AURIGA DRIVE	OTTAWA	ONTARIO	CANADA	K2E 7Z7	
90075		14907	MARCAN PHARMACEUTICALS INC	DIN OWNER	Y	N	N		SUITE 4	77 AURIGA DRIVE	OTTAWA	ONTARIO	CANADA	K2E 7Z7	
90076		14907	MARCAN PHARMACEUTICALS INC	DIN OWNER	Y	N	N		SUITE 4	77 AURIGA DRIVE	OTTAWA	ONTARIO	CANADA	K2E 7Z7	
90077		14907	MARCAN PHARMACEUTICALS INC	DIN OWNER	Y	N	N		SUITE 4	77 AURIGA DRIVE	OTTAWA	ONTARIO	CANADA	K2E 7Z7	
90078		14907	MARCAN PHARMACEUTICALS INC	DIN OWNER	Y	N	N		SUITE 4	77 AURIGA DRIVE	OTTAWA	ONTARIO	CANADA	K2E 7Z7	
90079		14907	MARCAN PHARMACEUTICALS INC	DIN OWNER	Y	N	N		SUITE 4	77 AURIGA DRIVE	OTTAWA	ONTARIO	CANADA	K2E 7Z7	
90080		14907	MARCAN PHARMACEUTICALS INC	DIN OWNER	Y	N	N		SUITE 4	77 AURIGA DRIVE	OTTAWA	ONTARIO	CANADA	K2E 7Z7	
90083		14907	MARCAN PHARMACEUTICALS INC	DIN OWNER	Y	N	N		SUITE 4	77 AURIGA DRIVE	OTTAWA	ONTARIO	CANADA	K2E 7Z7	
90084	REV08	4602	REVLON CANADA INC	DIN OWNER	Y	Y	Y	N		1590 SOUTH GATEWAY RD	MISSISSAUGA	ONTARIO	CANADA	L4W 0A8	
90085	REV08	4602	REVLON CANADA INC	DIN OWNER	Y	Y	Y	N		1590 SOUTH GATEWAY RD	MISSISSAUGA	ONTARIO	CANADA	L4W 0A8	
90089		11271	RANBAXY PHARMACEUTICALS CANADA INC.	DIN OWNER	Y	Y	Y			126 EAST DRIVE	BRAMPTON	ONTARIO	CANADA	L6T 1C1	
90090		11271	RANBAXY PHARMACEUTICALS CANADA INC.	DIN OWNER	Y	Y	Y			126 EAST DRIVE	BRAMPTON	ONTARIO	CANADA	L6T 1C1	
90091		11271	RANBAXY PHARMACEUTICALS CANADA INC.	DIN OWNER	Y	Y	Y			126 EAST DRIVE	BRAMPTON	ONTARIO	CANADA	L6T 1C1	
90092		11271	RANBAXY PHARMACEUTICALS CANADA INC.	DIN OWNER	Y	Y	Y			126 EAST DRIVE	BRAMPTON	ONTARIO	CANADA	L6T 1C1	
90093		11271	RANBAXY PHARMACEUTICALS CANADA INC.	DIN OWNER	Y	Y	Y			126 EAST DRIVE	BRAMPTON	ONTARIO	CANADA	L6T 1C1	
90095		15115	BENEFIT COMESTICS LLC	DIN OWNER	Y	N	N			"225 BUSH STREET, FLOOR 20"	SAN FRANCISCO	CALIFORNIA	UNITED STATES	94104	
90109		14586	LUPIN LIMITED	DIN OWNER	Y	Y	Y			"KALPATARU INSPIRE, 3RD FLOOR, OFF WESTERN HIGHWAY, SANTACRUZ  EAST"	MUMBAI	MAHARASHTRA	INDIA	400055	
90110		14586	LUPIN LIMITED	DIN OWNER	Y	Y	Y			"KALPATARU INSPIRE, 3RD FLOOR, OFF WESTERN HIGHWAY, SANTACRUZ  EAST"	MUMBAI	MAHARASHTRA	INDIA	400055	
90111		14586	LUPIN LIMITED	DIN OWNER	Y	Y	Y			"KALPATARU INSPIRE, 3RD FLOOR, OFF WESTERN HIGHWAY, SANTACRUZ  EAST"	MUMBAI	MAHARASHTRA	INDIA	400055	
90115		14907	MARCAN PHARMACEUTICALS INC	DIN OWNER	Y	N	N		SUITE 4	77 AURIGA DRIVE	OTTAWA	ONTARIO	CANADA	K2E 7Z7	
90125		13389	VI-JON INC	DIN OWNER	Y	Y	N			8800 PAGE AVENUE	ST.LOUIS	MISSOURI	UNITED STATES	63114	
90126		15415	ALEMBIC PHARMACEUTICALS LIMITED	DIN OWNER	Y	Y	Y			ALEMBIC ROAD	VADODARA	GUJARAT	INDIA	390003	
90127		15415	ALEMBIC PHARMACEUTICALS LIMITED	DIN OWNER	Y	Y	Y			ALEMBIC ROAD	VADODARA	GUJARAT	INDIA	390003	
90128		15415	ALEMBIC PHARMACEUTICALS LIMITED	DIN OWNER	Y	Y	Y			ALEMBIC ROAD	VADODARA	GUJARAT	INDIA	390003	
90129		15415	ALEMBIC PHARMACEUTICALS LIMITED	DIN OWNER	Y	Y	Y			ALEMBIC ROAD	VADODARA	GUJARAT	INDIA	390003	
90130		15415	ALEMBIC PHARMACEUTICALS LIMITED	DIN OWNER	Y	Y	Y			ALEMBIC ROAD	VADODARA	GUJARAT	INDIA	390003	
90131		15415	ALEMBIC PHARMACEUTICALS LIMITED	DIN OWNER	Y	Y	Y			ALEMBIC ROAD	VADODARA	GUJARAT	INDIA	390003	
90132		15415	ALEMBIC PHARMACEUTICALS LIMITED	DIN OWNER	Y	Y	Y			ALEMBIC ROAD	VADODARA	GUJARAT	INDIA	390003	
90133		15415	ALEMBIC PHARMACEUTICALS LIMITED	DIN OWNER	Y	Y	Y			ALEMBIC ROAD	VADODARA	GUJARAT	INDIA	390003	
90149	JAS08	4406	S.C. JOHNSON AND SON LTD	DIN OWNER	Y	Y	Y	N		1 WEBSTER STREET	BRANTFORD	ONTARIO	CANADA	N3T 5R1	
90150		11902	VALEANT CANADA LP/VALEANT CANADA S.E.C.	DIN OWNER	Y	Y	Y			2150 BOUL. ST-ELZEAR OUEST	LAVAL	QUEBEC	CANADA	H7L 4A8	
90155		15766	"THE FACE SHOP CO., LTD"	DIN OWNER	Y	Y	N			58 SAEMUNAN-RO	JONGNO-GU	SEOUL TEUGBYEOLSI	"KOREA, REPUBLIC OF"	.	
90162		15590	CEVA ANIMAL HEALTH INC	DIN OWNER	Y	Y	Y			"1040 FOUNTAIN STREET NORTH, UNIT 6"	CAMBRIDGE	ONTARIO	CANADA	N3E 1A3	
90168		13829	ACCEL PHARMA INC	DIN OWNER	Y	Y	Y			99 PLACE FRONTENAC	POINTE CLAIRE	QUEBEC	CANADA	H9R 4Z7	
90169		13829	ACCEL PHARMA INC	DIN OWNER	Y	Y	Y			99 PLACE FRONTENAC	POINTE CLAIRE	QUEBEC	CANADA	H9R 4Z7	
90170		13829	ACCEL PHARMA INC	DIN OWNER	Y	Y	Y			99 PLACE FRONTENAC	POINTE CLAIRE	QUEBEC	CANADA	H9R 4Z7	
90177	NNA08	4763	NOVO NORDISK CANADA INC	DIN OWNER	Y	Y	Y	N		300-2680 SKYMARK AVENUE	MISSISSAUGA	ONTARIO	CANADA	L4W 5L6	
90205		13221	MINT PHARMACEUTICALS INC	DIN OWNER	Y	Y	Y		UNIT 1	1093 MEYERSIDE DRIVE	MISSISSAUGA	ONTARIO	CANADA	L5T 1J6	
90210		14907	MARCAN PHARMACEUTICALS INC	DIN OWNER	Y	N	N		SUITE 4	77 AURIGA DRIVE	OTTAWA	ONTARIO	CANADA	K2E 7Z7	
90212		14907	MARCAN PHARMACEUTICALS INC	DIN OWNER	Y	N	N		SUITE 4	77 AURIGA DRIVE	OTTAWA	ONTARIO	CANADA	K2E 7Z7	
90213		14907	MARCAN PHARMACEUTICALS INC	DIN OWNER	Y	N	N		SUITE 4	77 AURIGA DRIVE	OTTAWA	ONTARIO	CANADA	K2E 7Z7	
90214		14907	MARCAN PHARMACEUTICALS INC	DIN OWNER	Y	N	N		SUITE 4	77 AURIGA DRIVE	OTTAWA	ONTARIO	CANADA	K2E 7Z7	
90219		8060	ETHYPHARM INC	DIN OWNER	Y	Y	N		SUITE 2400	1000 DE LA GAUCHETIERE OUEST	MONTREAL	QUEBEC	CANADA	H3B 4W5	
90221		8060	ETHYPHARM INC	DIN OWNER	Y	Y	N		SUITE 2400	1000 DE LA GAUCHETIERE OUEST	MONTREAL	QUEBEC	CANADA	H3B 4W5	
90233	AVV95	5575	"ALVA-AMCO PHARMACAL COMPANIES, INC."	DIN OWNER	Y	Y	Y	N		7711 MERRIMAC AVENUE	NILES	ILLINOIS	UNITED STATES	60714-3423	
90234	PGA08	4911	PROCTER & GAMBLE INC	DIN OWNER	Y	N	N	N		4711 YONGE STREET	TORONTO	ONTARIO	CANADA	M2N 6K8	
90238		15964	GLOPROFESSIONAL	DIN OWNER	Y	Y	Y			600 W BAYAUD AVE.	DENVER	COLORADO	UNITED STATES	80223	
90239	YNO08	5348	BAYER INC CONSUMER CARE	DIN OWNER	Y	N	Y	N		2920  MATHESON BLVD E	MISSISSAUGA	ONTARIO	CANADA	L4W 5R6	
90248		15943	NUGALE PHARMACEUTICAL INC	DIN OWNER	Y	N	Y			41 PULLMAN COURT	TORONTO	ONTARIO	CANADA	M1X 1E4	
90251		15528	"KISS MY FACE, LLC"	DIN OWNER	Y	N	Y			144 MAIN ST.	GARDINER	NEW YORK	UNITED STATES	12525	
90258	REK07	5010	RECKITT BENCKISER (CANADA) INC	DIN OWNER	Y	Y	Y	N	UNIT #2	1680 TECH AVENUE	MISSISSAUGA	ONTARIO	CANADA	L4W 5S9	
90260		13838	TORRENT PHARMACEUTICALS LIMITED	DIN OWNER	Y	N	N			AHMEDABAD-MEHSANA HIGHWAY	"TALUKA-KADI DIST. OF MEHSANA, INDRAD"	GUJARAT	INDIA	382721	
90261		13838	TORRENT PHARMACEUTICALS LIMITED	DIN OWNER	Y	N	N			AHMEDABAD-MEHSANA HIGHWAY	"TALUKA-KADI DIST. OF MEHSANA, INDRAD"	GUJARAT	INDIA	382721	
90262		13838	TORRENT PHARMACEUTICALS LIMITED	DIN OWNER	Y	N	N			AHMEDABAD-MEHSANA HIGHWAY	"TALUKA-KADI DIST. OF MEHSANA, INDRAD"	GUJARAT	INDIA	382721	
90264		8811	MAKE UP ART COSMETICS DIST MAC	DIN OWNER	Y	N	N	N		550 PETROLIA ROAD	TORONTO	ONTARIO	CANADA	M3J 2W3	
90268		14318	TEVA CANADA LIMITED	DIN OWNER	Y	Y	N			30 NOVOPHARM COURT	TORONTO	ONTARIO	CANADA	M1B 2K9	
90274	REK07	5010	RECKITT BENCKISER (CANADA) INC	DIN OWNER	Y	Y	Y	N	UNIT #2	1680 TECH AVENUE	MISSISSAUGA	ONTARIO	CANADA	L4W 5S9	
90276		15766	"THE FACE SHOP CO., LTD"	DIN OWNER	Y	Y	N			58 SAEMUNAN-RO	JONGNO-GU	SEOUL TEUGBYEOLSI	"KOREA, REPUBLIC OF"	.	
90283		15931	MAGIC TOOSH INC	DIN OWNER	Y	Y	N			121 ASPENMERE DRIVE	CHESTERMERE	ALBERTA	CANADA	T1X 0P1	
90289		12027	SANDOZ CANADA INCORPORATED	DIN OWNER	Y	Y	Y			145 JULES-LÉGER STREET	BOUCHERVILLE	QUEBEC	CANADA	J4B 7K8	
90295	DPC07	4065	DOMINION PHARMACAL	DIN OWNER	Y	Y	Y	N	SUITE 100	"6111, AVENUE ROYALMOUNT"	MONTREAL	QUEBEC	CANADA	H4P 2T4	
90296	DPC07	4065	DOMINION PHARMACAL	DIN OWNER	Y	Y	Y	N	SUITE 100	"6111, AVENUE ROYALMOUNT"	MONTREAL	QUEBEC	CANADA	H4P 2T4	
90297		10774	BAYER INC	DIN OWNER	Y	N	Y			2920 MATHESON BLVD EAST	MISSISSAUGA	ONTARIO	CANADA	L4W 5R6	
90304	MCL08	4569	MCNEIL CONSUMER HEALTHCARE DIVISION OF JOHNSON & JOHNSON INC	DIN OWNER	Y	Y	Y	N		88 MCNABB STREET	MARKHAM	ONTARIO	CANADA	L3R 5L2	
90317		16088	LUPIN PHARMA CANADA LIMITED	DIN OWNER	Y	Y	Y			"1001 DE MAISONNEUVE EST, SUITE 304"	MONTREAL	QUEBEC	CANADA	H2L 4P9	
90318		16088	LUPIN PHARMA CANADA LIMITED	DIN OWNER	Y	Y	Y			"1001 DE MAISONNEUVE EST, SUITE 304"	MONTREAL	QUEBEC	CANADA	H2L 4P9	
90321		12184	PRIME SOURCE	DIN OWNER	Y	Y	N			"ONE CITY PLACE DRIVE, SUITE 200"	ST. LOUIS	MISSOURI	UNITED STATES	63141	
90322		12184	PRIME SOURCE	DIN OWNER	Y	Y	N			"ONE CITY PLACE DRIVE, SUITE 200"	ST. LOUIS	MISSOURI	UNITED STATES	63141	
90327		14907	MARCAN PHARMACEUTICALS INC	DIN OWNER	Y	N	N		SUITE 4	77 AURIGA DRIVE	OTTAWA	ONTARIO	CANADA	K2E 7Z7	
90328		14907	MARCAN PHARMACEUTICALS INC	DIN OWNER	Y	N	N		SUITE 4	77 AURIGA DRIVE	OTTAWA	ONTARIO	CANADA	K2E 7Z7	
90334		8388	WOOD WYANT INC	DIN OWNER	Y	Y	Y	N		42 RUE DE L'ARTISAN	VICTORIAVILLE	QUEBEC	CANADA	G6P 7E3	
90335		8388	WOOD WYANT INC	DIN OWNER	Y	Y	Y	N		42 RUE DE L'ARTISAN	VICTORIAVILLE	QUEBEC	CANADA	G6P 7E3	
90339		14907	MARCAN PHARMACEUTICALS INC	DIN OWNER	Y	N	N		SUITE 4	77 AURIGA DRIVE	OTTAWA	ONTARIO	CANADA	K2E 7Z7	
90340		14907	MARCAN PHARMACEUTICALS INC	DIN OWNER	Y	N	N		SUITE 4	77 AURIGA DRIVE	OTTAWA	ONTARIO	CANADA	K2E 7Z7	
90341		14907	MARCAN PHARMACEUTICALS INC	DIN OWNER	Y	N	N		SUITE 4	77 AURIGA DRIVE	OTTAWA	ONTARIO	CANADA	K2E 7Z7	
90342		14907	MARCAN PHARMACEUTICALS INC	DIN OWNER	Y	N	N		SUITE 4	77 AURIGA DRIVE	OTTAWA	ONTARIO	CANADA	K2E 7Z7	
90343		14907	MARCAN PHARMACEUTICALS INC	DIN OWNER	Y	N	N		SUITE 4	77 AURIGA DRIVE	OTTAWA	ONTARIO	CANADA	K2E 7Z7	
90346		14803	JUBILANT GENERICS LIMITED	DIN OWNER	Y	Y	N			"1A, SECTOR 16A INSTITUTIONAL AREA"	NOIDA	UTTAR PRADESH	INDIA	201301	
90350	APX08	3636	APOTEX INC	DIN OWNER	Y	Y	Y	N		150 SIGNET DRIVE	TORONTO	ONTARIO	CANADA	M9L 1T9	
90352		14907	MARCAN PHARMACEUTICALS INC	DIN OWNER	Y	N	N		SUITE 4	77 AURIGA DRIVE	OTTAWA	ONTARIO	CANADA	K2E 7Z7	
90353		14907	MARCAN PHARMACEUTICALS INC	DIN OWNER	Y	N	N		SUITE 4	77 AURIGA DRIVE	OTTAWA	ONTARIO	CANADA	K2E 7Z7	
90354		14907	MARCAN PHARMACEUTICALS INC	DIN OWNER	Y	N	N		SUITE 4	77 AURIGA DRIVE	OTTAWA	ONTARIO	CANADA	K2E 7Z7	
90355		14907	MARCAN PHARMACEUTICALS INC	DIN OWNER	Y	N	N		SUITE 4	77 AURIGA DRIVE	OTTAWA	ONTARIO	CANADA	K2E 7Z7	
90356		14907	MARCAN PHARMACEUTICALS INC	DIN OWNER	Y	N	N		SUITE 4	77 AURIGA DRIVE	OTTAWA	ONTARIO	CANADA	K2E 7Z7	
90357		14907	MARCAN PHARMACEUTICALS INC	DIN OWNER	Y	N	N		SUITE 4	77 AURIGA DRIVE	OTTAWA	ONTARIO	CANADA	K2E 7Z7	
90362	MTH08	4675	THE MENTHOLATUM COMPANY OF CANADA LTD	DIN OWNER	Y	Y	N	N	UNIT 2	45 HANNOVER DR.	ST. CATHARINES	ONTARIO	CANADA	L2W 1A3	
90376		14907	MARCAN PHARMACEUTICALS INC	DIN OWNER	Y	N	N		SUITE 4	77 AURIGA DRIVE	OTTAWA	ONTARIO	CANADA	K2E 7Z7	
90377		14907	MARCAN PHARMACEUTICALS INC	DIN OWNER	Y	N	N		SUITE 4	77 AURIGA DRIVE	OTTAWA	ONTARIO	CANADA	K2E 7Z7	
90378		14907	MARCAN PHARMACEUTICALS INC	DIN OWNER	Y	N	N		SUITE 4	77 AURIGA DRIVE	OTTAWA	ONTARIO	CANADA	K2E 7Z7	
90379		15772	ACTAVIS PHARMA COMPANY	DIN OWNER	Y	Y	Y			"6733 MISSISSAUGA ROAD, SUITE 400"	MISSISSAUGA	ONTARIO	CANADA	L5N 6J5	
90383		14108	TAKEDA CANADA INC	DIN OWNER	Y	N	N			"2201BRISTOL CIRCLE, SUITE 700"	OAKVILLE	ONTARIO	CANADA	L6H 0J8	
90384		14108	TAKEDA CANADA INC	DIN OWNER	Y	N	N			"2201BRISTOL CIRCLE, SUITE 700"	OAKVILLE	ONTARIO	CANADA	L6H 0J8	
90385		14108	TAKEDA CANADA INC	DIN OWNER	Y	N	N			"2201BRISTOL CIRCLE, SUITE 700"	OAKVILLE	ONTARIO	CANADA	L6H 0J8	
90386		14108	TAKEDA CANADA INC	DIN OWNER	Y	N	N			"2201BRISTOL CIRCLE, SUITE 700"	OAKVILLE	ONTARIO	CANADA	L6H 0J8	
90387		14108	TAKEDA CANADA INC	DIN OWNER	Y	N	N			"2201BRISTOL CIRCLE, SUITE 700"	OAKVILLE	ONTARIO	CANADA	L6H 0J8	
90388		14108	TAKEDA CANADA INC	DIN OWNER	Y	N	N			"2201BRISTOL CIRCLE, SUITE 700"	OAKVILLE	ONTARIO	CANADA	L6H 0J8	
90401		14803	JUBILANT GENERICS LIMITED	DIN OWNER	Y	Y	N			"1A, SECTOR 16A INSTITUTIONAL AREA"	NOIDA	UTTAR PRADESH	INDIA	201301	
90402		14803	JUBILANT GENERICS LIMITED	DIN OWNER	Y	Y	N			"1A, SECTOR 16A INSTITUTIONAL AREA"	NOIDA	UTTAR PRADESH	INDIA	201301	
90403		14803	JUBILANT GENERICS LIMITED	DIN OWNER	Y	Y	N			"1A, SECTOR 16A INSTITUTIONAL AREA"	NOIDA	UTTAR PRADESH	INDIA	201301	
90404		14803	JUBILANT GENERICS LIMITED	DIN OWNER	Y	Y	N			"1A, SECTOR 16A INSTITUTIONAL AREA"	NOIDA	UTTAR PRADESH	INDIA	201301	
90405		14803	JUBILANT GENERICS LIMITED	DIN OWNER	Y	Y	N			"1A, SECTOR 16A INSTITUTIONAL AREA"	NOIDA	UTTAR PRADESH	INDIA	201301	
90406		14803	JUBILANT GENERICS LIMITED	DIN OWNER	Y	Y	N			"1A, SECTOR 16A INSTITUTIONAL AREA"	NOIDA	UTTAR PRADESH	INDIA	201301	
90407		14803	JUBILANT GENERICS LIMITED	DIN OWNER	Y	Y	N			"1A, SECTOR 16A INSTITUTIONAL AREA"	NOIDA	UTTAR PRADESH	INDIA	201301	
90417		13032	ACCORD HEALTHCARE INC	DIN OWNER	Y	Y	Y			"3535 BOULEVARD ST-CHARLES, SUITE 704"	KIRKLAND	QUEBEC	CANADA	H9H 5B9	
90418		13032	ACCORD HEALTHCARE INC	DIN OWNER	Y	Y	Y			"3535 BOULEVARD ST-CHARLES, SUITE 704"	KIRKLAND	QUEBEC	CANADA	H9H 5B9	
90419		13032	ACCORD HEALTHCARE INC	DIN OWNER	Y	Y	Y			"3535 BOULEVARD ST-CHARLES, SUITE 704"	KIRKLAND	QUEBEC	CANADA	H9H 5B9	
90438		15069	ARTEMIS BIO SOLUTIONS	DIN OWNER	Y	Y	Y		4	960 N INDUSTRIAL	ELMHURST	ILLINOIS	UNITED STATES	60126	
90441		11271	RANBAXY PHARMACEUTICALS CANADA INC.	DIN OWNER	Y	Y	Y			126 EAST DRIVE	BRAMPTON	ONTARIO	CANADA	L6T 1C1	
90442		11271	RANBAXY PHARMACEUTICALS CANADA INC.	DIN OWNER	Y	Y	Y	N		126 EAST DRIVE	BRAMPTON	ONTARIO	CANADA	L6T 1C1	
90446		9071	THE CLOROX COMPANY OF CANADA LTD	DIN OWNER	Y	Y	Y			150 BISCAYNE CRESCENT	BRAMPTON	ONTARIO	CANADA	L6W 4V3	
90455	DPT07	4068	DERMTEK PHARMA INC	DIN OWNER	Y	Y	Y	N	200	"1600, ROUTE TRANS-CANADIENNE"	DORVAL	QUEBEC	CANADA	H9P 1H7	
90456	DPT07	4068	DERMTEK PHARMA INC	DIN OWNER	Y	Y	Y	N	200	"1600, ROUTE TRANS-CANADIENNE"	DORVAL	QUEBEC	CANADA	H9P 1H7	
90458		15069	ARTEMIS BIO SOLUTIONS	DIN OWNER	Y	Y	Y		4	960 N INDUSTRIAL	ELMHURST	ILLINOIS	UNITED STATES	60126	
90461		14589	PATRIOT A DIVISION OF JANSSEN INC	DIN OWNER	Y	N	Y			19 GREEN BELT DRIVE	TORONTO	ONTARIO	CANADA	M3C 1L9	
90462		14589	PATRIOT A DIVISION OF JANSSEN INC	DIN OWNER	Y	N	Y			19 GREEN BELT DRIVE	TORONTO	ONTARIO	CANADA	M3C 1L9	
90463		14589	PATRIOT A DIVISION OF JANSSEN INC	DIN OWNER	Y	N	Y			19 GREEN BELT DRIVE	TORONTO	ONTARIO	CANADA	M3C 1L9	
90468	CIE95	3900	"CCA INDUSTRIES, INC."	DIN OWNER	Y	Y	Y	N		"65 CHALLENGER ROAD, SUITE 340"	RIDGEFIELD PARK	NEW JERSEY	UNITED STATES	7660	
90481		13930	MYLAN PHARMACEUTICALS ULC	DIN OWNER	Y	Y	Y			85 ADVANCE ROAD	ETOBICOKE	ONTARIO	CANADA	M8Z 2S6	
90483		11271	RANBAXY PHARMACEUTICALS CANADA INC.	DIN OWNER	Y	Y	Y			126 EAST DRIVE	BRAMPTON	ONTARIO	CANADA	L6T 1C1	
90484		11271	RANBAXY PHARMACEUTICALS CANADA INC.	DIN OWNER	Y	Y	Y			126 EAST DRIVE	BRAMPTON	ONTARIO	CANADA	L6T 1C1	
90509		14318	TEVA CANADA LIMITED	DIN OWNER	Y	Y	N			30 NOVOPHARM COURT	TORONTO	ONTARIO	CANADA	M1B 2K9	
90521		12428	SANOFI PASTEUR LIMITED	DIN OWNER	Y	Y	Y			1755 STEELES AVENUE WEST	TORONTO	ONTARIO	CANADA	M2R 3T4	
90522		12428	SANOFI PASTEUR LIMITED	DIN OWNER	Y	Y	Y			1755 STEELES AVENUE WEST	TORONTO	ONTARIO	CANADA	M2R 3T4	
90523		12428	SANOFI PASTEUR LIMITED	DIN OWNER	Y	Y	Y			1755 STEELES AVENUE WEST	TORONTO	ONTARIO	CANADA	M2R 3T4	
90525	JPC10	4415	JAMP PHARMA CORPORATION	DIN OWNER	Y	Y	Y	N		1310 RUE NOBEL	BOUCHERVILLE	QUEBEC	CANADA	J4B 5H3	
90528	ODN07	4835	ODAN LABORATORIES LTD	DIN OWNER	Y	Y	Y	N		325 STILLVIEW AVENUE	POINTE-CLAIRE	QUEBEC	CANADA	H9R 2Y6	
90529	ODN07	4835	ODAN LABORATORIES LTD	DIN OWNER	Y	Y	Y	N		325 STILLVIEW AVENUE	POINTE-CLAIRE	QUEBEC	CANADA	H9R 2Y6	
90532		14907	MARCAN PHARMACEUTICALS INC	DIN OWNER	Y	N	N		SUITE 4	77 AURIGA DRIVE	OTTAWA	ONTARIO	CANADA	K2E 7Z7	
90533		14907	MARCAN PHARMACEUTICALS INC	DIN OWNER	Y	N	N		SUITE 4	77 AURIGA DRIVE	OTTAWA	ONTARIO	CANADA	K2E 7Z7	
90534		14907	MARCAN PHARMACEUTICALS INC	DIN OWNER	Y	N	N		SUITE 4	77 AURIGA DRIVE	OTTAWA	ONTARIO	CANADA	K2E 7Z7	
90536		14907	MARCAN PHARMACEUTICALS INC	DIN OWNER	Y	N	N		SUITE 4	77 AURIGA DRIVE	OTTAWA	ONTARIO	CANADA	K2E 7Z7	
90537		14907	MARCAN PHARMACEUTICALS INC	DIN OWNER	Y	N	N		SUITE 4	77 AURIGA DRIVE	OTTAWA	ONTARIO	CANADA	K2E 7Z7	
90551	PMT07	4933	PHARMETICS (2011) INC	DIN OWNER	Y	Y	Y	N		3695 AUTOROUTE DES LAURENTIDES	LAVAL	QUEBEC	CANADA	H7L 3H7	
90556		13930	MYLAN PHARMACEUTICALS ULC	DIN OWNER	Y	Y	Y			85 ADVANCE ROAD	ETOBICOKE	ONTARIO	CANADA	M8Z 2S6	
90559		14907	MARCAN PHARMACEUTICALS INC	DIN OWNER	Y	N	N		SUITE 4	77 AURIGA DRIVE	OTTAWA	ONTARIO	CANADA	K2E 7Z7	
90560		14907	MARCAN PHARMACEUTICALS INC	DIN OWNER	Y	N	N		SUITE 4	77 AURIGA DRIVE	OTTAWA	ONTARIO	CANADA	K2E 7Z7	
90561		14907	MARCAN PHARMACEUTICALS INC	DIN OWNER	Y	N	N		SUITE 4	77 AURIGA DRIVE	OTTAWA	ONTARIO	CANADA	K2E 7Z7	
90569		13930	MYLAN PHARMACEUTICALS ULC	DIN OWNER	Y	Y	Y			85 ADVANCE ROAD	ETOBICOKE	ONTARIO	CANADA	M8Z 2S6	
90572		14907	MARCAN PHARMACEUTICALS INC	DIN OWNER	Y	N	N		SUITE 4	77 AURIGA DRIVE	OTTAWA	ONTARIO	CANADA	K2E 7Z7	
90573		15697	LABORATORIOS GRIFOLS S.A.	DIN OWNER	Y	N	Y			"CAN GUASCH, 2"	PARETS DEL VALLES	BARCELONA	SPAIN	8150	
90574		13221	MINT PHARMACEUTICALS INC	DIN OWNER	Y	Y	Y		UNIT 1	1093 MEYERSIDE DRIVE	MISSISSAUGA	ONTARIO	CANADA	L5T 1J6	
90575		15697	LABORATORIOS GRIFOLS S.A.	DIN OWNER	Y	N	Y			"CAN GUASCH, 2"	PARETS DEL VALLES	BARCELONA	SPAIN	8150	
90576		14803	JUBILANT GENERICS LIMITED	DIN OWNER	Y	Y	N			"1A, SECTOR 16A INSTITUTIONAL AREA"	NOIDA	UTTAR PRADESH	INDIA	201301	
90577		14803	JUBILANT GENERICS LIMITED	DIN OWNER	Y	Y	N			"1A, SECTOR 16A INSTITUTIONAL AREA"	NOIDA	UTTAR PRADESH	INDIA	201301	
90579	PGA08	4911	PROCTER & GAMBLE INC	DIN OWNER	Y	N	N	N		4711 YONGE STREET	TORONTO	ONTARIO	CANADA	M2N 6K8	
90592		14907	MARCAN PHARMACEUTICALS INC	DIN OWNER	Y	N	N		SUITE 4	77 AURIGA DRIVE	OTTAWA	ONTARIO	CANADA	K2E 7Z7	
90593		13221	MINT PHARMACEUTICALS INC	DIN OWNER	Y	Y	Y		UNIT 1	1093 MEYERSIDE DRIVE	MISSISSAUGA	ONTARIO	CANADA	L5T 1J6	
90606		16778	GLENMARK PHARMACEUTICALS CANADA INC.	DIN OWNER	Y	N	N			"500 KING STREET W, 3RD FLOOR, SUITE 300"	TORONTO	ONTARIO	CANADA	M5V 1L9	
90607		16778	GLENMARK PHARMACEUTICALS CANADA INC.	DIN OWNER	Y	N	N			"500 KING STREET W, 3RD FLOOR, SUITE 300"	TORONTO	ONTARIO	CANADA	M5V 1L9	
90608		11271	RANBAXY PHARMACEUTICALS CANADA INC.	DIN OWNER	Y	Y	Y			126 EAST DRIVE	BRAMPTON	ONTARIO	CANADA	L6T 1C1	
90609		11271	RANBAXY PHARMACEUTICALS CANADA INC.	DIN OWNER	Y	Y	Y			126 EAST DRIVE	BRAMPTON	ONTARIO	CANADA	L6T 1C1	
90612		11271	RANBAXY PHARMACEUTICALS CANADA INC.	DIN OWNER	Y	Y	Y			126 EAST DRIVE	BRAMPTON	ONTARIO	CANADA	L6T 1C1	
90613		11271	RANBAXY PHARMACEUTICALS CANADA INC.	DIN OWNER	Y	Y	Y			126 EAST DRIVE	BRAMPTON	ONTARIO	CANADA	L6T 1C1	
90621		15633	NATCO PHARMA (CANADA) INC	DIN OWNER	Y	Y	Y		116	2550 ARGENTIA ROAD	MISSISSAUGA	ONTARIO	CANADA	L5N 5R1	
90622		15633	NATCO PHARMA (CANADA) INC	DIN OWNER	Y	Y	Y		116	2550 ARGENTIA ROAD	MISSISSAUGA	ONTARIO	CANADA	L5N 5R1	
90638		12027	SANDOZ CANADA INCORPORATED	DIN OWNER	Y	Y	Y			145 JULES-LÉGER STREET	BOUCHERVILLE	QUEBEC	CANADA	J4B 7K8	
90657		14907	MARCAN PHARMACEUTICALS INC	DIN OWNER	Y	N	N		SUITE 4	77 AURIGA DRIVE	OTTAWA	ONTARIO	CANADA	K2E 7Z7	
90658		14907	MARCAN PHARMACEUTICALS INC	DIN OWNER	Y	N	N		SUITE 4	77 AURIGA DRIVE	OTTAWA	ONTARIO	CANADA	K2E 7Z7	
90659		14907	MARCAN PHARMACEUTICALS INC	DIN OWNER	Y	N	N		SUITE 4	77 AURIGA DRIVE	OTTAWA	ONTARIO	CANADA	K2E 7Z7	
90660		14907	MARCAN PHARMACEUTICALS INC	DIN OWNER	Y	N	N		SUITE 4	77 AURIGA DRIVE	OTTAWA	ONTARIO	CANADA	K2E 7Z7	
90665		14365	OLEHENRIKSEN	DIN OWNER	Y	N	N			"425 MARKET STREET, 19TH FLOOR"	SAN FRANCISCO	CALIFORNIA	UNITED STATES	94105	
90674	OMG07	4852	OMEGA LABORATORIES LTD	DIN OWNER	Y	Y	Y	N		11177 HAMON	MONTREAL	QUEBEC	CANADA	H3M 3E4	
90685		14365	OLEHENRIKSEN	DIN OWNER	Y	N	N			"425 MARKET STREET, 19TH FLOOR"	SAN FRANCISCO	CALIFORNIA	UNITED STATES	94105	
90686		12573	GE HEALTHCARE CANADA INC	DIN OWNER	Y	Y	Y			2300 MEADOWVALE BLVD	MISSISSAUGA	ONTARIO	CANADA	L5N 5P9	
90696		14907	MARCAN PHARMACEUTICALS INC	DIN OWNER	Y	N	N		SUITE 4	77 AURIGA DRIVE	OTTAWA	ONTARIO	CANADA	K2E 7Z7	
90703		16071	PATCO MANAGEMENT INC	DIN OWNER	Y	N	N			"#3, 250 SHIELDS COURT"	MARKHAM	ONTARIO	CANADA	L3R 9W7	
90707		12941	NSE PRODUCTS INC.	DIN OWNER	Y	N	N			75 WEST CENTER ST.	PROVO	UTAH	UNITED STATES	84601	
90708	JAJ07	4402	JOHNSON & JOHNSON INC	DIN OWNER	Y	Y	Y	N		88 MCNABB STREET	MARKHAM	ONTARIO	CANADA	L3R 5L2	
90709		10577	CHIEF MEDICAL SUPPLIES LTD	DIN OWNER	Y	Y	Y			411-19 ST SE	CALGARY	ALBERTA	CANADA	T2E 6J7	
90710		10577	CHIEF MEDICAL SUPPLIES LTD	DIN OWNER	Y	Y	Y			411-19 ST SE	CALGARY	ALBERTA	CANADA	T2E 6J7	
90713		15469	CIEL VERT INTERNATIONAL	DIN OWNER	Y	N	N			33 ROUTE DE LAVAUR	L'UNION	HAUTE-GARONNE	FRANCE	31240	
90715		14907	MARCAN PHARMACEUTICALS INC	DIN OWNER	Y	N	N		SUITE 4	77 AURIGA DRIVE	OTTAWA	ONTARIO	CANADA	K2E 7Z7	
90716		14907	MARCAN PHARMACEUTICALS INC	DIN OWNER	Y	N	N		SUITE 4	77 AURIGA DRIVE	OTTAWA	ONTARIO	CANADA	K2E 7Z7	
90717		14907	MARCAN PHARMACEUTICALS INC	DIN OWNER	Y	N	N		SUITE 4	77 AURIGA DRIVE	OTTAWA	ONTARIO	CANADA	K2E 7Z7	
90719		14907	MARCAN PHARMACEUTICALS INC	DIN OWNER	Y	N	N		SUITE 4	77 AURIGA DRIVE	OTTAWA	ONTARIO	CANADA	K2E 7Z7	
90720		14907	MARCAN PHARMACEUTICALS INC	DIN OWNER	Y	N	N		SUITE 4	77 AURIGA DRIVE	OTTAWA	ONTARIO	CANADA	K2E 7Z7	
90721		14907	MARCAN PHARMACEUTICALS INC	DIN OWNER	Y	N	N		SUITE 4	77 AURIGA DRIVE	OTTAWA	ONTARIO	CANADA	K2E 7Z7	
90724		10577	CHIEF MEDICAL SUPPLIES LTD	DIN OWNER	Y	Y	Y			411-19 ST SE	CALGARY	ALBERTA	CANADA	T2E 6J7	
90725		10577	CHIEF MEDICAL SUPPLIES LTD	DIN OWNER	Y	Y	Y			411-19 ST SE	CALGARY	ALBERTA	CANADA	T2E 6J7	
90726		10577	CHIEF MEDICAL SUPPLIES LTD	DIN OWNER	Y	Y	Y			411-19 ST SE	CALGARY	ALBERTA	CANADA	T2E 6J7	
90727		10577	CHIEF MEDICAL SUPPLIES LTD	DIN OWNER	Y	Y	Y			411-19 ST SE	CALGARY	ALBERTA	CANADA	T2E 6J7	
90730		10577	CHIEF MEDICAL SUPPLIES LTD	DIN OWNER	Y	Y	Y			411-19 ST SE	CALGARY	ALBERTA	CANADA	T2E 6J7	
90731		10577	CHIEF MEDICAL SUPPLIES LTD	DIN OWNER	Y	Y	Y			411-19 ST SE	CALGARY	ALBERTA	CANADA	T2E 6J7	
90734		8581	CHEMSTAR CORPORATION	DIN OWNER	Y	Y	N	N	SUITE 100	120 INTERSTATE WEST PARKWAY	LITHIA SPRINGS	GEORGIA	UNITED STATES	30122	
90740		8612	ACCUCAPS INDUSTRIES LIMITED	DIN OWNER	Y	Y	N			2125 AMBASSADOR DRIVE	WINDSOR	ONTARIO	CANADA	N9C 3R5	
90748	RIV07	5034	LABORATOIRE RIVA INC	DIN OWNER	Y	Y	N	N		660 BOUL. INDUSTRIEL	BLAINVILLE	QUEBEC	CANADA	J7C 3V4	
90749	RIV07	5034	LABORATOIRE RIVA INC	DIN OWNER	Y	Y	N	N		660 BOUL. INDUSTRIEL	BLAINVILLE	QUEBEC	CANADA	J7C 3V4	
90750		13930	MYLAN PHARMACEUTICALS ULC	DIN OWNER	Y	Y	Y			85 ADVANCE ROAD	ETOBICOKE	ONTARIO	CANADA	M8Z 2S6	
90751		13930	MYLAN PHARMACEUTICALS ULC	DIN OWNER	Y	Y	Y			85 ADVANCE ROAD	ETOBICOKE	ONTARIO	CANADA	M8Z 2S6	
90754	PFI07	4908	PFIZER CANADA INC	DIN OWNER	Y	Y	Y	N		17300 TRANS-CANADA HIGHWAY	KIRKLAND	QUEBEC	CANADA	H9J 2M5	
90755	PFI07	4908	PFIZER CANADA INC	DIN OWNER	Y	Y	Y	N		17300 TRANS-CANADA HIGHWAY	KIRKLAND	QUEBEC	CANADA	H9J 2M5	
90756		8482	BIOGEN CANADA INC	DIN OWNER	Y	Y	Y	N		"90 BURNHAMTHORPE ROAD WEST, SUITE 1100"	MISSISSAUGA	ONTARIO	CANADA	L5B 3C3	
90763	JPC10	4415	JAMP PHARMA CORPORATION	DIN OWNER	Y	Y	Y	N		1310 RUE NOBEL	BOUCHERVILLE	QUEBEC	CANADA	J4B 5H3	
90774		15715	BIOQUELL INC	DIN OWNER	Y	Y	Y			702 ELECTRONIC DRIVE	HORSHAM	PENNSYLVANIA	UNITED STATES	19044	
90777	NVR07	7277	NOVARTIS PHARMACEUTICALS CANADA INC	DIN OWNER	Y	Y	Y	N		385 BOUCHARD BLVD	DORVAL	QUEBEC	CANADA	H9S 1A9	
90778		14907	MARCAN PHARMACEUTICALS INC	DIN OWNER	Y	N	N		SUITE 4	77 AURIGA DRIVE	OTTAWA	ONTARIO	CANADA	K2E 7Z7	
90779		14907	MARCAN PHARMACEUTICALS INC	DIN OWNER	Y	N	N		SUITE 4	77 AURIGA DRIVE	OTTAWA	ONTARIO	CANADA	K2E 7Z7	
90781		14055	PROCESS CLEANING SOLUTIONS LTD	DIN OWNER	Y	Y	N			2060 FISHER DRIVE	PETERBOROUGH	ONTARIO	CANADA	K9J 8N4	3000
90782		14055	PROCESS CLEANING SOLUTIONS LTD	DIN OWNER	Y	Y	N			2060 FISHER DRIVE	PETERBOROUGH	ONTARIO	CANADA	K9J 8N4	3000
90783		14055	PROCESS CLEANING SOLUTIONS LTD	DIN OWNER	Y	Y	N			2060 FISHER DRIVE	PETERBOROUGH	ONTARIO	CANADA	K9J 8N4	3000
90784		14055	PROCESS CLEANING SOLUTIONS LTD	DIN OWNER	Y	Y	N			2060 FISHER DRIVE	PETERBOROUGH	ONTARIO	CANADA	K9J 8N4	3000
90785		14055	PROCESS CLEANING SOLUTIONS LTD	DIN OWNER	Y	Y	N			2060 FISHER DRIVE	PETERBOROUGH	ONTARIO	CANADA	K9J 8N4	3000
90786		14055	PROCESS CLEANING SOLUTIONS LTD	DIN OWNER	Y	Y	N			2060 FISHER DRIVE	PETERBOROUGH	ONTARIO	CANADA	K9J 8N4	3000
90788		14055	PROCESS CLEANING SOLUTIONS LTD	DIN OWNER	Y	Y	N			2060 FISHER DRIVE	PETERBOROUGH	ONTARIO	CANADA	K9J 8N4	3000
90789		14055	PROCESS CLEANING SOLUTIONS LTD	DIN OWNER	Y	Y	N			2060 FISHER DRIVE	PETERBOROUGH	ONTARIO	CANADA	K9J 8N4	3000
90790		14055	PROCESS CLEANING SOLUTIONS LTD	DIN OWNER	Y	Y	N			2060 FISHER DRIVE	PETERBOROUGH	ONTARIO	CANADA	K9J 8N4	3000
90791	DIV08	4044	DIVERSEY INC	DIN OWNER	Y	N	N	N		P.O. BOX 19747	CHARLOTTE	NORTH CAROLINA	UNITED STATES	28219	
90792	DIV08	4044	DIVERSEY INC	DIN OWNER	Y	N	N	N		P.O. BOX 19747	CHARLOTTE	NORTH CAROLINA	UNITED STATES	28219	
90794	REK07	5010	RECKITT BENCKISER (CANADA) INC	DIN OWNER	Y	Y	Y	N	UNIT #2	1680 TECH AVENUE	MISSISSAUGA	ONTARIO	CANADA	L4W 5S9	
90796	JPC10	4415	JAMP PHARMA CORPORATION	DIN OWNER	Y	Y	Y	N		1310 RUE NOBEL	BOUCHERVILLE	QUEBEC	CANADA	J4B 5H3	
90801		12027	SANDOZ CANADA INCORPORATED	DIN OWNER	Y	Y	Y			145 JULES-LÉGER STREET	BOUCHERVILLE	QUEBEC	CANADA	J4B 7K8	
90809		10846	NICE-PAK PRODUCTS INC	DIN OWNER	Y	Y	Y			TWO NICE PAK PARK	ORANGEBURG	NEW YORK	UNITED STATES	10962-1376	
90810	APX08	3636	APOTEX INC	DIN OWNER	Y	Y	Y	N		150 SIGNET DRIVE	TORONTO	ONTARIO	CANADA	M9L 1T9	
90811	APX08	3636	APOTEX INC	DIN OWNER	Y	Y	Y	N		150 SIGNET DRIVE	TORONTO	ONTARIO	CANADA	M9L 1T9	
90819		14907	MARCAN PHARMACEUTICALS INC	DIN OWNER	Y	N	N		SUITE 4	77 AURIGA DRIVE	OTTAWA	ONTARIO	CANADA	K2E 7Z7	
90821		14907	MARCAN PHARMACEUTICALS INC	DIN OWNER	Y	N	N		SUITE 4	77 AURIGA DRIVE	OTTAWA	ONTARIO	CANADA	K2E 7Z7	
90824		15772	ACTAVIS PHARMA COMPANY	DIN OWNER	Y	Y	Y			"6733 MISSISSAUGA ROAD, SUITE 400"	MISSISSAUGA	ONTARIO	CANADA	L5N 6J5	
90825		15772	ACTAVIS PHARMA COMPANY	DIN OWNER	Y	Y	Y			"6733 MISSISSAUGA ROAD, SUITE 400"	MISSISSAUGA	ONTARIO	CANADA	L5N 6J5	
90832		16123	ATOMY CO. LTD.	DIN OWNER	Y	Y	Y			52-101 HANJEOK 2-GIL	GONGJU-SI	CHUNGCHEONGNAMDO	"KOREA, REPUBLIC OF"	314-140	
90833		16123	ATOMY CO. LTD.	DIN OWNER	Y	Y	Y			52-101 HANJEOK 2-GIL	GONGJU-SI	CHUNGCHEONGNAMDO	"KOREA, REPUBLIC OF"	314-140	
90838		14973	THERATECHNOLOGIES INC	DIN OWNER	Y	N	N			"2015 PEEL STREET, 5TH FLOOR"	MONTREAL	QUEBEC	CANADA	H3A 1T8	
90841		16123	ATOMY CO. LTD.	DIN OWNER	Y	Y	Y			52-101 HANJEOK 2-GIL	GONGJU-SI	CHUNGCHEONGNAMDO	"KOREA, REPUBLIC OF"	314-140	
90847		16555	FRESENIUS KABI CANADA LTD	DIN OWNER	Y	Y	Y			"165 GALAXY BLVD, SUITE 100"	TORONTO	ONTARIO	CANADA	M9W 0C8	
90848		16555	FRESENIUS KABI CANADA LTD	DIN OWNER	Y	Y	Y			"165 GALAXY BLVD, SUITE 100"	TORONTO	ONTARIO	CANADA	M9W 0C8	
90849	MCL08	4569	MCNEIL CONSUMER HEALTHCARE DIVISION OF JOHNSON & JOHNSON INC	DIN OWNER	Y	Y	Y	N		88 MCNABB STREET	MARKHAM	ONTARIO	CANADA	L3R 5L2	
90853		13930	MYLAN PHARMACEUTICALS ULC	DIN OWNER	Y	Y	Y			85 ADVANCE ROAD	ETOBICOKE	ONTARIO	CANADA	M8Z 2S6	
90855		14281	ENVIROCARE CORPORATION	DIN OWNER	Y	Y	N			10 UPTON DRIVE	WILMINGTON	MASSACHUSETTS	UNITED STATES	1887	
90876		14907	MARCAN PHARMACEUTICALS INC	DIN OWNER	Y	N	N		SUITE 4	77 AURIGA DRIVE	OTTAWA	ONTARIO	CANADA	K2E 7Z7	
90877		14907	MARCAN PHARMACEUTICALS INC	DIN OWNER	Y	N	N		SUITE 4	77 AURIGA DRIVE	OTTAWA	ONTARIO	CANADA	K2E 7Z7	
90882		11979	AURO PHARMA INC	DIN OWNER	Y	Y	Y			"3700 STEELES AVENUE WEST, SUITE 402"	WOODBRIDGE	ONTARIO	CANADA	L4L 8K8	
90883		15415	ALEMBIC PHARMACEUTICALS LIMITED	DIN OWNER	Y	Y	Y			ALEMBIC ROAD	VADODARA	GUJARAT	INDIA	390003	
90884		15415	ALEMBIC PHARMACEUTICALS LIMITED	DIN OWNER	Y	Y	Y			ALEMBIC ROAD	VADODARA	GUJARAT	INDIA	390003	
90891		13221	MINT PHARMACEUTICALS INC	DIN OWNER	Y	Y	Y		UNIT 1	1093 MEYERSIDE DRIVE	MISSISSAUGA	ONTARIO	CANADA	L5T 1J6	
90893		13221	MINT PHARMACEUTICALS INC	DIN OWNER	Y	Y	Y		UNIT 1	1093 MEYERSIDE DRIVE	MISSISSAUGA	ONTARIO	CANADA	L5T 1J6	
90894		13221	MINT PHARMACEUTICALS INC	DIN OWNER	Y	Y	Y		UNIT 1	1093 MEYERSIDE DRIVE	MISSISSAUGA	ONTARIO	CANADA	L5T 1J6	
90895		13221	MINT PHARMACEUTICALS INC	DIN OWNER	Y	Y	Y		UNIT 1	1093 MEYERSIDE DRIVE	MISSISSAUGA	ONTARIO	CANADA	L5T 1J6	
90899		14586	LUPIN LIMITED	DIN OWNER	Y	Y	Y			"KALPATARU INSPIRE, 3RD FLOOR, OFF WESTERN HIGHWAY, SANTACRUZ  EAST"	MUMBAI	MAHARASHTRA	INDIA	400055	
90900		14586	LUPIN LIMITED	DIN OWNER	Y	Y	Y			"KALPATARU INSPIRE, 3RD FLOOR, OFF WESTERN HIGHWAY, SANTACRUZ  EAST"	MUMBAI	MAHARASHTRA	INDIA	400055	
90901	PDL07	4901	PRO DOC LIMITEE	DIN OWNER	Y	Y	N	N		2925 BOULEVARD INDUSTRIEL	LAVAL	QUEBEC	CANADA	H7L 3W9	
90906	VYC07	5381	VICHY CANADA	DIN OWNER	Y	N	N	N		4895 HICKMORE	MONTREAL	QUEBEC	CANADA	H4T 1K5	
90914		16866	JAI PHARMA LIMITED	DIN OWNER	Y	Y	Y			"BRADY HOUSE, 2CND FLOOR, 12/14 VEER NARIMAN ROAD, FORT"	MUMBAI	MAHARASHTRA	INDIA	400001	
90915		16866	JAI PHARMA LIMITED	DIN OWNER	Y	Y	Y			"BRADY HOUSE, 2CND FLOOR, 12/14 VEER NARIMAN ROAD, FORT"	MUMBAI	MAHARASHTRA	INDIA	400001	
90916	PMS07	3550	PHARMASCIENCE INC	DIN OWNER	Y	Y	Y	N	100	"6111, ROYALMOUNT AVENUE"	MONTREAL	QUEBEC	CANADA	H4P 2T4	
90918		13930	MYLAN PHARMACEUTICALS ULC	DIN OWNER	Y	Y	Y			85 ADVANCE ROAD	ETOBICOKE	ONTARIO	CANADA	M8Z 2S6	
90919		13930	MYLAN PHARMACEUTICALS ULC	DIN OWNER	Y	Y	Y			85 ADVANCE ROAD	ETOBICOKE	ONTARIO	CANADA	M8Z 2S6	
90925	VKE95	7060	VIRBAC AH INC	DIN OWNER	Y	N	N	N		3200 MEACHAM BOULEVARD	FORT WORTH	TEXAS	UNITED STATES	76137	
90931	APX08	3636	APOTEX INC	DIN OWNER	Y	Y	Y	N		150 SIGNET DRIVE	TORONTO	ONTARIO	CANADA	M9L 1T9	
90932		15279	ZINDA PHARMA LIMITED	DIN OWNER	Y	Y	Y			4103 SHERBROOKE STREET WEST	MONTREAL	QUEBEC	CANADA	H3Z 1A7	
90933		15279	ZINDA PHARMA LIMITED	DIN OWNER	Y	Y	Y			4103 SHERBROOKE STREET WEST	MONTREAL	QUEBEC	CANADA	H3Z 1A7	
90935		13389	VI-JON INC	DIN OWNER	Y	Y	N			8800 PAGE AVENUE	ST.LOUIS	MISSOURI	UNITED STATES	63114	
90938	REK07	5010	RECKITT BENCKISER (CANADA) INC	DIN OWNER	Y	Y	Y	N	UNIT #2	1680 TECH AVENUE	MISSISSAUGA	ONTARIO	CANADA	L4W 5S9	
90939	REK07	5010	RECKITT BENCKISER (CANADA) INC	DIN OWNER	Y	Y	Y	N	UNIT #2	1680 TECH AVENUE	MISSISSAUGA	ONTARIO	CANADA	L4W 5S9	
90940	REK07	5010	RECKITT BENCKISER (CANADA) INC	DIN OWNER	Y	Y	Y	N	UNIT #2	1680 TECH AVENUE	MISSISSAUGA	ONTARIO	CANADA	L4W 5S9	
90941	REK07	5010	RECKITT BENCKISER (CANADA) INC	DIN OWNER	Y	Y	Y	N	UNIT #2	1680 TECH AVENUE	MISSISSAUGA	ONTARIO	CANADA	L4W 5S9	
90942		9071	THE CLOROX COMPANY OF CANADA LTD	DIN OWNER	Y	Y	Y			150 BISCAYNE CRESCENT	BRAMPTON	ONTARIO	CANADA	L6W 4V3	
90949		16377	CAI-PAN GMBH & CO KG	DIN OWNER	Y	Y	Y			FLURSTRASSE 3	HAHNBACH	BAVARIA	GERMANY	92256	
90956		13985	GENERIC MEDICAL PARTNERS INC	DIN OWNER	Y	Y	Y		SUITE 1200	251 CONSUMERS ROAD	TORONTO	ONTARIO	CANADA	M2J 4R3	
90980	PFR08	7054	PURDUE PHARMA	DIN OWNER	Y	Y	Y	N		575 GRANITE COURT	PICKERING	ONTARIO	CANADA	L1W 3W8	
91000		15846	ECL PHARMA GROUP LTD	DIN OWNER	Y	Y	Y			"1100 CENTRAL PARKWAY WEST, UNIT 38, SUITE 200"	MISSISSAUGA	ONTARIO	CANADA	L5C 4E5	
91001		15846	ECL PHARMA GROUP LTD	DIN OWNER	Y	Y	Y			"1100 CENTRAL PARKWAY WEST, UNIT 38, SUITE 200"	MISSISSAUGA	ONTARIO	CANADA	L5C 4E5	
91020		16176	YSL BEAUTÉ CANADA	DIN OWNER	Y	Y	N			4895 HICKMORE	MONTREAL	QUEBEC	CANADA	H4T 1K5	
91038		15415	ALEMBIC PHARMACEUTICALS LIMITED	DIN OWNER	Y	Y	Y			ALEMBIC ROAD	VADODARA	GUJARAT	INDIA	390003	
91051		14907	MARCAN PHARMACEUTICALS INC	DIN OWNER	Y	N	N		SUITE 4	77 AURIGA DRIVE	OTTAWA	ONTARIO	CANADA	K2E 7Z7	
91058		14907	MARCAN PHARMACEUTICALS INC	DIN OWNER	Y	N	N		SUITE 4	77 AURIGA DRIVE	OTTAWA	ONTARIO	CANADA	K2E 7Z7	
91059		14907	MARCAN PHARMACEUTICALS INC	DIN OWNER	Y	N	N		SUITE 4	77 AURIGA DRIVE	OTTAWA	ONTARIO	CANADA	K2E 7Z7	
91060		14907	MARCAN PHARMACEUTICALS INC	DIN OWNER	Y	N	N		SUITE 4	77 AURIGA DRIVE	OTTAWA	ONTARIO	CANADA	K2E 7Z7	
91063		9071	THE CLOROX COMPANY OF CANADA LTD	DIN OWNER	Y	Y	Y			150 BISCAYNE CRESCENT	BRAMPTON	ONTARIO	CANADA	L6W 4V3	
91064		16197	B. BRAUN MEDICAL AG	DIN OWNER	Y	N	Y			17 SEESATZ	SEMPACH	LUZERN	SWITZERLAND	6204	
91067	PGA08	4911	PROCTER & GAMBLE INC	DIN OWNER	Y	N	N	N		4711 YONGE STREET	TORONTO	ONTARIO	CANADA	M2N 6K8	
91068	PGA08	4911	PROCTER & GAMBLE INC	DIN OWNER	Y	N	N	N		4711 YONGE STREET	TORONTO	ONTARIO	CANADA	M2N 6K8	
91071		16098	GMS SURFACE TECH LIMITED	DIN OWNER	Y	Y	Y			47 PONDEROSA DRIVE	ANTIGONISH	NOVA SCOTIA	CANADA	B2G 2R4	
91072		15415	ALEMBIC PHARMACEUTICALS LIMITED	DIN OWNER	Y	Y	Y			ALEMBIC ROAD	VADODARA	GUJARAT	INDIA	390003	
91073		15415	ALEMBIC PHARMACEUTICALS LIMITED	DIN OWNER	Y	Y	Y			ALEMBIC ROAD	VADODARA	GUJARAT	INDIA	390003	
91088		13393	BIOSYENT PHARMA INC	DIN OWNER	Y	Y	Y		SUITE 520	170 ATTWELL DRIVE	TORONTO	ONTARIO	CANADA	M9W 5Z5	
91091		8612	ACCUCAPS INDUSTRIES LIMITED	DIN OWNER	Y	Y	N			2125 AMBASSADOR DRIVE	WINDSOR	ONTARIO	CANADA	N9C 3R5	
91092		8612	ACCUCAPS INDUSTRIES LIMITED	DIN OWNER	Y	Y	N			2125 AMBASSADOR DRIVE	WINDSOR	ONTARIO	CANADA	N9C 3R5	
91099		11211	VALEO PHARMA INC	DIN OWNER	Y	Y	N			16667 HYMUS BLVD.	KIRKLAND	QUEBEC	CANADA	H9H 4R9	
91100		15668	THORN BIOSCIENCE LLC	DIN OWNER	Y	Y	Y			1044 EAST CHESTNUT STREET	LOUISVILLE	KENTUCKY	UNITED STATES	40204	
91112		17122	THE PROACTIV COMPANY LLC	DIN OWNER	Y	Y	N		1400	"100 N SEPULVEDA BLVD	"	EL SEGUNDO	CALIFORNIA	UNITED STATES	90245	
91123		15112	SANOFI CONSUMER HEALTH INC SANOFI SANTE GRAND PUBLIC INC	DIN OWNER	Y	Y	Y			2905 PLACE LOUIS-R RENAUD	LAVAL	QUEBEC	CANADA	H7V 0A3	
91124		15112	SANOFI CONSUMER HEALTH INC SANOFI SANTE GRAND PUBLIC INC	DIN OWNER	Y	Y	Y			2905 PLACE LOUIS-R RENAUD	LAVAL	QUEBEC	CANADA	H7V 0A3	
91131		9071	THE CLOROX COMPANY OF CANADA LTD	DIN OWNER	Y	Y	Y			150 BISCAYNE CRESCENT	BRAMPTON	ONTARIO	CANADA	L6W 4V3	
91134		14962	JUBILANT HOLLISTERSTIER LLC	DIN OWNER	Y	Y	Y			3525 NORTH REGAL STREET	SPOKANE	WASHINGTON	UNITED STATES	99207	
91139		14236	SANIS HEALTH INC	DIN OWNER	Y	N	N			1 PRESIDENTS CHOICE CIRCLE	BRAMPTON	ONTARIO	CANADA	L6Y 5S5	
91140		14236	SANIS HEALTH INC	DIN OWNER	Y	N	N			1 PRESIDENTS CHOICE CIRCLE	BRAMPTON	ONTARIO	CANADA	L6Y 5S5	
91156		16351	VANC PHARMACEUTICALS INC	DIN OWNER	Y	N	N			"2639 VIKING WAY, UNIT 210"	RICHMOND	BRITISH COLUMBIA	CANADA	V6V 3B7	
91157		16351	VANC PHARMACEUTICALS INC	DIN OWNER	Y	N	N			"2639 VIKING WAY, UNIT 210"	RICHMOND	BRITISH COLUMBIA	CANADA	V6V 3B7	
91158		16351	VANC PHARMACEUTICALS INC	DIN OWNER	Y	N	N			"2639 VIKING WAY, UNIT 210"	RICHMOND	BRITISH COLUMBIA	CANADA	V6V 3B7	
91159		16351	VANC PHARMACEUTICALS INC	DIN OWNER	Y	N	N			"2639 VIKING WAY, UNIT 210"	RICHMOND	BRITISH COLUMBIA	CANADA	V6V 3B7	
91160		16351	VANC PHARMACEUTICALS INC	DIN OWNER	Y	N	N			"2639 VIKING WAY, UNIT 210"	RICHMOND	BRITISH COLUMBIA	CANADA	V6V 3B7	
91165		14907	MARCAN PHARMACEUTICALS INC	DIN OWNER	Y	N	N		SUITE 4	77 AURIGA DRIVE	OTTAWA	ONTARIO	CANADA	K2E 7Z7	
91168		14236	SANIS HEALTH INC	DIN OWNER	Y	N	N			1 PRESIDENTS CHOICE CIRCLE	BRAMPTON	ONTARIO	CANADA	L6Y 5S5	
91174		11656	PENDOPHARM DIVISION OF DE PHARMASCIENCE INC	DIN OWNER	Y	Y	Y		SUITE 100	"6111, AVENUE ROYALMOUNT"	MONTREAL	QUEBEC	CANADA	H4P 2T4	
91175		11656	PENDOPHARM DIVISION OF DE PHARMASCIENCE INC	DIN OWNER	Y	Y	Y		SUITE 100	"6111, AVENUE ROYALMOUNT"	MONTREAL	QUEBEC	CANADA	H4P 2T4	
91176		11656	PENDOPHARM DIVISION OF DE PHARMASCIENCE INC	DIN OWNER	Y	Y	Y		SUITE 100	"6111, AVENUE ROYALMOUNT"	MONTREAL	QUEBEC	CANADA	H4P 2T4	
91177		11656	PENDOPHARM DIVISION OF DE PHARMASCIENCE INC	DIN OWNER	Y	Y	Y		SUITE 100	"6111, AVENUE ROYALMOUNT"	MONTREAL	QUEBEC	CANADA	H4P 2T4	
91178		11656	PENDOPHARM DIVISION OF DE PHARMASCIENCE INC	DIN OWNER	Y	Y	Y		SUITE 100	"6111, AVENUE ROYALMOUNT"	MONTREAL	QUEBEC	CANADA	H4P 2T4	
91179		11656	PENDOPHARM DIVISION OF DE PHARMASCIENCE INC	DIN OWNER	Y	Y	Y		SUITE 100	"6111, AVENUE ROYALMOUNT"	MONTREAL	QUEBEC	CANADA	H4P 2T4	
91180		11656	PENDOPHARM DIVISION OF DE PHARMASCIENCE INC	DIN OWNER	Y	Y	Y		SUITE 100	"6111, AVENUE ROYALMOUNT"	MONTREAL	QUEBEC	CANADA	H4P 2T4	
91181		11656	PENDOPHARM DIVISION OF DE PHARMASCIENCE INC	DIN OWNER	Y	Y	Y		SUITE 100	"6111, AVENUE ROYALMOUNT"	MONTREAL	QUEBEC	CANADA	H4P 2T4	
91182		11656	PENDOPHARM DIVISION OF DE PHARMASCIENCE INC	DIN OWNER	Y	Y	Y		SUITE 100	"6111, AVENUE ROYALMOUNT"	MONTREAL	QUEBEC	CANADA	H4P 2T4	
91183		11656	PENDOPHARM DIVISION OF DE PHARMASCIENCE INC	DIN OWNER	Y	Y	Y		SUITE 100	"6111, AVENUE ROYALMOUNT"	MONTREAL	QUEBEC	CANADA	H4P 2T4	
91184		11656	PENDOPHARM DIVISION OF DE PHARMASCIENCE INC	DIN OWNER	Y	Y	Y		SUITE 100	"6111, AVENUE ROYALMOUNT"	MONTREAL	QUEBEC	CANADA	H4P 2T4	
91185		11656	PENDOPHARM DIVISION OF DE PHARMASCIENCE INC	DIN OWNER	Y	Y	Y		SUITE 100	"6111, AVENUE ROYALMOUNT"	MONTREAL	QUEBEC	CANADA	H4P 2T4	
91186		11656	PENDOPHARM DIVISION OF DE PHARMASCIENCE INC	DIN OWNER	Y	Y	Y		SUITE 100	"6111, AVENUE ROYALMOUNT"	MONTREAL	QUEBEC	CANADA	H4P 2T4	
91187		11656	PENDOPHARM DIVISION OF DE PHARMASCIENCE INC	DIN OWNER	Y	Y	Y		SUITE 100	"6111, AVENUE ROYALMOUNT"	MONTREAL	QUEBEC	CANADA	H4P 2T4	
91190		11656	PENDOPHARM DIVISION OF DE PHARMASCIENCE INC	DIN OWNER	Y	Y	Y		SUITE 100	"6111, AVENUE ROYALMOUNT"	MONTREAL	QUEBEC	CANADA	H4P 2T4	
91191		11656	PENDOPHARM DIVISION OF DE PHARMASCIENCE INC	DIN OWNER	Y	Y	Y		SUITE 100	"6111, AVENUE ROYALMOUNT"	MONTREAL	QUEBEC	CANADA	H4P 2T4	
91192		11656	PENDOPHARM DIVISION OF DE PHARMASCIENCE INC	DIN OWNER	Y	Y	Y		SUITE 100	"6111, AVENUE ROYALMOUNT"	MONTREAL	QUEBEC	CANADA	H4P 2T4	
91201		11656	PENDOPHARM DIVISION OF DE PHARMASCIENCE INC	DIN OWNER	Y	Y	Y		SUITE 100	"6111, AVENUE ROYALMOUNT"	MONTREAL	QUEBEC	CANADA	H4P 2T4	
91202		11656	PENDOPHARM DIVISION OF DE PHARMASCIENCE INC	DIN OWNER	Y	Y	Y		SUITE 100	"6111, AVENUE ROYALMOUNT"	MONTREAL	QUEBEC	CANADA	H4P 2T4	
91203		11656	PENDOPHARM DIVISION OF DE PHARMASCIENCE INC	DIN OWNER	Y	Y	Y		SUITE 100	"6111, AVENUE ROYALMOUNT"	MONTREAL	QUEBEC	CANADA	H4P 2T4	
91204		9071	THE CLOROX COMPANY OF CANADA LTD	DIN OWNER	Y	Y	Y			150 BISCAYNE CRESCENT	BRAMPTON	ONTARIO	CANADA	L6W 4V3	
91206		8541	VITA HEALTH PRODUCTS INC	DIN OWNER	Y	N	Y	N		150 BEGHIN AVENUE	WINNIPEG	MANITOBA	CANADA	R2J 3W2	
91212		16351	VANC PHARMACEUTICALS INC	DIN OWNER	Y	N	N			"2639 VIKING WAY, UNIT 210"	RICHMOND	BRITISH COLUMBIA	CANADA	V6V 3B7	
91213		16351	VANC PHARMACEUTICALS INC	DIN OWNER	Y	N	N			"2639 VIKING WAY, UNIT 210"	RICHMOND	BRITISH COLUMBIA	CANADA	V6V 3B7	
91214		16351	VANC PHARMACEUTICALS INC	DIN OWNER	Y	N	N			"2639 VIKING WAY, UNIT 210"	RICHMOND	BRITISH COLUMBIA	CANADA	V6V 3B7	
91219		11656	PENDOPHARM DIVISION OF DE PHARMASCIENCE INC	DIN OWNER	Y	Y	Y		SUITE 100	"6111, AVENUE ROYALMOUNT"	MONTREAL	QUEBEC	CANADA	H4P 2T4	
91220		11656	PENDOPHARM DIVISION OF DE PHARMASCIENCE INC	DIN OWNER	Y	Y	Y		SUITE 100	"6111, AVENUE ROYALMOUNT"	MONTREAL	QUEBEC	CANADA	H4P 2T4	
91221		11656	PENDOPHARM DIVISION OF DE PHARMASCIENCE INC	DIN OWNER	Y	Y	Y		SUITE 100	"6111, AVENUE ROYALMOUNT"	MONTREAL	QUEBEC	CANADA	H4P 2T4	
91222		11656	PENDOPHARM DIVISION OF DE PHARMASCIENCE INC	DIN OWNER	Y	Y	Y		SUITE 100	"6111, AVENUE ROYALMOUNT"	MONTREAL	QUEBEC	CANADA	H4P 2T4	
91223		11656	PENDOPHARM DIVISION OF DE PHARMASCIENCE INC	DIN OWNER	Y	Y	Y		SUITE 100	"6111, AVENUE ROYALMOUNT"	MONTREAL	QUEBEC	CANADA	H4P 2T4	
91224		11656	PENDOPHARM DIVISION OF DE PHARMASCIENCE INC	DIN OWNER	Y	Y	Y		SUITE 100	"6111, AVENUE ROYALMOUNT"	MONTREAL	QUEBEC	CANADA	H4P 2T4	
91233		11656	PENDOPHARM DIVISION OF DE PHARMASCIENCE INC	DIN OWNER	Y	Y	Y		SUITE 100	"6111, AVENUE ROYALMOUNT"	MONTREAL	QUEBEC	CANADA	H4P 2T4	
91234		11611	STRIDES ARCOLAB LIMITED	DIN OWNER	Y	Y	Y			"STRIDES HOUSE, BILEKAHALLI, BANNERGHATTA ROAD"	BANGALORE	SAONE ET LOIRE	INDIA	560076	
91241		11220	INSIGHT PHARMACEUTICALS LLC	DIN OWNER	Y	N	N			660 WHITE PLAINS ROAD	TARRYTOWN	NEW YORK	UNITED STATES	10591	
91242		8541	VITA HEALTH PRODUCTS INC	DIN OWNER	Y	N	Y	N		150 BEGHIN AVENUE	WINNIPEG	MANITOBA	CANADA	R2J 3W2	
91245	APX08	3636	APOTEX INC	DIN OWNER	Y	Y	Y	N		150 SIGNET DRIVE	TORONTO	ONTARIO	CANADA	M9L 1T9	
91246	APX08	3636	APOTEX INC	DIN OWNER	Y	Y	Y	N		150 SIGNET DRIVE	TORONTO	ONTARIO	CANADA	M9L 1T9	
91247	APX08	3636	APOTEX INC	DIN OWNER	Y	Y	Y	N		150 SIGNET DRIVE	TORONTO	ONTARIO	CANADA	M9L 1T9	
91248		8388	WOOD WYANT INC	DIN OWNER	Y	Y	Y	N		42 RUE DE L'ARTISAN	VICTORIAVILLE	QUEBEC	CANADA	G6P 7E3	
91256		16211	DESHELI CANADA INC	DIN OWNER	Y	Y	Y			319 PATRICIA AVE	TORONTO	ONTARIO	CANADA	M2R 2M6	
91257		16224	HUMN PHARMACEUTICALS INC	DIN OWNER	Y	Y	Y			78 KINKORA DRIVE	WINNIPEG	MANITOBA	CANADA	R3R 2L6	
91258		16224	HUMN PHARMACEUTICALS INC	DIN OWNER	Y	Y	Y			78 KINKORA DRIVE	WINNIPEG	MANITOBA	CANADA	R3R 2L6	
91259		16224	HUMN PHARMACEUTICALS INC	DIN OWNER	Y	Y	Y			78 KINKORA DRIVE	WINNIPEG	MANITOBA	CANADA	R3R 2L6	
91261		13930	MYLAN PHARMACEUTICALS ULC	DIN OWNER	Y	Y	Y			85 ADVANCE ROAD	ETOBICOKE	ONTARIO	CANADA	M8Z 2S6	
91267		15923	AQUAMAR INTERNATIONAL	DIN OWNER	Y	Y	Y			FOKSDIEP 61	URK	FLEVOLAND	NETHERLANDS	8321 MK	
91272		15279	ZINDA PHARMA LIMITED	DIN OWNER	Y	Y	Y			4103 SHERBROOKE STREET WEST	MONTREAL	QUEBEC	CANADA	H3Z 1A7	
91273		15279	ZINDA PHARMA LIMITED	DIN OWNER	Y	Y	Y			4103 SHERBROOKE STREET WEST	MONTREAL	QUEBEC	CANADA	H3Z 1A7	
91279		11271	RANBAXY PHARMACEUTICALS CANADA INC.	DIN OWNER	Y	Y	Y			126 EAST DRIVE	BRAMPTON	ONTARIO	CANADA	L6T 1C1	
91280		11271	RANBAXY PHARMACEUTICALS CANADA INC.	DIN OWNER	Y	Y	Y			126 EAST DRIVE	BRAMPTON	ONTARIO	CANADA	L6T 1C1	
91281		11979	AURO PHARMA INC	DIN OWNER	Y	Y	Y			"3700 STEELES AVENUE WEST, SUITE 402"	WOODBRIDGE	ONTARIO	CANADA	L4L 8K8	
91282		11979	AURO PHARMA INC	DIN OWNER	Y	Y	Y			"3700 STEELES AVENUE WEST, SUITE 402"	WOODBRIDGE	ONTARIO	CANADA	L4L 8K8	
91286		8676	STATE INDUSTRIAL PRODUCTS	DIN OWNER	Y	Y	Y	N		5915 LANDERBROOK DRIVE	MAYFIELD HEIGHTS	OHIO	UNITED STATES	44124	
91287		15772	ACTAVIS PHARMA COMPANY	DIN OWNER	Y	Y	Y			"6733 MISSISSAUGA ROAD, SUITE 400"	MISSISSAUGA	ONTARIO	CANADA	L5N 6J5	
91288		16203	MAGICALLY GONE INC	DIN OWNER	Y	Y	Y			225 MT DOUGLAS CL SE	CALGARY	ALBERTA	CANADA	T2Z 3R9	
91290		16167	PHOTOMEDEX INC	DIN OWNER	Y	Y	Y			"100 LAKESIDE DRIVE, SUITE 100"	HORSHAM	PENNSYLVANIA	UNITED STATES	19044	
91302		16167	PHOTOMEDEX INC	DIN OWNER	Y	Y	Y			"100 LAKESIDE DRIVE, SUITE 100"	HORSHAM	PENNSYLVANIA	UNITED STATES	19044	
91303		16167	PHOTOMEDEX INC	DIN OWNER	Y	Y	Y			"100 LAKESIDE DRIVE, SUITE 100"	HORSHAM	PENNSYLVANIA	UNITED STATES	19044	
91305		15986	BELLCO SRL	DIN OWNER	Y	Y	Y			VIA CAMURANA 1	MIRANDOLA	MODENA	ITALY	41037	
91306		15986	BELLCO SRL	DIN OWNER	Y	Y	Y			VIA CAMURANA 1	MIRANDOLA	MODENA	ITALY	41037	
91313		15772	ACTAVIS PHARMA COMPANY	DIN OWNER	Y	Y	Y			"6733 MISSISSAUGA ROAD, SUITE 400"	MISSISSAUGA	ONTARIO	CANADA	L5N 6J5	
91314	JPC10	4415	JAMP PHARMA CORPORATION	DIN OWNER	Y	Y	Y	N		1310 RUE NOBEL	BOUCHERVILLE	QUEBEC	CANADA	J4B 5H3	
91322		15772	ACTAVIS PHARMA COMPANY	DIN OWNER	Y	Y	Y			"6733 MISSISSAUGA ROAD, SUITE 400"	MISSISSAUGA	ONTARIO	CANADA	L5N 6J5	
91323		15772	ACTAVIS PHARMA COMPANY	DIN OWNER	Y	Y	Y			"6733 MISSISSAUGA ROAD, SUITE 400"	MISSISSAUGA	ONTARIO	CANADA	L5N 6J5	
91324		15772	ACTAVIS PHARMA COMPANY	DIN OWNER	Y	Y	Y			"6733 MISSISSAUGA ROAD, SUITE 400"	MISSISSAUGA	ONTARIO	CANADA	L5N 6J5	
91328	RIV07	5034	LABORATOIRE RIVA INC	DIN OWNER	Y	Y	N	N		660 BOUL. INDUSTRIEL	BLAINVILLE	QUEBEC	CANADA	J7C 3V4	
91330	RIV07	5034	LABORATOIRE RIVA INC	DIN OWNER	Y	Y	N	N		660 BOUL. INDUSTRIEL	BLAINVILLE	QUEBEC	CANADA	J7C 3V4	
91340		16216	ACTIVATED ENVIRONMENTAL SOLUTIONS INC	DIN OWNER	Y	Y	N			"5212-48 ST., SUITE 350, B102"	RED DEER	ALBERTA	CANADA	T4N 7C3	
91342		9152	"ADVANCED VISION RESEARCH, INC."	DIN OWNER	Y	N	N	N	275	2929 PLYMOUTH ROAD	ANN ARBOR	MICHIGAN	UNITED STATES	48105	
91353		14907	MARCAN PHARMACEUTICALS INC	DIN OWNER	Y	N	N		SUITE 4	77 AURIGA DRIVE	OTTAWA	ONTARIO	CANADA	K2E 7Z7	
91354		14907	MARCAN PHARMACEUTICALS INC	DIN OWNER	Y	N	N		SUITE 4	77 AURIGA DRIVE	OTTAWA	ONTARIO	CANADA	K2E 7Z7	
91355		14907	MARCAN PHARMACEUTICALS INC	DIN OWNER	Y	N	N		SUITE 4	77 AURIGA DRIVE	OTTAWA	ONTARIO	CANADA	K2E 7Z7	
91356		14907	MARCAN PHARMACEUTICALS INC	DIN OWNER	Y	N	N		SUITE 4	77 AURIGA DRIVE	OTTAWA	ONTARIO	CANADA	K2E 7Z7	
91360		13930	MYLAN PHARMACEUTICALS ULC	DIN OWNER	Y	Y	Y			85 ADVANCE ROAD	ETOBICOKE	ONTARIO	CANADA	M8Z 2S6	
91363	TAR08	5241	TARO PHARMACEUTICALS INC	DIN OWNER	Y	Y	N	N		130 EAST DRIVE	BRAMPTON	ONTARIO	CANADA	L6T 1C1	
91364	TAR08	5241	TARO PHARMACEUTICALS INC	DIN OWNER	Y	Y	N	N		130 EAST DRIVE	BRAMPTON	ONTARIO	CANADA	L6T 1C1	
91369	JGD95	4412	PERRIGO INTERNATIONAL	DIN OWNER	Y	Y	Y	N		515 EASTERN AVE	ALLEGAN	MICHIGAN	UNITED STATES	49010-1327	
91370		12122	L' OREAL CANADA	DIN OWNER	Y	N	N			4895 RUE HICKMORE	MONTREAL	QUEBEC	CANADA	H4T 1K5	
91371		12122	L' OREAL CANADA	DIN OWNER	Y	N	N			4895 RUE HICKMORE	MONTREAL	QUEBEC	CANADA	H4T 1K5	
91398		12027	SANDOZ CANADA INCORPORATED	DIN OWNER	Y	Y	Y			145 JULES-LÉGER STREET	BOUCHERVILLE	QUEBEC	CANADA	J4B 7K8	
91399		14803	JUBILANT GENERICS LIMITED	DIN OWNER	Y	Y	N			"1A, SECTOR 16A INSTITUTIONAL AREA"	NOIDA	UTTAR PRADESH	INDIA	201301	
91400		14803	JUBILANT GENERICS LIMITED	DIN OWNER	Y	Y	N			"1A, SECTOR 16A INSTITUTIONAL AREA"	NOIDA	UTTAR PRADESH	INDIA	201301	
91401		14803	JUBILANT GENERICS LIMITED	DIN OWNER	Y	Y	N			"1A, SECTOR 16A INSTITUTIONAL AREA"	NOIDA	UTTAR PRADESH	INDIA	201301	
91404		11271	RANBAXY PHARMACEUTICALS CANADA INC.	DIN OWNER	Y	Y	Y			126 EAST DRIVE	BRAMPTON	ONTARIO	CANADA	L6T 1C1	
91405		11271	RANBAXY PHARMACEUTICALS CANADA INC.	DIN OWNER	Y	Y	Y			126 EAST DRIVE	BRAMPTON	ONTARIO	CANADA	L6T 1C1	
91406		11271	RANBAXY PHARMACEUTICALS CANADA INC.	DIN OWNER	Y	Y	Y			126 EAST DRIVE	BRAMPTON	ONTARIO	CANADA	L6T 1C1	
91407		11271	RANBAXY PHARMACEUTICALS CANADA INC.	DIN OWNER	Y	Y	Y			126 EAST DRIVE	BRAMPTON	ONTARIO	CANADA	L6T 1C1	
91408		11271	RANBAXY PHARMACEUTICALS CANADA INC.	DIN OWNER	Y	Y	Y			126 EAST DRIVE	BRAMPTON	ONTARIO	CANADA	L6T 1C1	
91409		11271	RANBAXY PHARMACEUTICALS CANADA INC.	DIN OWNER	Y	Y	Y			126 EAST DRIVE	BRAMPTON	ONTARIO	CANADA	L6T 1C1	
91417	SUY08	5215	H.J. SUTTON INDUSTRIES LTD.	DIN OWNER	Y	Y	Y	N		"8701 JANE STREET, UNIT C"	VAUGHAN	ONTARIO	CANADA	L4K 2M6	
91418		9071	THE CLOROX COMPANY OF CANADA LTD	DIN OWNER	Y	Y	Y			150 BISCAYNE CRESCENT	BRAMPTON	ONTARIO	CANADA	L6W 4V3	
91421		16505	GENERIC PARTNERS (CANADA) INC.	DIN OWNER	Y	Y	N			"35 NIXON ROAD, UNIT 10"	CALEDON	ONTARIO	CANADA	L7E 1K1	
91424		15130	SIVEM PHARMACEUTICALS ULC	DIN OWNER	Y	N	Y			4705 DOBRIN STREET	SAINT-LAURENT	QUEBEC	CANADA	H4R 2P7	
91427		16147	BIO ORGANIC SOLUTIONS CORP	DIN OWNER	Y	Y	Y			"2744 EDNA STREET, UNIT D"	WINDSOR	ONTARIO	CANADA	N8Y 1V2	
91428		16147	BIO ORGANIC SOLUTIONS CORP	DIN OWNER	Y	Y	Y			"2744 EDNA STREET, UNIT D"	WINDSOR	ONTARIO	CANADA	N8Y 1V2	
91429		16147	BIO ORGANIC SOLUTIONS CORP	DIN OWNER	Y	Y	Y			"2744 EDNA STREET, UNIT D"	WINDSOR	ONTARIO	CANADA	N8Y 1V2	
91439		11656	PENDOPHARM DIVISION OF DE PHARMASCIENCE INC	DIN OWNER	Y	Y	Y		SUITE 100	"6111, AVENUE ROYALMOUNT"	MONTREAL	QUEBEC	CANADA	H4P 2T4	
91440		16271	L'OCCITANE CANADA CORP.	DIN OWNER	Y	Y	N			"2700 DUFFERIN STREET, SUITE 89"	TORONTO	ONTARIO	CANADA	M6B 4J3	
91441		11271	RANBAXY PHARMACEUTICALS CANADA INC.	DIN OWNER	Y	Y	Y			126 EAST DRIVE	BRAMPTON	ONTARIO	CANADA	L6T 1C1	
91442		11271	RANBAXY PHARMACEUTICALS CANADA INC.	DIN OWNER	Y	Y	Y			126 EAST DRIVE	BRAMPTON	ONTARIO	CANADA	L6T 1C1	
91443		13936	MANTRA PHARMA INC	DIN OWNER	Y	N	Y			"4605 B BOUL LAPINIERE, SUITE 250"	BROSSARD	QUEBEC	CANADA	J4Z 3T5	
91444		13936	MANTRA PHARMA INC	DIN OWNER	Y	N	Y			"4605 B BOUL LAPINIERE, SUITE 250"	BROSSARD	QUEBEC	CANADA	J4Z 3T5	
91446		16251	UNION SWISS (PTY) LIMITED	DIN OWNER	Y	N	N			"66 LONG STREET, 9TH FLOOR PARK ON LONG"	CAPE TOWN	WESTERN CAPE	SOUTH AFRICA	8001	
91447		16278	PEDIAVERA INC	DIN OWNER	Y	Y	Y			"2001 UNIVERSITY, SUITE 1700"	MONTREAL	QUEBEC	CANADA	H3A 2A6	
91448		16278	PEDIAVERA INC	DIN OWNER	Y	Y	Y			"2001 UNIVERSITY, SUITE 1700"	MONTREAL	QUEBEC	CANADA	H3A 2A6	
91449		16271	L'OCCITANE CANADA CORP.	DIN OWNER	Y	Y	N			"2700 DUFFERIN STREET, SUITE 89"	TORONTO	ONTARIO	CANADA	M6B 4J3	
91450		16271	L'OCCITANE CANADA CORP.	DIN OWNER	Y	Y	N			"2700 DUFFERIN STREET, SUITE 89"	TORONTO	ONTARIO	CANADA	M6B 4J3	
91452		16271	L'OCCITANE CANADA CORP.	DIN OWNER	Y	Y	N			"2700 DUFFERIN STREET, SUITE 89"	TORONTO	ONTARIO	CANADA	M6B 4J3	
91454		16271	L'OCCITANE CANADA CORP.	DIN OWNER	Y	Y	N			"2700 DUFFERIN STREET, SUITE 89"	TORONTO	ONTARIO	CANADA	M6B 4J3	
91456		13930	MYLAN PHARMACEUTICALS ULC	DIN OWNER	Y	Y	Y			85 ADVANCE ROAD	ETOBICOKE	ONTARIO	CANADA	M8Z 2S6	
91457	APX08	3636	APOTEX INC	DIN OWNER	Y	Y	Y	N		150 SIGNET DRIVE	TORONTO	ONTARIO	CANADA	M9L 1T9	
91458	PMS07	3550	PHARMASCIENCE INC	DIN OWNER	Y	Y	Y	N	100	"6111, ROYALMOUNT AVENUE"	MONTREAL	QUEBEC	CANADA	H4P 2T4	
91471		16271	L'OCCITANE CANADA CORP.	DIN OWNER	Y	Y	N			"2700 DUFFERIN STREET, SUITE 89"	TORONTO	ONTARIO	CANADA	M6B 4J3	
91472		16271	L'OCCITANE CANADA CORP.	DIN OWNER	Y	Y	N			"2700 DUFFERIN STREET, SUITE 89"	TORONTO	ONTARIO	CANADA	M6B 4J3	
91473		16271	L'OCCITANE CANADA CORP.	DIN OWNER	Y	Y	N			"2700 DUFFERIN STREET, SUITE 89"	TORONTO	ONTARIO	CANADA	M6B 4J3	
91474		16271	L'OCCITANE CANADA CORP.	DIN OWNER	Y	Y	N			"2700 DUFFERIN STREET, SUITE 89"	TORONTO	ONTARIO	CANADA	M6B 4J3	
91488	WLP08	6793	WALTMAN PHARMACEUTICALS INC	DIN OWNER	Y	Y	N	N		PO BOX 12442	JACKSON	MISSISSIPPI	UNITED STATES	39236	
91490		14803	JUBILANT GENERICS LIMITED	DIN OWNER	Y	Y	N			"1A, SECTOR 16A INSTITUTIONAL AREA"	NOIDA	UTTAR PRADESH	INDIA	201301	
91491		14803	JUBILANT GENERICS LIMITED	DIN OWNER	Y	Y	N			"1A, SECTOR 16A INSTITUTIONAL AREA"	NOIDA	UTTAR PRADESH	INDIA	201301	
91492		14803	JUBILANT GENERICS LIMITED	DIN OWNER	Y	Y	N			"1A, SECTOR 16A INSTITUTIONAL AREA"	NOIDA	UTTAR PRADESH	INDIA	201301	
91493		14803	JUBILANT GENERICS LIMITED	DIN OWNER	Y	Y	N			"1A, SECTOR 16A INSTITUTIONAL AREA"	NOIDA	UTTAR PRADESH	INDIA	201301	
91498		12027	SANDOZ CANADA INCORPORATED	DIN OWNER	Y	Y	Y			145 JULES-LÉGER STREET	BOUCHERVILLE	QUEBEC	CANADA	J4B 7K8	
91499		12027	SANDOZ CANADA INCORPORATED	DIN OWNER	Y	Y	Y			145 JULES-LÉGER STREET	BOUCHERVILLE	QUEBEC	CANADA	J4B 7K8	
91500		15772	ACTAVIS PHARMA COMPANY	DIN OWNER	Y	Y	Y			"6733 MISSISSAUGA ROAD, SUITE 400"	MISSISSAUGA	ONTARIO	CANADA	L5N 6J5	
91501		15772	ACTAVIS PHARMA COMPANY	DIN OWNER	Y	Y	Y			"6733 MISSISSAUGA ROAD, SUITE 400"	MISSISSAUGA	ONTARIO	CANADA	L5N 6J5	
91516		15645	ZOETIS CANADA INC	DIN OWNER	Y	Y	Y			16740 TRANS CANADA HIGHWAY	KIRKLAND	QUEBEC	CANADA	H9H 4M7	
91517		16283	PROFESSIONAL PRODUCTS DIVISION (DIVISION OF CONAIR INC)	DIN OWNER	Y	N	N			1 CUMMINGS POINT ROAD	STAMFORD	CONNECTICUT	UNITED STATES	6902	
91531		13930	MYLAN PHARMACEUTICALS ULC	DIN OWNER	Y	Y	Y			85 ADVANCE ROAD	ETOBICOKE	ONTARIO	CANADA	M8Z 2S6	
91532		13930	MYLAN PHARMACEUTICALS ULC	DIN OWNER	Y	Y	Y			85 ADVANCE ROAD	ETOBICOKE	ONTARIO	CANADA	M8Z 2S6	
91533		13930	MYLAN PHARMACEUTICALS ULC	DIN OWNER	Y	Y	Y			85 ADVANCE ROAD	ETOBICOKE	ONTARIO	CANADA	M8Z 2S6	
91534		13930	MYLAN PHARMACEUTICALS ULC	DIN OWNER	Y	Y	Y			85 ADVANCE ROAD	ETOBICOKE	ONTARIO	CANADA	M8Z 2S6	
91535		13930	MYLAN PHARMACEUTICALS ULC	DIN OWNER	Y	Y	Y			85 ADVANCE ROAD	ETOBICOKE	ONTARIO	CANADA	M8Z 2S6	
91539		14907	MARCAN PHARMACEUTICALS INC	DIN OWNER	Y	N	N		SUITE 4	77 AURIGA DRIVE	OTTAWA	ONTARIO	CANADA	K2E 7Z7	
91540		14907	MARCAN PHARMACEUTICALS INC	DIN OWNER	Y	N	N		SUITE 4	77 AURIGA DRIVE	OTTAWA	ONTARIO	CANADA	K2E 7Z7	
91541		14907	MARCAN PHARMACEUTICALS INC	DIN OWNER	Y	N	N		SUITE 4	77 AURIGA DRIVE	OTTAWA	ONTARIO	CANADA	K2E 7Z7	
91544		14907	MARCAN PHARMACEUTICALS INC	DIN OWNER	Y	N	N		SUITE 4	77 AURIGA DRIVE	OTTAWA	ONTARIO	CANADA	K2E 7Z7	
91545		14907	MARCAN PHARMACEUTICALS INC	DIN OWNER	Y	N	N		SUITE 4	77 AURIGA DRIVE	OTTAWA	ONTARIO	CANADA	K2E 7Z7	
91546		14907	MARCAN PHARMACEUTICALS INC	DIN OWNER	Y	N	N		SUITE 4	77 AURIGA DRIVE	OTTAWA	ONTARIO	CANADA	K2E 7Z7	
91548		14586	LUPIN LIMITED	DIN OWNER	Y	Y	Y			"KALPATARU INSPIRE, 3RD FLOOR, OFF WESTERN HIGHWAY, SANTACRUZ  EAST"	MUMBAI	MAHARASHTRA	INDIA	400055	
91554		9071	THE CLOROX COMPANY OF CANADA LTD	DIN OWNER	Y	Y	Y			150 BISCAYNE CRESCENT	BRAMPTON	ONTARIO	CANADA	L6W 4V3	
91557		13985	GENERIC MEDICAL PARTNERS INC	DIN OWNER	Y	Y	Y		SUITE 1200	251 CONSUMERS ROAD	TORONTO	ONTARIO	CANADA	M2J 4R3	
91558	DIV08	4044	DIVERSEY INC	DIN OWNER	Y	N	N	N		P.O. BOX 19747	CHARLOTTE	NORTH CAROLINA	UNITED STATES	28219	
91559	DIV08	4044	DIVERSEY INC	DIN OWNER	Y	N	N	N		P.O. BOX 19747	CHARLOTTE	NORTH CAROLINA	UNITED STATES	28219	
91562		8612	ACCUCAPS INDUSTRIES LIMITED	DIN OWNER	Y	Y	N			2125 AMBASSADOR DRIVE	WINDSOR	ONTARIO	CANADA	N9C 3R5	
91563		8612	ACCUCAPS INDUSTRIES LIMITED	DIN OWNER	Y	Y	N			2125 AMBASSADOR DRIVE	WINDSOR	ONTARIO	CANADA	N9C 3R5	
91565	PMT07	4933	PHARMETICS (2011) INC	DIN OWNER	Y	Y	Y	N		3695 AUTOROUTE DES LAURENTIDES	LAVAL	QUEBEC	CANADA	H7L 3H7	
91567		7556	SWISS AMERICAN PRODUCTS INC.	DIN OWNER	Y	Y	Y	N	SUITE #126	2055 LUNA ROAD	CARROLLTON	TEXAS	UNITED STATES	75006	
91568		13374	DECHRA LTD	DIN OWNER	Y	N	N			"SNAYGILL INDUSTRIAL ESTATE, KEIGHLEY ROAD"	SKIPTON	NORTH YORKSHIRE	UNITED KINGDOM	BD23 2RW	
91569		13374	DECHRA LTD	DIN OWNER	Y	N	N			"SNAYGILL INDUSTRIAL ESTATE, KEIGHLEY ROAD"	SKIPTON	NORTH YORKSHIRE	UNITED KINGDOM	BD23 2RW	
91573	RIV07	5034	LABORATOIRE RIVA INC	DIN OWNER	Y	Y	N	N		660 BOUL. INDUSTRIEL	BLAINVILLE	QUEBEC	CANADA	J7C 3V4	
91575		15739	VPI PHARMACEUTICALS INC	DIN OWNER	Y	Y	Y			"16,667 BOUL. HYMUS"	KIRKLAND	QUEBEC	CANADA	H9H 4R9	
91577		7556	SWISS AMERICAN PRODUCTS INC.	DIN OWNER	Y	Y	Y	N	SUITE #126	2055 LUNA ROAD	CARROLLTON	TEXAS	UNITED STATES	75006	
91587		9606	KIMBERLY-CLARK INC	DIN OWNER	Y	Y	N			"50 BURNHAMTHORPE ROAD WEST, SUITE 1200"	MISSISSAUGA	ONTARIO	CANADA	L5B 3Y5	
91591	MAK08	4550	3M CANADA COMPANY	DIN OWNER	Y	Y	Y	N		300 TARTAN DR.	LONDON	ONTARIO	CANADA	N5V 4M9	
91594	CSN50	3968	PARFUMS CHRISTIAN DIOR	DIN OWNER	Y	N	N	N		33 AVENUE HOCHE	PARIS	SAONE ET LOIRE	FRANCE	75008	
91595		14691	JUBILANT DRAXIMAGE INC	DIN OWNER	Y	Y	Y			16751 TRANS CANADA HWY	KIRKLAND	QUEBEC	CANADA	H9H 4J4	
91605		11979	AURO PHARMA INC	DIN OWNER	Y	Y	Y			"3700 STEELES AVENUE WEST, SUITE 402"	WOODBRIDGE	ONTARIO	CANADA	L4L 8K8	
91606		11979	AURO PHARMA INC	DIN OWNER	Y	Y	Y			"3700 STEELES AVENUE WEST, SUITE 402"	WOODBRIDGE	ONTARIO	CANADA	L4L 8K8	
91607		11979	AURO PHARMA INC	DIN OWNER	Y	Y	Y			"3700 STEELES AVENUE WEST, SUITE 402"	WOODBRIDGE	ONTARIO	CANADA	L4L 8K8	
91608		14154	GENVION CORPORATION	DIN OWNER	Y	Y	Y			500 CAMIEL SYSTEM STREET	WINNIPEG	MANITOBA	CANADA	R2J 4K2	
91609		11979	AURO PHARMA INC	DIN OWNER	Y	Y	Y			"3700 STEELES AVENUE WEST, SUITE 402"	WOODBRIDGE	ONTARIO	CANADA	L4L 8K8	
91614		16197	B. BRAUN MEDICAL AG	DIN OWNER	Y	N	Y			17 SEESATZ	SEMPACH	LUZERN	SWITZERLAND	6204	
91615		16197	B. BRAUN MEDICAL AG	DIN OWNER	Y	N	Y			17 SEESATZ	SEMPACH	LUZERN	SWITZERLAND	6204	
91616		11642	HOSPIRA HEALTHCARE CORPORATION	DIN OWNER	Y	Y	Y			17300 TRANS-CANADA HIGHWAY	KIRKLAND	QUEBEC	CANADA	H9J 2M5	
91620		16334	BIOXY AFD INC	DIN OWNER	Y	N	Y			220 PLACE FORESTIER	SAINTE-CATHERINE	QUEBEC	CANADA	J5C 1E9	
91623	JPC10	4415	JAMP PHARMA CORPORATION	DIN OWNER	Y	Y	Y	N		1310 RUE NOBEL	BOUCHERVILLE	QUEBEC	CANADA	J4B 5H3	
91631		16351	VANC PHARMACEUTICALS INC	DIN OWNER	Y	N	N			"2639 VIKING WAY, UNIT 210"	RICHMOND	BRITISH COLUMBIA	CANADA	V6V 3B7	
91632		16351	VANC PHARMACEUTICALS INC	DIN OWNER	Y	N	N			"2639 VIKING WAY, UNIT 210"	RICHMOND	BRITISH COLUMBIA	CANADA	V6V 3B7	
91636		13866	MARIO BADESCU SKIN CARE	DIN OWNER	Y	Y	Y			120 MCGAW DRIVE	EDISON	NEW JERSEY	UNITED STATES	8837	
91639		16529	BAXALTA CANADA CORPORATION	DIN OWNER	Y	Y	Y			7125 MISSISSAUGA ROAD	MISSISSAUGA	ONTARIO	CANADA	L5N 0C2	
91640		16529	BAXALTA CANADA CORPORATION	DIN OWNER	Y	Y	Y			7125 MISSISSAUGA ROAD	MISSISSAUGA	ONTARIO	CANADA	L5N 0C2	
91641		16529	BAXALTA CANADA CORPORATION	DIN OWNER	Y	Y	Y			7125 MISSISSAUGA ROAD	MISSISSAUGA	ONTARIO	CANADA	L5N 0C2	
91642		16529	BAXALTA CANADA CORPORATION	DIN OWNER	Y	Y	Y			7125 MISSISSAUGA ROAD	MISSISSAUGA	ONTARIO	CANADA	L5N 0C2	
91643		16529	BAXALTA CANADA CORPORATION	DIN OWNER	Y	Y	Y			7125 MISSISSAUGA ROAD	MISSISSAUGA	ONTARIO	CANADA	L5N 0C2	
91644		14256	ANGITA PHARMA INC.	DIN OWNER	Y	N	N			1380 NEWTON UNIT 203	BOUCHERVILLE	QUEBEC	CANADA	J4B 5H2	
91645		13032	ACCORD HEALTHCARE INC	DIN OWNER	Y	Y	Y			"3535 BOULEVARD ST-CHARLES, SUITE 704"	KIRKLAND	QUEBEC	CANADA	H9H 5B9	
91647		14907	MARCAN PHARMACEUTICALS INC	DIN OWNER	Y	N	N		SUITE 4	77 AURIGA DRIVE	OTTAWA	ONTARIO	CANADA	K2E 7Z7	
91648		9785	ATOMS F.D. INC	DIN OWNER	Y	Y	Y			3485 ASHBY	VILLE  SAINT- LAURENT	QUEBEC	CANADA	H4R 2K3	
91649		14907	MARCAN PHARMACEUTICALS INC	DIN OWNER	Y	N	N		SUITE 4	77 AURIGA DRIVE	OTTAWA	ONTARIO	CANADA	K2E 7Z7	
91650		14907	MARCAN PHARMACEUTICALS INC	DIN OWNER	Y	N	N		SUITE 4	77 AURIGA DRIVE	OTTAWA	ONTARIO	CANADA	K2E 7Z7	
91651		14907	MARCAN PHARMACEUTICALS INC	DIN OWNER	Y	N	N		SUITE 4	77 AURIGA DRIVE	OTTAWA	ONTARIO	CANADA	K2E 7Z7	
91652		14907	MARCAN PHARMACEUTICALS INC	DIN OWNER	Y	N	N		SUITE 4	77 AURIGA DRIVE	OTTAWA	ONTARIO	CANADA	K2E 7Z7	
91653		14907	MARCAN PHARMACEUTICALS INC	DIN OWNER	Y	N	N		SUITE 4	77 AURIGA DRIVE	OTTAWA	ONTARIO	CANADA	K2E 7Z7	
91659		13755	ENERGIZER CANADA INC	DIN OWNER	Y	N	N			165 KINCARDINE HIGHWAY	WALKERTON	ONTARIO	CANADA	N0G 2V0	
91670		13728	PNP PHARMACEUTICALS INC	DIN OWNER	Y	Y	Y			9388 NORTH FRASER CRESCENT	BURNABY	BRITISH COLUMBIA	CANADA	V5J 0E3	
91673	JPC10	4415	JAMP PHARMA CORPORATION	DIN OWNER	Y	Y	Y	N		1310 RUE NOBEL	BOUCHERVILLE	QUEBEC	CANADA	J4B 5H3	
91674	JPC10	4415	JAMP PHARMA CORPORATION	DIN OWNER	Y	Y	Y	N		1310 RUE NOBEL	BOUCHERVILLE	QUEBEC	CANADA	J4B 5H3	
91675	JPC10	4415	JAMP PHARMA CORPORATION	DIN OWNER	Y	Y	Y	N		1310 RUE NOBEL	BOUCHERVILLE	QUEBEC	CANADA	J4B 5H3	
91676	JPC10	4415	JAMP PHARMA CORPORATION	DIN OWNER	Y	Y	Y	N		1310 RUE NOBEL	BOUCHERVILLE	QUEBEC	CANADA	J4B 5H3	
91677		15415	ALEMBIC PHARMACEUTICALS LIMITED	DIN OWNER	Y	Y	Y			ALEMBIC ROAD	VADODARA	GUJARAT	INDIA	390003	
91678		8189	GUARDIAN DRUG COMPANY INC	DIN OWNER	Y	Y	N			2 CHARLES COURT	DAYTON	NEW JERSEY	UNITED STATES	08810-1508	
91681		14907	MARCAN PHARMACEUTICALS INC	DIN OWNER	Y	N	N		SUITE 4	77 AURIGA DRIVE	OTTAWA	ONTARIO	CANADA	K2E 7Z7	
91682		14907	MARCAN PHARMACEUTICALS INC	DIN OWNER	Y	N	N		SUITE 4	77 AURIGA DRIVE	OTTAWA	ONTARIO	CANADA	K2E 7Z7	
91683		8173	NEOTERIC COSMETICS INC.	DIN OWNER	Y	Y	N	N		"4880 HAVANA ST, SUITE 400"	DENVER	COLORADO	UNITED STATES	80239-0019	
91690		8173	NEOTERIC COSMETICS INC.	DIN OWNER	Y	Y	N	N		"4880 HAVANA ST, SUITE 400"	DENVER	COLORADO	UNITED STATES	80239-0019	
91691		15415	ALEMBIC PHARMACEUTICALS LIMITED	DIN OWNER	Y	Y	Y			ALEMBIC ROAD	VADODARA	GUJARAT	INDIA	390003	
91698	XTT95	6835	XTTRIUM LABORATORIES INC.	DIN OWNER	Y	N	N	N		1200E BUSINESS CENTER DRIVE	MOUNT PROSPECT	ILLINOIS	UNITED STATES	60056-6041	
91704		15112	SANOFI CONSUMER HEALTH INC SANOFI SANTE GRAND PUBLIC INC	DIN OWNER	Y	Y	Y			2905 PLACE LOUIS-R RENAUD	LAVAL	QUEBEC	CANADA	H7V 0A3	
91711		14256	ANGITA PHARMA INC.	DIN OWNER	Y	N	N			1380 NEWTON UNIT 203	BOUCHERVILLE	QUEBEC	CANADA	J4B 5H2	
91712		14256	ANGITA PHARMA INC.	DIN OWNER	Y	N	N			1380 NEWTON UNIT 203	BOUCHERVILLE	QUEBEC	CANADA	J4B 5H2	
91716	APX08	3636	APOTEX INC	DIN OWNER	Y	Y	Y	N		150 SIGNET DRIVE	TORONTO	ONTARIO	CANADA	M9L 1T9	
91717		12428	SANOFI PASTEUR LIMITED	DIN OWNER	Y	Y	Y			1755 STEELES AVENUE WEST	TORONTO	ONTARIO	CANADA	M2R 3T4	
91724	PGA08	4911	PROCTER & GAMBLE INC	DIN OWNER	Y	N	N	N		4711 YONGE STREET	TORONTO	ONTARIO	CANADA	M2N 6K8	
91725	PGA08	4911	PROCTER & GAMBLE INC	DIN OWNER	Y	N	N	N		4711 YONGE STREET	TORONTO	ONTARIO	CANADA	M2N 6K8	
91734	VLH07	5362	LUNDBECK CANADA INC	DIN OWNER	Y	N	Y	N		"2600 ALFRED-NOBEL, SUITE 400"	MONTREAL	QUEBEC	CANADA	H4S 0A9	
91749		16555	FRESENIUS KABI CANADA LTD	DIN OWNER	Y	Y	Y			"165 GALAXY BLVD, SUITE 100"	TORONTO	ONTARIO	CANADA	M9W 0C8	
91750	TAR08	5241	TARO PHARMACEUTICALS INC	DIN OWNER	Y	Y	N	N		130 EAST DRIVE	BRAMPTON	ONTARIO	CANADA	L6T 1C1	
91751	CIF08	3903	C.P. INDUSTRIES LTD	DIN OWNER	Y	Y	Y	N		535 DICKSON DRIVE	FERGUS	ONTARIO	CANADA	N1M 2W8	P.O. BOX 300
91753	OBT08	10028	COBALT PHARMACEUTICALS COMPANY	DIN OWNER	Y	Y	N			"6733 MISSISSAUGA ROAD, SUITE 400"	MISSISSAUGA	ONTARIO	CANADA	L5N 6J5	
91754	OBT08	10028	COBALT PHARMACEUTICALS COMPANY	DIN OWNER	Y	Y	N			"6733 MISSISSAUGA ROAD, SUITE 400"	MISSISSAUGA	ONTARIO	CANADA	L5N 6J5	
91755	OBT08	10028	COBALT PHARMACEUTICALS COMPANY	DIN OWNER	Y	Y	N			"6733 MISSISSAUGA ROAD, SUITE 400"	MISSISSAUGA	ONTARIO	CANADA	L5N 6J5	
91756	OBT08	10028	COBALT PHARMACEUTICALS COMPANY	DIN OWNER	Y	Y	N			"6733 MISSISSAUGA ROAD, SUITE 400"	MISSISSAUGA	ONTARIO	CANADA	L5N 6J5	
91757		15772	ACTAVIS PHARMA COMPANY	DIN OWNER	Y	Y	Y			"6733 MISSISSAUGA ROAD, SUITE 400"	MISSISSAUGA	ONTARIO	CANADA	L5N 6J5	
91758		15772	ACTAVIS PHARMA COMPANY	DIN OWNER	Y	Y	Y			"6733 MISSISSAUGA ROAD, SUITE 400"	MISSISSAUGA	ONTARIO	CANADA	L5N 6J5	
91759		15772	ACTAVIS PHARMA COMPANY	DIN OWNER	Y	Y	Y			"6733 MISSISSAUGA ROAD, SUITE 400"	MISSISSAUGA	ONTARIO	CANADA	L5N 6J5	
91760		13930	MYLAN PHARMACEUTICALS ULC	DIN OWNER	Y	Y	Y			85 ADVANCE ROAD	ETOBICOKE	ONTARIO	CANADA	M8Z 2S6	
91763		16115	BRITISH COLUMBIA CANCER AGENCY	DIN OWNER	Y	Y	Y			600 WEST 10TH AVENUE	VANCOUVER	BRITISH COLUMBIA	CANADA	V5Z 4E6	
91764	REK07	5010	RECKITT BENCKISER (CANADA) INC	DIN OWNER	Y	Y	Y	N	UNIT #2	1680 TECH AVENUE	MISSISSAUGA	ONTARIO	CANADA	L4W 5S9	
91765	REK07	5010	RECKITT BENCKISER (CANADA) INC	DIN OWNER	Y	Y	Y	N	UNIT #2	1680 TECH AVENUE	MISSISSAUGA	ONTARIO	CANADA	L4W 5S9	
91767	JAJ07	4402	JOHNSON & JOHNSON INC	DIN OWNER	Y	Y	Y	N		88 MCNABB STREET	MARKHAM	ONTARIO	CANADA	L3R 5L2	
91768		15083	DR REDDYS LABORATORIES LTD	DIN OWNER	Y	N	N			"SURVEY NOS 42,45,46,54 BACHUPALLY, QUTHBULLAPUR"	HYDERBAD	TELANGANA	INDIA	500090	
91769		15772	ACTAVIS PHARMA COMPANY	DIN OWNER	Y	Y	Y			"6733 MISSISSAUGA ROAD, SUITE 400"	MISSISSAUGA	ONTARIO	CANADA	L5N 6J5	
91770		15772	ACTAVIS PHARMA COMPANY	DIN OWNER	Y	Y	Y			"6733 MISSISSAUGA ROAD, SUITE 400"	MISSISSAUGA	ONTARIO	CANADA	L5N 6J5	
91771		15772	ACTAVIS PHARMA COMPANY	DIN OWNER	Y	Y	Y			"6733 MISSISSAUGA ROAD, SUITE 400"	MISSISSAUGA	ONTARIO	CANADA	L5N 6J5	
91772		15772	ACTAVIS PHARMA COMPANY	DIN OWNER	Y	Y	Y			"6733 MISSISSAUGA ROAD, SUITE 400"	MISSISSAUGA	ONTARIO	CANADA	L5N 6J5	
91773		15772	ACTAVIS PHARMA COMPANY	DIN OWNER	Y	Y	Y			"6733 MISSISSAUGA ROAD, SUITE 400"	MISSISSAUGA	ONTARIO	CANADA	L5N 6J5	
91774		15772	ACTAVIS PHARMA COMPANY	DIN OWNER	Y	Y	Y			"6733 MISSISSAUGA ROAD, SUITE 400"	MISSISSAUGA	ONTARIO	CANADA	L5N 6J5	
91775		15772	ACTAVIS PHARMA COMPANY	DIN OWNER	Y	Y	Y			"6733 MISSISSAUGA ROAD, SUITE 400"	MISSISSAUGA	ONTARIO	CANADA	L5N 6J5	
91776		15772	ACTAVIS PHARMA COMPANY	DIN OWNER	Y	Y	Y			"6733 MISSISSAUGA ROAD, SUITE 400"	MISSISSAUGA	ONTARIO	CANADA	L5N 6J5	
91777		15772	ACTAVIS PHARMA COMPANY	DIN OWNER	Y	Y	Y			"6733 MISSISSAUGA ROAD, SUITE 400"	MISSISSAUGA	ONTARIO	CANADA	L5N 6J5	
91779	REK07	5010	RECKITT BENCKISER (CANADA) INC	DIN OWNER	Y	Y	Y	N	UNIT #2	1680 TECH AVENUE	MISSISSAUGA	ONTARIO	CANADA	L4W 5S9	
91780	REK07	5010	RECKITT BENCKISER (CANADA) INC	DIN OWNER	Y	Y	Y	N	UNIT #2	1680 TECH AVENUE	MISSISSAUGA	ONTARIO	CANADA	L4W 5S9	
91781	REK07	5010	RECKITT BENCKISER (CANADA) INC	DIN OWNER	Y	Y	Y	N	UNIT #2	1680 TECH AVENUE	MISSISSAUGA	ONTARIO	CANADA	L4W 5S9	
91782	REK07	5010	RECKITT BENCKISER (CANADA) INC	DIN OWNER	Y	Y	Y	N	UNIT #2	1680 TECH AVENUE	MISSISSAUGA	ONTARIO	CANADA	L4W 5S9	
91784	REK07	5010	RECKITT BENCKISER (CANADA) INC	DIN OWNER	Y	Y	Y	N	UNIT #2	1680 TECH AVENUE	MISSISSAUGA	ONTARIO	CANADA	L4W 5S9	
91788	PGA08	4911	PROCTER & GAMBLE INC	DIN OWNER	Y	N	N	N		4711 YONGE STREET	TORONTO	ONTARIO	CANADA	M2N 6K8	
91795		15772	ACTAVIS PHARMA COMPANY	DIN OWNER	Y	Y	Y			"6733 MISSISSAUGA ROAD, SUITE 400"	MISSISSAUGA	ONTARIO	CANADA	L5N 6J5	
91796		15772	ACTAVIS PHARMA COMPANY	DIN OWNER	Y	Y	Y			"6733 MISSISSAUGA ROAD, SUITE 400"	MISSISSAUGA	ONTARIO	CANADA	L5N 6J5	
91797		15772	ACTAVIS PHARMA COMPANY	DIN OWNER	Y	Y	Y			"6733 MISSISSAUGA ROAD, SUITE 400"	MISSISSAUGA	ONTARIO	CANADA	L5N 6J5	
91798		15772	ACTAVIS PHARMA COMPANY	DIN OWNER	Y	Y	Y			"6733 MISSISSAUGA ROAD, SUITE 400"	MISSISSAUGA	ONTARIO	CANADA	L5N 6J5	
91799		15772	ACTAVIS PHARMA COMPANY	DIN OWNER	Y	Y	Y			"6733 MISSISSAUGA ROAD, SUITE 400"	MISSISSAUGA	ONTARIO	CANADA	L5N 6J5	
91800		15772	ACTAVIS PHARMA COMPANY	DIN OWNER	Y	Y	Y			"6733 MISSISSAUGA ROAD, SUITE 400"	MISSISSAUGA	ONTARIO	CANADA	L5N 6J5	
91801		15772	ACTAVIS PHARMA COMPANY	DIN OWNER	Y	Y	Y			"6733 MISSISSAUGA ROAD, SUITE 400"	MISSISSAUGA	ONTARIO	CANADA	L5N 6J5	
91802		15772	ACTAVIS PHARMA COMPANY	DIN OWNER	Y	Y	Y			"6733 MISSISSAUGA ROAD, SUITE 400"	MISSISSAUGA	ONTARIO	CANADA	L5N 6J5	
91803	DPC07	4065	DOMINION PHARMACAL	DIN OWNER	Y	Y	Y	N	SUITE 100	"6111, AVENUE ROYALMOUNT"	MONTREAL	QUEBEC	CANADA	H4P 2T4	
91813		15772	ACTAVIS PHARMA COMPANY	DIN OWNER	Y	Y	Y			"6733 MISSISSAUGA ROAD, SUITE 400"	MISSISSAUGA	ONTARIO	CANADA	L5N 6J5	
91814		15772	ACTAVIS PHARMA COMPANY	DIN OWNER	Y	Y	Y			"6733 MISSISSAUGA ROAD, SUITE 400"	MISSISSAUGA	ONTARIO	CANADA	L5N 6J5	
91815		15772	ACTAVIS PHARMA COMPANY	DIN OWNER	Y	Y	Y			"6733 MISSISSAUGA ROAD, SUITE 400"	MISSISSAUGA	ONTARIO	CANADA	L5N 6J5	
91816		15772	ACTAVIS PHARMA COMPANY	DIN OWNER	Y	Y	Y			"6733 MISSISSAUGA ROAD, SUITE 400"	MISSISSAUGA	ONTARIO	CANADA	L5N 6J5	
91817		15772	ACTAVIS PHARMA COMPANY	DIN OWNER	Y	Y	Y			"6733 MISSISSAUGA ROAD, SUITE 400"	MISSISSAUGA	ONTARIO	CANADA	L5N 6J5	
91818		15772	ACTAVIS PHARMA COMPANY	DIN OWNER	Y	Y	Y			"6733 MISSISSAUGA ROAD, SUITE 400"	MISSISSAUGA	ONTARIO	CANADA	L5N 6J5	
91819		15772	ACTAVIS PHARMA COMPANY	DIN OWNER	Y	Y	Y			"6733 MISSISSAUGA ROAD, SUITE 400"	MISSISSAUGA	ONTARIO	CANADA	L5N 6J5	
91821		15772	ACTAVIS PHARMA COMPANY	DIN OWNER	Y	Y	Y			"6733 MISSISSAUGA ROAD, SUITE 400"	MISSISSAUGA	ONTARIO	CANADA	L5N 6J5	
91822		15772	ACTAVIS PHARMA COMPANY	DIN OWNER	Y	Y	Y			"6733 MISSISSAUGA ROAD, SUITE 400"	MISSISSAUGA	ONTARIO	CANADA	L5N 6J5	
91823		15772	ACTAVIS PHARMA COMPANY	DIN OWNER	Y	Y	Y			"6733 MISSISSAUGA ROAD, SUITE 400"	MISSISSAUGA	ONTARIO	CANADA	L5N 6J5	
91824		15772	ACTAVIS PHARMA COMPANY	DIN OWNER	Y	Y	Y			"6733 MISSISSAUGA ROAD, SUITE 400"	MISSISSAUGA	ONTARIO	CANADA	L5N 6J5	
91828		11979	AURO PHARMA INC	DIN OWNER	Y	Y	Y			"3700 STEELES AVENUE WEST, SUITE 402"	WOODBRIDGE	ONTARIO	CANADA	L4L 8K8	
91830		11979	AURO PHARMA INC	DIN OWNER	Y	Y	Y			"3700 STEELES AVENUE WEST, SUITE 402"	WOODBRIDGE	ONTARIO	CANADA	L4L 8K8	
91831		11979	AURO PHARMA INC	DIN OWNER	Y	Y	Y			"3700 STEELES AVENUE WEST, SUITE 402"	WOODBRIDGE	ONTARIO	CANADA	L4L 8K8	
91832		11979	AURO PHARMA INC	DIN OWNER	Y	Y	Y			"3700 STEELES AVENUE WEST, SUITE 402"	WOODBRIDGE	ONTARIO	CANADA	L4L 8K8	
91834	VNA07	4280	VETOQUINOL N A INC	DIN OWNER	Y	Y	Y	N		2000 CHEMIN GEORGES	LAVALTRIE	QUEBEC	CANADA	J5T 3S5	
91841		16351	VANC PHARMACEUTICALS INC	DIN OWNER	Y	N	N			"2639 VIKING WAY, UNIT 210"	RICHMOND	BRITISH COLUMBIA	CANADA	V6V 3B7	
91842		16351	VANC PHARMACEUTICALS INC	DIN OWNER	Y	N	N			"2639 VIKING WAY, UNIT 210"	RICHMOND	BRITISH COLUMBIA	CANADA	V6V 3B7	
91843	RAX08	8892	STERIMAX INC	DIN OWNER	Y	Y	Y			2770 PORTLAND DRIVE	OAKVILLE	ONTARIO	CANADA	L6H 6R4	
91846		15176	EMPACK SPRAYTECH INC	DIN OWNER	Y	Y	Y			98 WALKER DRIVE	BRAMPTON	ONTARIO	CANADA	L6T 4H6	
91854		8388	WOOD WYANT INC	DIN OWNER	Y	Y	Y	N		42 RUE DE L'ARTISAN	VICTORIAVILLE	QUEBEC	CANADA	G6P 7E3	
91855	SNM07	5163	SANI-MARC INC	DIN OWNER	Y	Y	Y	N		"42, RUE DE L'ARTISAN"	VICTORIAVILLE	QUEBEC	CANADA	G6P 7E3	
91857	SNM07	5163	SANI-MARC INC	DIN OWNER	Y	Y	Y	N		"42, RUE DE L'ARTISAN"	VICTORIAVILLE	QUEBEC	CANADA	G6P 7E3	
91861		15772	ACTAVIS PHARMA COMPANY	DIN OWNER	Y	Y	Y			"6733 MISSISSAUGA ROAD, SUITE 400"	MISSISSAUGA	ONTARIO	CANADA	L5N 6J5	
91862		15772	ACTAVIS PHARMA COMPANY	DIN OWNER	Y	Y	Y			"6733 MISSISSAUGA ROAD, SUITE 400"	MISSISSAUGA	ONTARIO	CANADA	L5N 6J5	
91863		15772	ACTAVIS PHARMA COMPANY	DIN OWNER	Y	Y	Y			"6733 MISSISSAUGA ROAD, SUITE 400"	MISSISSAUGA	ONTARIO	CANADA	L5N 6J5	
91869		12027	SANDOZ CANADA INCORPORATED	DIN OWNER	Y	Y	Y			145 JULES-LÉGER STREET	BOUCHERVILLE	QUEBEC	CANADA	J4B 7K8	
91870		15772	ACTAVIS PHARMA COMPANY	DIN OWNER	Y	Y	Y			"6733 MISSISSAUGA ROAD, SUITE 400"	MISSISSAUGA	ONTARIO	CANADA	L5N 6J5	
91871		15772	ACTAVIS PHARMA COMPANY	DIN OWNER	Y	Y	Y			"6733 MISSISSAUGA ROAD, SUITE 400"	MISSISSAUGA	ONTARIO	CANADA	L5N 6J5	
91872		16482	SCA TISSUE NORTH AMERICA	DIN OWNER	Y	Y	N			2929 ARCH STREET	PHILADELPHIA	PENNSYLVANIA	UNITED STATES	19104	
91879		8541	VITA HEALTH PRODUCTS INC	DIN OWNER	Y	N	Y	N		150 BEGHIN AVENUE	WINNIPEG	MANITOBA	CANADA	R2J 3W2	
91883	APX08	3636	APOTEX INC	DIN OWNER	Y	Y	Y	N		150 SIGNET DRIVE	TORONTO	ONTARIO	CANADA	M9L 1T9	
91884	APX08	3636	APOTEX INC	DIN OWNER	Y	Y	Y	N		150 SIGNET DRIVE	TORONTO	ONTARIO	CANADA	M9L 1T9	
91885		15772	ACTAVIS PHARMA COMPANY	DIN OWNER	Y	Y	Y			"6733 MISSISSAUGA ROAD, SUITE 400"	MISSISSAUGA	ONTARIO	CANADA	L5N 6J5	
91891		10114	GLAXOSMITHKLINE CONSUMER HEALTHCARE INC.	DIN OWNER	Y	Y	Y			"7333 MISSISSAUGA ROAD, 4TH FLOOR"	MISSISSAUGA	ONTARIO	CANADA	L5N 6L4	
91892	JPC10	4415	JAMP PHARMA CORPORATION	DIN OWNER	Y	Y	Y	N		1310 RUE NOBEL	BOUCHERVILLE	QUEBEC	CANADA	J4B 5H3	
91893	JPC10	4415	JAMP PHARMA CORPORATION	DIN OWNER	Y	Y	Y	N		1310 RUE NOBEL	BOUCHERVILLE	QUEBEC	CANADA	J4B 5H3	
91894	JPC10	4415	JAMP PHARMA CORPORATION	DIN OWNER	Y	Y	Y	N		1310 RUE NOBEL	BOUCHERVILLE	QUEBEC	CANADA	J4B 5H3	
91895	JPC10	4415	JAMP PHARMA CORPORATION	DIN OWNER	Y	Y	Y	N		1310 RUE NOBEL	BOUCHERVILLE	QUEBEC	CANADA	J4B 5H3	
91898	JPC10	4415	JAMP PHARMA CORPORATION	DIN OWNER	Y	Y	Y	N		1310 RUE NOBEL	BOUCHERVILLE	QUEBEC	CANADA	J4B 5H3	
91899	JPC10	4415	JAMP PHARMA CORPORATION	DIN OWNER	Y	Y	Y	N		1310 RUE NOBEL	BOUCHERVILLE	QUEBEC	CANADA	J4B 5H3	
91900	JPC10	4415	JAMP PHARMA CORPORATION	DIN OWNER	Y	Y	Y	N		1310 RUE NOBEL	BOUCHERVILLE	QUEBEC	CANADA	J4B 5H3	
91901	JPC10	4415	JAMP PHARMA CORPORATION	DIN OWNER	Y	Y	Y	N		1310 RUE NOBEL	BOUCHERVILLE	QUEBEC	CANADA	J4B 5H3	
91902	JPC10	4415	JAMP PHARMA CORPORATION	DIN OWNER	Y	Y	Y	N		1310 RUE NOBEL	BOUCHERVILLE	QUEBEC	CANADA	J4B 5H3	
91904		16417	3D ECO CHEMICAL LABS	DIN OWNER	Y	Y	Y			"1885 CLEMENTS ROAD, UNIT 243"	PICKERING	ONTARIO	CANADA	L1W 3V4	
91907		16417	3D ECO CHEMICAL LABS	DIN OWNER	Y	Y	Y			"1885 CLEMENTS ROAD, UNIT 243"	PICKERING	ONTARIO	CANADA	L1W 3V4	
91908		16417	3D ECO CHEMICAL LABS	DIN OWNER	Y	Y	Y			"1885 CLEMENTS ROAD, UNIT 243"	PICKERING	ONTARIO	CANADA	L1W 3V4	
91912		15279	ZINDA PHARMA LIMITED	DIN OWNER	Y	Y	Y			4103 SHERBROOKE STREET WEST	MONTREAL	QUEBEC	CANADA	H3Z 1A7	
91913		15279	ZINDA PHARMA LIMITED	DIN OWNER	Y	Y	Y			4103 SHERBROOKE STREET WEST	MONTREAL	QUEBEC	CANADA	H3Z 1A7	
91920	PGA08	4911	PROCTER & GAMBLE INC	DIN OWNER	Y	N	N	N		4711 YONGE STREET	TORONTO	ONTARIO	CANADA	M2N 6K8	
91921	PGA08	4911	PROCTER & GAMBLE INC	DIN OWNER	Y	N	N	N		4711 YONGE STREET	TORONTO	ONTARIO	CANADA	M2N 6K8	
91922	DVE09	4091	DOMINION VETERINARY LABORATORIES LTD.	DIN OWNER	Y	Y	Y	N		1199 SANFORD STREET	WINNIPEG	MANITOBA	CANADA	R3E 3A1	
91924		15772	ACTAVIS PHARMA COMPANY	DIN OWNER	Y	Y	Y			"6733 MISSISSAUGA ROAD, SUITE 400"	MISSISSAUGA	ONTARIO	CANADA	L5N 6J5	
91925		15772	ACTAVIS PHARMA COMPANY	DIN OWNER	Y	Y	Y			"6733 MISSISSAUGA ROAD, SUITE 400"	MISSISSAUGA	ONTARIO	CANADA	L5N 6J5	
91927		7194	WECAN SALES LTD	DIN OWNER	Y	Y	Y			3768 MOUNTAIN ST	BEAMSVILLE	ONTARIO	CANADA	L0R 1B2	
91928	PGA08	4911	PROCTER & GAMBLE INC	DIN OWNER	Y	N	N	N		4711 YONGE STREET	TORONTO	ONTARIO	CANADA	M2N 6K8	
91930	DPT07	4068	DERMTEK PHARMA INC	DIN OWNER	Y	Y	Y	N	200	"1600, ROUTE TRANS-CANADIENNE"	DORVAL	QUEBEC	CANADA	H9P 1H7	
91934		16508	DR. LIN SKINCARE	DIN OWNER	Y	Y	N			"416 NORTH BEDFORD DRIVE, SUITE 100"	BEVERLY HILLS	CALIFORNIA	UNITED STATES	90210	
91935		16508	DR. LIN SKINCARE	DIN OWNER	Y	Y	N			"416 NORTH BEDFORD DRIVE, SUITE 100"	BEVERLY HILLS	CALIFORNIA	UNITED STATES	90210	
91938		9043	VIROX TECHNOLOGIES INC	DIN OWNER	Y	Y	Y	N		2770 COVENTRY ROAD	OAKVILLE	ONTARIO	CANADA	L6H 6R1	
91943	PGA08	4911	PROCTER & GAMBLE INC	DIN OWNER	Y	N	N	N		4711 YONGE STREET	TORONTO	ONTARIO	CANADA	M2N 6K8	
91944		8460	BIMEDA-MTC ANIMAL HEALTH INC	DIN OWNER	Y	Y	Y	N		420 BEAVERDALE RD.	CAMBRIDGE	ONTARIO	CANADA	N3W 2W4	
91946	NNA08	4763	NOVO NORDISK CANADA INC	DIN OWNER	Y	Y	Y	N		300-2680 SKYMARK AVENUE	MISSISSAUGA	ONTARIO	CANADA	L4W 5L6	
91947	NNA08	4763	NOVO NORDISK CANADA INC	DIN OWNER	Y	Y	Y	N		300-2680 SKYMARK AVENUE	MISSISSAUGA	ONTARIO	CANADA	L4W 5L6	
91948	NNA08	4763	NOVO NORDISK CANADA INC	DIN OWNER	Y	Y	Y	N		300-2680 SKYMARK AVENUE	MISSISSAUGA	ONTARIO	CANADA	L4W 5L6	
91949	NNA08	4763	NOVO NORDISK CANADA INC	DIN OWNER	Y	Y	Y	N		300-2680 SKYMARK AVENUE	MISSISSAUGA	ONTARIO	CANADA	L4W 5L6	
91950	NNA08	4763	NOVO NORDISK CANADA INC	DIN OWNER	Y	Y	Y	N		300-2680 SKYMARK AVENUE	MISSISSAUGA	ONTARIO	CANADA	L4W 5L6	
91951	NNA08	4763	NOVO NORDISK CANADA INC	DIN OWNER	Y	Y	Y	N		300-2680 SKYMARK AVENUE	MISSISSAUGA	ONTARIO	CANADA	L4W 5L6	
91953		16555	FRESENIUS KABI CANADA LTD	DIN OWNER	Y	Y	Y			"165 GALAXY BLVD, SUITE 100"	TORONTO	ONTARIO	CANADA	M9W 0C8	
91956		11271	RANBAXY PHARMACEUTICALS CANADA INC.	DIN OWNER	Y	Y	Y			126 EAST DRIVE	BRAMPTON	ONTARIO	CANADA	L6T 1C1	
91957		11271	RANBAXY PHARMACEUTICALS CANADA INC.	DIN OWNER	Y	Y	Y			126 EAST DRIVE	BRAMPTON	ONTARIO	CANADA	L6T 1C1	
91958		11271	RANBAXY PHARMACEUTICALS CANADA INC.	DIN OWNER	Y	Y	Y			126 EAST DRIVE	BRAMPTON	ONTARIO	CANADA	L6T 1C1	
91959		11271	RANBAXY PHARMACEUTICALS CANADA INC.	DIN OWNER	Y	Y	Y			126 EAST DRIVE	BRAMPTON	ONTARIO	CANADA	L6T 1C1	
91969	PGA08	4911	PROCTER & GAMBLE INC	DIN OWNER	Y	N	N	N		4711 YONGE STREET	TORONTO	ONTARIO	CANADA	M2N 6K8	
91970	PGA08	4911	PROCTER & GAMBLE INC	DIN OWNER	Y	N	N	N		4711 YONGE STREET	TORONTO	ONTARIO	CANADA	M2N 6K8	
91972		13829	ACCEL PHARMA INC	DIN OWNER	Y	Y	Y			99 PLACE FRONTENAC	POINTE CLAIRE	QUEBEC	CANADA	H9R 4Z7	
91974		14907	MARCAN PHARMACEUTICALS INC	DIN OWNER	Y	N	N		SUITE 4	77 AURIGA DRIVE	OTTAWA	ONTARIO	CANADA	K2E 7Z7	
91975		14907	MARCAN PHARMACEUTICALS INC	DIN OWNER	Y	N	N		SUITE 4	77 AURIGA DRIVE	OTTAWA	ONTARIO	CANADA	K2E 7Z7	
91976		14907	MARCAN PHARMACEUTICALS INC	DIN OWNER	Y	N	N		SUITE 4	77 AURIGA DRIVE	OTTAWA	ONTARIO	CANADA	K2E 7Z7	
91980		15306	"SARAH MCNAMARA BEAUTY, LLC"	DIN OWNER	Y	N	N			"100 TOWN SQUARE, 6TH FLOOR"	JERSEY CITY	NEW JERSEY	UNITED STATES	7310	
91999		15712	ACTAVIS SPECIALTY PHARMACEUTICALS CO	DIN OWNER	Y	N	Y			500-85 ENTERPRISE BLVD	MARKHAM	ONTARIO	CANADA	L6G 0B5	
92003		8927	MASON CHEMICAL COMPANY	DIN OWNER	Y	Y	N	N		"723 WEST ALGONQUIN ROAD, SUITE B"	ARLINGTON HEIGHTS	ILLINOIS	UNITED STATES	60005	
92004		8460	BIMEDA-MTC ANIMAL HEALTH INC	DIN OWNER	Y	Y	Y	N		420 BEAVERDALE RD.	CAMBRIDGE	ONTARIO	CANADA	N3W 2W4	
92006		13985	GENERIC MEDICAL PARTNERS INC	DIN OWNER	Y	Y	Y		SUITE 1200	251 CONSUMERS ROAD	TORONTO	ONTARIO	CANADA	M2J 4R3	
92007		13985	GENERIC MEDICAL PARTNERS INC	DIN OWNER	Y	Y	Y		SUITE 1200	251 CONSUMERS ROAD	TORONTO	ONTARIO	CANADA	M2J 4R3	
92009		14318	TEVA CANADA LIMITED	DIN OWNER	Y	Y	N			30 NOVOPHARM COURT	TORONTO	ONTARIO	CANADA	M1B 2K9	
92010		14133	NATURAL ESSENTIALS INC	DIN OWNER	Y	N	N			1800 MILLER PARKWAY	STREETSBORO	OHIO	UNITED STATES	44241	
92011		14133	NATURAL ESSENTIALS INC	DIN OWNER	Y	N	N			1800 MILLER PARKWAY	STREETSBORO	OHIO	UNITED STATES	44241	
92022		10577	CHIEF MEDICAL SUPPLIES LTD	DIN OWNER	Y	Y	Y			411-19 ST SE	CALGARY	ALBERTA	CANADA	T2E 6J7	
92030		10577	CHIEF MEDICAL SUPPLIES LTD	DIN OWNER	Y	Y	Y			411-19 ST SE	CALGARY	ALBERTA	CANADA	T2E 6J7	
92043		14907	MARCAN PHARMACEUTICALS INC	DIN OWNER	Y	N	N		SUITE 4	77 AURIGA DRIVE	OTTAWA	ONTARIO	CANADA	K2E 7Z7	
92044		14907	MARCAN PHARMACEUTICALS INC	DIN OWNER	Y	N	N		SUITE 4	77 AURIGA DRIVE	OTTAWA	ONTARIO	CANADA	K2E 7Z7	
92045		14907	MARCAN PHARMACEUTICALS INC	DIN OWNER	Y	N	N		SUITE 4	77 AURIGA DRIVE	OTTAWA	ONTARIO	CANADA	K2E 7Z7	
92053		15772	ACTAVIS PHARMA COMPANY	DIN OWNER	Y	Y	Y			"6733 MISSISSAUGA ROAD, SUITE 400"	MISSISSAUGA	ONTARIO	CANADA	L5N 6J5	
92054		15772	ACTAVIS PHARMA COMPANY	DIN OWNER	Y	Y	Y			"6733 MISSISSAUGA ROAD, SUITE 400"	MISSISSAUGA	ONTARIO	CANADA	L5N 6J5	
92055		14318	TEVA CANADA LIMITED	DIN OWNER	Y	Y	N			30 NOVOPHARM COURT	TORONTO	ONTARIO	CANADA	M1B 2K9	
92059	APX08	3636	APOTEX INC	DIN OWNER	Y	Y	Y	N		150 SIGNET DRIVE	TORONTO	ONTARIO	CANADA	M9L 1T9	
92060		16620	THE CHEMOURS COMPANY FC LLC	DIN OWNER	Y	Y	Y			"1007 MARKET STREET, SUITE 3048"	WILMINGTON	DELAWARE	UNITED STATES	19899	
92061	JPC10	4415	JAMP PHARMA CORPORATION	DIN OWNER	Y	Y	Y	N		1310 RUE NOBEL	BOUCHERVILLE	QUEBEC	CANADA	J4B 5H3	
92070		16568	RACINNE INTERNATIONAL BEAUTY CORPORATION	DIN OWNER	Y	Y	Y			115 - 12031 HORSESHOE WAY	RICHMOND	BRITISH COLUMBIA	CANADA	V7A 4V4	
92071		11642	HOSPIRA HEALTHCARE CORPORATION	DIN OWNER	Y	Y	Y			17300 TRANS-CANADA HIGHWAY	KIRKLAND	QUEBEC	CANADA	H9J 2M5	
92072	PMS07	3550	PHARMASCIENCE INC	DIN OWNER	Y	Y	Y	N	100	"6111, ROYALMOUNT AVENUE"	MONTREAL	QUEBEC	CANADA	H4P 2T4	
92073	PMS07	3550	PHARMASCIENCE INC	DIN OWNER	Y	Y	Y	N	100	"6111, ROYALMOUNT AVENUE"	MONTREAL	QUEBEC	CANADA	H4P 2T4	
92078		12250	MERCK CANADA INC	DIN OWNER	Y	Y	Y			16750 ROUTE TRANSCANADIENNE	KIRKLAND	QUEBEC	CANADA	H9H 4M7	
92080		16162	PAULA'S CHOICE LLC	DIN OWNER	Y	Y	N			"705 5TH AVENUE SOUTH, SUITE 200"	SEATTLE	WASHINGTON	UNITED STATES	98104	
92081		16162	PAULA'S CHOICE LLC	DIN OWNER	Y	Y	N			"705 5TH AVENUE SOUTH, SUITE 200"	SEATTLE	WASHINGTON	UNITED STATES	98104	
92083	RAX08	8892	STERIMAX INC	DIN OWNER	Y	Y	Y			2770 PORTLAND DRIVE	OAKVILLE	ONTARIO	CANADA	L6H 6R4	
92085	RAF10	4993	RAFTER 8 PRODUCTS INC	DIN OWNER	Y	Y	Y	N		87 SKYLINE CRESCENT N.E.	CALGARY	ALBERTA	CANADA	T2K 5X2	
92089		16396	INFIRST HEALTHCARE INC	DIN OWNER	Y	N	N			"7271 WARDEN AVE, SUITE 42-44"	MARKHAM	ONTARIO	CANADA	L3R 5X5	
92090		16396	INFIRST HEALTHCARE INC	DIN OWNER	Y	N	N			"7271 WARDEN AVE, SUITE 42-44"	MARKHAM	ONTARIO	CANADA	L3R 5X5	
92091		16396	INFIRST HEALTHCARE INC	DIN OWNER	Y	N	N			"7271 WARDEN AVE, SUITE 42-44"	MARKHAM	ONTARIO	CANADA	L3R 5X5	
92095		7049	VIVA PHARMACEUTICAL INC.	DIN OWNER	Y	Y	Y	N		13880 VIKING PLACE	RICHMOND	BRITISH COLUMBIA	CANADA	V6V 1K8	
92103		13032	ACCORD HEALTHCARE INC	DIN OWNER	Y	Y	Y			"3535 BOULEVARD ST-CHARLES, SUITE 704"	KIRKLAND	QUEBEC	CANADA	H9H 5B9	
92112		14318	TEVA CANADA LIMITED	DIN OWNER	Y	Y	N			30 NOVOPHARM COURT	TORONTO	ONTARIO	CANADA	M1B 2K9	
92113		14318	TEVA CANADA LIMITED	DIN OWNER	Y	Y	N			30 NOVOPHARM COURT	TORONTO	ONTARIO	CANADA	M1B 2K9	
92115		9571	PARKSIDE PROFESSIONAL PRODUCTS LTD	DIN OWNER	Y	Y	N	N		4777 KENT AVE	NIAGARA FALLS	ONTARIO	CANADA	L2H 1J5	
92118		11271	RANBAXY PHARMACEUTICALS CANADA INC.	DIN OWNER	Y	Y	Y			126 EAST DRIVE	BRAMPTON	ONTARIO	CANADA	L6T 1C1	
92119		11271	RANBAXY PHARMACEUTICALS CANADA INC.	DIN OWNER	Y	Y	Y			126 EAST DRIVE	BRAMPTON	ONTARIO	CANADA	L6T 1C1	
92120		8612	ACCUCAPS INDUSTRIES LIMITED	DIN OWNER	Y	Y	N			2125 AMBASSADOR DRIVE	WINDSOR	ONTARIO	CANADA	N9C 3R5	
92124		7049	VIVA PHARMACEUTICAL INC.	DIN OWNER	Y	Y	Y	N		13880 VIKING PLACE	RICHMOND	BRITISH COLUMBIA	CANADA	V6V 1K8	
92125		7049	VIVA PHARMACEUTICAL INC.	DIN OWNER	Y	Y	Y	N		13880 VIKING PLACE	RICHMOND	BRITISH COLUMBIA	CANADA	V6V 1K8	
92126		8541	VITA HEALTH PRODUCTS INC	DIN OWNER	Y	N	Y	N		150 BEGHIN AVENUE	WINNIPEG	MANITOBA	CANADA	R2J 3W2	
92144		13930	MYLAN PHARMACEUTICALS ULC	DIN OWNER	Y	Y	Y			85 ADVANCE ROAD	ETOBICOKE	ONTARIO	CANADA	M8Z 2S6	
92146		15083	DR REDDYS LABORATORIES LTD	DIN OWNER	Y	N	N			"SURVEY NOS 42,45,46,54 BACHUPALLY, QUTHBULLAPUR"	HYDERBAD	TELANGANA	INDIA	500090	
92147		15083	DR REDDYS LABORATORIES LTD	DIN OWNER	Y	N	N			"SURVEY NOS 42,45,46,54 BACHUPALLY, QUTHBULLAPUR"	HYDERBAD	TELANGANA	INDIA	500090	
92148		15083	DR REDDYS LABORATORIES LTD	DIN OWNER	Y	N	N			"SURVEY NOS 42,45,46,54 BACHUPALLY, QUTHBULLAPUR"	HYDERBAD	TELANGANA	INDIA	500090	
92151		8612	ACCUCAPS INDUSTRIES LIMITED	DIN OWNER	Y	Y	N			2125 AMBASSADOR DRIVE	WINDSOR	ONTARIO	CANADA	N9C 3R5	
92152		8612	ACCUCAPS INDUSTRIES LIMITED	DIN OWNER	Y	Y	N			2125 AMBASSADOR DRIVE	WINDSOR	ONTARIO	CANADA	N9C 3R5	
92154		9071	THE CLOROX COMPANY OF CANADA LTD	DIN OWNER	Y	Y	Y			150 BISCAYNE CRESCENT	BRAMPTON	ONTARIO	CANADA	L6W 4V3	
92166		13936	MANTRA PHARMA INC	DIN OWNER	Y	N	Y			"4605 B BOUL LAPINIERE, SUITE 250"	BROSSARD	QUEBEC	CANADA	J4Z 3T5	
92167		16046	OLDS SOFTGELS INC	DIN OWNER	Y	N	N			5807-47TH AVE.	OLDS	ALBERTA	CANADA	T4H 1S7	
92183	DVE09	4091	DOMINION VETERINARY LABORATORIES LTD.	DIN OWNER	Y	Y	Y	N		1199 SANFORD STREET	WINNIPEG	MANITOBA	CANADA	R3E 3A1	
92188		15687	IMAGE INTERNATIONALMANUFACTURING INC.	DIN OWNER	Y	Y	Y			7130 SEACREST BLVD	LANTANA	FLORIDA	UNITED STATES	33462	
92189		15687	IMAGE INTERNATIONALMANUFACTURING INC.	DIN OWNER	Y	Y	Y			7130 SEACREST BLVD	LANTANA	FLORIDA	UNITED STATES	33462	
92190		14256	ANGITA PHARMA INC.	DIN OWNER	Y	N	N			1380 NEWTON UNIT 203	BOUCHERVILLE	QUEBEC	CANADA	J4B 5H2	
92191		14256	ANGITA PHARMA INC.	DIN OWNER	Y	N	N			1380 NEWTON UNIT 203	BOUCHERVILLE	QUEBEC	CANADA	J4B 5H2	
92192		15687	IMAGE INTERNATIONALMANUFACTURING INC.	DIN OWNER	Y	Y	Y			7130 SEACREST BLVD	LANTANA	FLORIDA	UNITED STATES	33462	
92193		15687	IMAGE INTERNATIONALMANUFACTURING INC.	DIN OWNER	Y	Y	Y			7130 SEACREST BLVD	LANTANA	FLORIDA	UNITED STATES	33462	
92194		14907	MARCAN PHARMACEUTICALS INC	DIN OWNER	Y	N	N		SUITE 4	77 AURIGA DRIVE	OTTAWA	ONTARIO	CANADA	K2E 7Z7	
92195		14907	MARCAN PHARMACEUTICALS INC	DIN OWNER	Y	N	N		SUITE 4	77 AURIGA DRIVE	OTTAWA	ONTARIO	CANADA	K2E 7Z7	
92204		15707	INTERNATIONAL CONSOLIDATED BUSINESS INC	DIN OWNER	Y	Y	N			"19800 MACARTHUR BLVD., SUITE 300"	IRVINE	CALIFORNIA	UNITED STATES	92612	
92205		15707	INTERNATIONAL CONSOLIDATED BUSINESS INC	DIN OWNER	Y	Y	N			"19800 MACARTHUR BLVD., SUITE 300"	IRVINE	CALIFORNIA	UNITED STATES	92612	
92206		9530	FRUITS ET PASSION BOUTIQUES INC.	DIN OWNER	Y	N	Y	N		"9180 BOULEVARD LEDUC, SUITE 280"	BROSSARD	QUEBEC	CANADA	J4Y 0N7	
92208		9530	FRUITS ET PASSION BOUTIQUES INC.	DIN OWNER	Y	N	Y	N		"9180 BOULEVARD LEDUC, SUITE 280"	BROSSARD	QUEBEC	CANADA	J4Y 0N7	
92209		9530	FRUITS ET PASSION BOUTIQUES INC.	DIN OWNER	Y	N	Y	N		"9180 BOULEVARD LEDUC, SUITE 280"	BROSSARD	QUEBEC	CANADA	J4Y 0N7	
92211		9530	FRUITS ET PASSION BOUTIQUES INC.	DIN OWNER	Y	N	Y	N		"9180 BOULEVARD LEDUC, SUITE 280"	BROSSARD	QUEBEC	CANADA	J4Y 0N7	
92212		16046	OLDS SOFTGELS INC	DIN OWNER	Y	N	N			5807-47TH AVE.	OLDS	ALBERTA	CANADA	T4H 1S7	
92213		16046	OLDS SOFTGELS INC	DIN OWNER	Y	N	N			5807-47TH AVE.	OLDS	ALBERTA	CANADA	T4H 1S7	
92218	SDQ95	6574	STEPAN COMPANY	DIN OWNER	Y	Y	N	N		22 W. FRONTAGE ROAD	NORTHFIELD	ILLINOIS	UNITED STATES	60093	
92219		9152	"ADVANCED VISION RESEARCH, INC."	DIN OWNER	Y	N	N	N	275	2929 PLYMOUTH ROAD	ANN ARBOR	MICHIGAN	UNITED STATES	48105	
92220		12966	LABORATOIRE M2 INC	DIN OWNER	Y	Y	Y			4005-A RUE DE LA GARLOCK	SHERBROOKE	QUEBEC	CANADA	J1L 1W9	
92225		15877	"LABORATORIOS CASEN-FLEET, S.L.U."	DIN OWNER	Y	N	Y			"AUTOVIA DE LOGRONO, KM. 13,300"	UTEBO	ZARAGOZA	SPAIN	50180	
92227	DPC07	4065	DOMINION PHARMACAL	DIN OWNER	Y	Y	Y	N	SUITE 100	"6111, AVENUE ROYALMOUNT"	MONTREAL	QUEBEC	CANADA	H4P 2T4	
92228	DPC07	4065	DOMINION PHARMACAL	DIN OWNER	Y	Y	Y	N	SUITE 100	"6111, AVENUE ROYALMOUNT"	MONTREAL	QUEBEC	CANADA	H4P 2T4	
92229	DPC07	4065	DOMINION PHARMACAL	DIN OWNER	Y	Y	Y	N	SUITE 100	"6111, AVENUE ROYALMOUNT"	MONTREAL	QUEBEC	CANADA	H4P 2T4	
92230	DPC07	4065	DOMINION PHARMACAL	DIN OWNER	Y	Y	Y	N	SUITE 100	"6111, AVENUE ROYALMOUNT"	MONTREAL	QUEBEC	CANADA	H4P 2T4	
92232	JPC10	4415	JAMP PHARMA CORPORATION	DIN OWNER	Y	Y	Y	N		1310 RUE NOBEL	BOUCHERVILLE	QUEBEC	CANADA	J4B 5H3	
92239		13221	MINT PHARMACEUTICALS INC	DIN OWNER	Y	Y	Y		UNIT 1	1093 MEYERSIDE DRIVE	MISSISSAUGA	ONTARIO	CANADA	L5T 1J6	
92242	NVR07	7277	NOVARTIS PHARMACEUTICALS CANADA INC	DIN OWNER	Y	Y	Y	N		385 BOUCHARD BLVD	DORVAL	QUEBEC	CANADA	H9S 1A9	
92244		14907	MARCAN PHARMACEUTICALS INC	DIN OWNER	Y	N	N		SUITE 4	77 AURIGA DRIVE	OTTAWA	ONTARIO	CANADA	K2E 7Z7	
92245		14907	MARCAN PHARMACEUTICALS INC	DIN OWNER	Y	N	N		SUITE 4	77 AURIGA DRIVE	OTTAWA	ONTARIO	CANADA	K2E 7Z7	
92246		12271	KIK CUSTOM PRODUCTS	DIN OWNER	Y	N	N			33 MACINTOSH BLVD	CONCORD	ONTARIO	CANADA	L4K 4L5	
92250		13838	TORRENT PHARMACEUTICALS LIMITED	DIN OWNER	Y	N	N			AHMEDABAD-MEHSANA HIGHWAY	"TALUKA-KADI DIST. OF MEHSANA, INDRAD"	GUJARAT	INDIA	382721	
92251		13838	TORRENT PHARMACEUTICALS LIMITED	DIN OWNER	Y	N	N			AHMEDABAD-MEHSANA HIGHWAY	"TALUKA-KADI DIST. OF MEHSANA, INDRAD"	GUJARAT	INDIA	382721	
92252		13838	TORRENT PHARMACEUTICALS LIMITED	DIN OWNER	Y	N	N			AHMEDABAD-MEHSANA HIGHWAY	"TALUKA-KADI DIST. OF MEHSANA, INDRAD"	GUJARAT	INDIA	382721	
92253		13838	TORRENT PHARMACEUTICALS LIMITED	DIN OWNER	Y	N	N			AHMEDABAD-MEHSANA HIGHWAY	"TALUKA-KADI DIST. OF MEHSANA, INDRAD"	GUJARAT	INDIA	382721	
92254		13838	TORRENT PHARMACEUTICALS LIMITED	DIN OWNER	Y	N	N			AHMEDABAD-MEHSANA HIGHWAY	"TALUKA-KADI DIST. OF MEHSANA, INDRAD"	GUJARAT	INDIA	382721	
92255		13838	TORRENT PHARMACEUTICALS LIMITED	DIN OWNER	Y	N	N			AHMEDABAD-MEHSANA HIGHWAY	"TALUKA-KADI DIST. OF MEHSANA, INDRAD"	GUJARAT	INDIA	382721	
92256		13838	TORRENT PHARMACEUTICALS LIMITED	DIN OWNER	Y	N	N			AHMEDABAD-MEHSANA HIGHWAY	"TALUKA-KADI DIST. OF MEHSANA, INDRAD"	GUJARAT	INDIA	382721	
92257		13838	TORRENT PHARMACEUTICALS LIMITED	DIN OWNER	Y	N	N			AHMEDABAD-MEHSANA HIGHWAY	"TALUKA-KADI DIST. OF MEHSANA, INDRAD"	GUJARAT	INDIA	382721	
92266		8612	ACCUCAPS INDUSTRIES LIMITED	DIN OWNER	Y	Y	N			2125 AMBASSADOR DRIVE	WINDSOR	ONTARIO	CANADA	N9C 3R5	
92267		8612	ACCUCAPS INDUSTRIES LIMITED	DIN OWNER	Y	Y	N			2125 AMBASSADOR DRIVE	WINDSOR	ONTARIO	CANADA	N9C 3R5	
92270		15023	ALBERTA VETERINARY LABORATORIES LTD	DIN OWNER	Y	Y	Y			411-19TH STREET S.E.	CALGARY	ALBERTA	CANADA	T2E 6J7	
92273	MCL08	4569	MCNEIL CONSUMER HEALTHCARE DIVISION OF JOHNSON & JOHNSON INC	DIN OWNER	Y	Y	Y	N		88 MCNABB STREET	MARKHAM	ONTARIO	CANADA	L3R 5L2	
92276		16789	NOVA SCOTIA HEALTH AUTHORITY	DIN OWNER	Y	Y	Y			"1276 SOUTH PARK STREET, 1071B CENTENNIAL BUILDING CYCLOTRON FACILITY"	HALIFAX	NOVA SCOTIA	CANADA	B3H 2Y9	
92279		9071	THE CLOROX COMPANY OF CANADA LTD	DIN OWNER	Y	Y	Y			150 BISCAYNE CRESCENT	BRAMPTON	ONTARIO	CANADA	L6W 4V3	
92280	AVM07	3684	AVMOR LTD	DIN OWNER	Y	Y	Y	N		950 MICHELIN	LAVAL	QUEBEC	CANADA	H7L 5C1	
92281		12463	GENMED A DIVISION OF PFIZER CANADA INC	DIN OWNER	Y	Y	Y			17300 TRANS CANADA HIGHWAY	KIRKLAND	QUEBEC	CANADA	H9J 2M5	
92282		12463	GENMED A DIVISION OF PFIZER CANADA INC	DIN OWNER	Y	Y	Y			17300 TRANS CANADA HIGHWAY	KIRKLAND	QUEBEC	CANADA	H9J 2M5	
92283		12463	GENMED A DIVISION OF PFIZER CANADA INC	DIN OWNER	Y	Y	Y			17300 TRANS CANADA HIGHWAY	KIRKLAND	QUEBEC	CANADA	H9J 2M5	
92285		11271	RANBAXY PHARMACEUTICALS CANADA INC.	DIN OWNER	Y	Y	Y			126 EAST DRIVE	BRAMPTON	ONTARIO	CANADA	L6T 1C1	
92286		11271	RANBAXY PHARMACEUTICALS CANADA INC.	DIN OWNER	Y	Y	Y			126 EAST DRIVE	BRAMPTON	ONTARIO	CANADA	L6T 1C1	
92287		11271	RANBAXY PHARMACEUTICALS CANADA INC.	DIN OWNER	Y	Y	Y			126 EAST DRIVE	BRAMPTON	ONTARIO	CANADA	L6T 1C1	
92288		11271	RANBAXY PHARMACEUTICALS CANADA INC.	DIN OWNER	Y	Y	Y			126 EAST DRIVE	BRAMPTON	ONTARIO	CANADA	L6T 1C1	
92289	DIV08	4044	DIVERSEY INC	DIN OWNER	Y	N	N	N		P.O. BOX 19747	CHARLOTTE	NORTH CAROLINA	UNITED STATES	28219	
92295		13032	ACCORD HEALTHCARE INC	DIN OWNER	Y	Y	Y			"3535 BOULEVARD ST-CHARLES, SUITE 704"	KIRKLAND	QUEBEC	CANADA	H9H 5B9	
92299	LKJ07	4507	LANCOME CANADA	DIN OWNER	Y	N	N	N		4895 HICKMORE	MONTREAL	QUEBEC	CANADA	H4T 1K5	
92300		12250	MERCK CANADA INC	DIN OWNER	Y	Y	Y			16750 ROUTE TRANSCANADIENNE	KIRKLAND	QUEBEC	CANADA	H9H 4M7	
92301		12250	MERCK CANADA INC	DIN OWNER	Y	Y	Y			16750 ROUTE TRANSCANADIENNE	KIRKLAND	QUEBEC	CANADA	H9H 4M7	
92303		7049	VIVA PHARMACEUTICAL INC.	DIN OWNER	Y	Y	Y	N		13880 VIKING PLACE	RICHMOND	BRITISH COLUMBIA	CANADA	V6V 1K8	
92306		13032	ACCORD HEALTHCARE INC	DIN OWNER	Y	Y	Y			"3535 BOULEVARD ST-CHARLES, SUITE 704"	KIRKLAND	QUEBEC	CANADA	H9H 5B9	
92307		13032	ACCORD HEALTHCARE INC	DIN OWNER	Y	Y	Y			"3535 BOULEVARD ST-CHARLES, SUITE 704"	KIRKLAND	QUEBEC	CANADA	H9H 5B9	
92312		9071	THE CLOROX COMPANY OF CANADA LTD	DIN OWNER	Y	Y	Y			150 BISCAYNE CRESCENT	BRAMPTON	ONTARIO	CANADA	L6W 4V3	
92317		16351	VANC PHARMACEUTICALS INC	DIN OWNER	Y	N	N			"2639 VIKING WAY, UNIT 210"	RICHMOND	BRITISH COLUMBIA	CANADA	V6V 3B7	
92320		16351	VANC PHARMACEUTICALS INC	DIN OWNER	Y	N	N			"2639 VIKING WAY, UNIT 210"	RICHMOND	BRITISH COLUMBIA	CANADA	V6V 3B7	
92321		16351	VANC PHARMACEUTICALS INC	DIN OWNER	Y	N	N			"2639 VIKING WAY, UNIT 210"	RICHMOND	BRITISH COLUMBIA	CANADA	V6V 3B7	
92322		16351	VANC PHARMACEUTICALS INC	DIN OWNER	Y	N	N			"2639 VIKING WAY, UNIT 210"	RICHMOND	BRITISH COLUMBIA	CANADA	V6V 3B7	
92323		16351	VANC PHARMACEUTICALS INC	DIN OWNER	Y	N	N			"2639 VIKING WAY, UNIT 210"	RICHMOND	BRITISH COLUMBIA	CANADA	V6V 3B7	
92329		13032	ACCORD HEALTHCARE INC	DIN OWNER	Y	Y	Y			"3535 BOULEVARD ST-CHARLES, SUITE 704"	KIRKLAND	QUEBEC	CANADA	H9H 5B9	
92330		13032	ACCORD HEALTHCARE INC	DIN OWNER	Y	Y	Y			"3535 BOULEVARD ST-CHARLES, SUITE 704"	KIRKLAND	QUEBEC	CANADA	H9H 5B9	
92331		13032	ACCORD HEALTHCARE INC	DIN OWNER	Y	Y	Y			"3535 BOULEVARD ST-CHARLES, SUITE 704"	KIRKLAND	QUEBEC	CANADA	H9H 5B9	
92332		13032	ACCORD HEALTHCARE INC	DIN OWNER	Y	Y	Y			"3535 BOULEVARD ST-CHARLES, SUITE 704"	KIRKLAND	QUEBEC	CANADA	H9H 5B9	
92334		9530	FRUITS ET PASSION BOUTIQUES INC.	DIN OWNER	Y	N	Y	N		"9180 BOULEVARD LEDUC, SUITE 280"	BROSSARD	QUEBEC	CANADA	J4Y 0N7	
92339		14108	TAKEDA CANADA INC	DIN OWNER	Y	N	N			"2201BRISTOL CIRCLE, SUITE 700"	OAKVILLE	ONTARIO	CANADA	L6H 0J8	
92340		14108	TAKEDA CANADA INC	DIN OWNER	Y	N	N			"2201BRISTOL CIRCLE, SUITE 700"	OAKVILLE	ONTARIO	CANADA	L6H 0J8	
92343		7049	VIVA PHARMACEUTICAL INC.	DIN OWNER	Y	Y	Y	N		13880 VIKING PLACE	RICHMOND	BRITISH COLUMBIA	CANADA	V6V 1K8	
92344		16617	ZARIVA PHARMACEUTICALS LTD	DIN OWNER	Y	Y	Y			295 COLLEGE STREET	TORONTO	ONTARIO	CANADA	M5T 1S2	
92345	JPC10	4415	JAMP PHARMA CORPORATION	DIN OWNER	Y	Y	Y	N		1310 RUE NOBEL	BOUCHERVILLE	QUEBEC	CANADA	J4B 5H3	
92346	JPC10	4415	JAMP PHARMA CORPORATION	DIN OWNER	Y	Y	Y	N		1310 RUE NOBEL	BOUCHERVILLE	QUEBEC	CANADA	J4B 5H3	
92361		7049	VIVA PHARMACEUTICAL INC.	DIN OWNER	Y	Y	Y	N		13880 VIKING PLACE	RICHMOND	BRITISH COLUMBIA	CANADA	V6V 1K8	
92368		16680	MAINTEX INC	DIN OWNER	Y	Y	Y			13300 EAST NELSON AVENUE	CITY OF INDUSTRY	CALIFORNIA	UNITED STATES	91746	
92369		11271	RANBAXY PHARMACEUTICALS CANADA INC.	DIN OWNER	Y	Y	Y			126 EAST DRIVE	BRAMPTON	ONTARIO	CANADA	L6T 1C1	
92372		13032	ACCORD HEALTHCARE INC	DIN OWNER	Y	Y	Y			"3535 BOULEVARD ST-CHARLES, SUITE 704"	KIRKLAND	QUEBEC	CANADA	H9H 5B9	
92373		13032	ACCORD HEALTHCARE INC	DIN OWNER	Y	Y	Y			"3535 BOULEVARD ST-CHARLES, SUITE 704"	KIRKLAND	QUEBEC	CANADA	H9H 5B9	
92374		16555	FRESENIUS KABI CANADA LTD	DIN OWNER	Y	Y	Y			"165 GALAXY BLVD, SUITE 100"	TORONTO	ONTARIO	CANADA	M9W 0C8	
92375		16555	FRESENIUS KABI CANADA LTD	DIN OWNER	Y	Y	Y			"165 GALAXY BLVD, SUITE 100"	TORONTO	ONTARIO	CANADA	M9W 0C8	
92376		16555	FRESENIUS KABI CANADA LTD	DIN OWNER	Y	Y	Y			"165 GALAXY BLVD, SUITE 100"	TORONTO	ONTARIO	CANADA	M9W 0C8	
92377		16555	FRESENIUS KABI CANADA LTD	DIN OWNER	Y	Y	Y			"165 GALAXY BLVD, SUITE 100"	TORONTO	ONTARIO	CANADA	M9W 0C8	
92378		11642	HOSPIRA HEALTHCARE CORPORATION	DIN OWNER	Y	Y	Y			17300 TRANS-CANADA HIGHWAY	KIRKLAND	QUEBEC	CANADA	H9J 2M5	
92382		11642	HOSPIRA HEALTHCARE CORPORATION	DIN OWNER	Y	Y	Y			17300 TRANS-CANADA HIGHWAY	KIRKLAND	QUEBEC	CANADA	H9J 2M5	
92383		11642	HOSPIRA HEALTHCARE CORPORATION	DIN OWNER	Y	Y	Y			17300 TRANS-CANADA HIGHWAY	KIRKLAND	QUEBEC	CANADA	H9J 2M5	
92384		11642	HOSPIRA HEALTHCARE CORPORATION	DIN OWNER	Y	Y	Y			17300 TRANS-CANADA HIGHWAY	KIRKLAND	QUEBEC	CANADA	H9J 2M5	
92386	CVH08	5793	CAN-VET ANIMAL HEALTH SUPPLIES LTD.	DIN OWNER	Y	Y	Y	N	4	61 MALCOLM ROAD	GUELPH	ONTARIO	CANADA	N1K 1A7	
92389		16481	CANADIAN NATIONAL PHARMA GROUP INC	DIN OWNER	Y	N	N			31270 WHEEL AVENUE	ABBOTSFORD	BRITISH COLUMBIA	CANADA	V2T 6H1	
92393		14962	JUBILANT HOLLISTERSTIER LLC	DIN OWNER	Y	Y	Y			3525 NORTH REGAL STREET	SPOKANE	WASHINGTON	UNITED STATES	99207	
92403		11902	VALEANT CANADA LP/VALEANT CANADA S.E.C.	DIN OWNER	Y	Y	Y			2150 BOUL. ST-ELZEAR OUEST	LAVAL	QUEBEC	CANADA	H7L 4A8	
92404		11902	VALEANT CANADA LP/VALEANT CANADA S.E.C.	DIN OWNER	Y	Y	Y			2150 BOUL. ST-ELZEAR OUEST	LAVAL	QUEBEC	CANADA	H7L 4A8	
92407		16405	ALERA SKIN CARE PRODUCTS INC.	DIN OWNER	Y	Y	N			11400 TWIGG PLACE - UNIT 1	RICHMOND	BRITISH COLUMBIA	CANADA	V6V 3C1	
92409	APX08	3636	APOTEX INC	DIN OWNER	Y	Y	Y	N		150 SIGNET DRIVE	TORONTO	ONTARIO	CANADA	M9L 1T9	
92410	APX08	3636	APOTEX INC	DIN OWNER	Y	Y	Y	N		150 SIGNET DRIVE	TORONTO	ONTARIO	CANADA	M9L 1T9	
92411		12027	SANDOZ CANADA INCORPORATED	DIN OWNER	Y	Y	Y			145 JULES-LÉGER STREET	BOUCHERVILLE	QUEBEC	CANADA	J4B 7K8	
92414		14803	JUBILANT GENERICS LIMITED	DIN OWNER	Y	Y	N			"1A, SECTOR 16A INSTITUTIONAL AREA"	NOIDA	UTTAR PRADESH	INDIA	201301	
92415		14803	JUBILANT GENERICS LIMITED	DIN OWNER	Y	Y	N			"1A, SECTOR 16A INSTITUTIONAL AREA"	NOIDA	UTTAR PRADESH	INDIA	201301	
92416		14803	JUBILANT GENERICS LIMITED	DIN OWNER	Y	Y	N			"1A, SECTOR 16A INSTITUTIONAL AREA"	NOIDA	UTTAR PRADESH	INDIA	201301	
92417		16705	"SKIN MEDICA INC, AN ALLERGAN COMPANY"	DIN OWNER	Y	N	Y			2525 DUPONT DRIVE	IRVINE	CALIFORNIA	UNITED STATES	92612	
92418		13032	ACCORD HEALTHCARE INC	DIN OWNER	Y	Y	Y			"3535 BOULEVARD ST-CHARLES, SUITE 704"	KIRKLAND	QUEBEC	CANADA	H9H 5B9	
92419		13032	ACCORD HEALTHCARE INC	DIN OWNER	Y	Y	Y			"3535 BOULEVARD ST-CHARLES, SUITE 704"	KIRKLAND	QUEBEC	CANADA	H9H 5B9	
92420		13032	ACCORD HEALTHCARE INC	DIN OWNER	Y	Y	Y			"3535 BOULEVARD ST-CHARLES, SUITE 704"	KIRKLAND	QUEBEC	CANADA	H9H 5B9	
92421		13032	ACCORD HEALTHCARE INC	DIN OWNER	Y	Y	Y			"3535 BOULEVARD ST-CHARLES, SUITE 704"	KIRKLAND	QUEBEC	CANADA	H9H 5B9	
92422		13032	ACCORD HEALTHCARE INC	DIN OWNER	Y	Y	Y			"3535 BOULEVARD ST-CHARLES, SUITE 704"	KIRKLAND	QUEBEC	CANADA	H9H 5B9	
92423		8189	GUARDIAN DRUG COMPANY INC	DIN OWNER	Y	Y	N			2 CHARLES COURT	DAYTON	NEW JERSEY	UNITED STATES	08810-1508	
92424		8916	METHAPHARM INC	DIN OWNER	Y	Y	Y	N		81 SINCLAIR BLVD	BRANTFORD	ONTARIO	CANADA	N3S 7X6	
92425		8916	METHAPHARM INC	DIN OWNER	Y	Y	Y	N		81 SINCLAIR BLVD	BRANTFORD	ONTARIO	CANADA	N3S 7X6	
92426		16705	"SKIN MEDICA INC, AN ALLERGAN COMPANY"	DIN OWNER	Y	N	Y			2525 DUPONT DRIVE	IRVINE	CALIFORNIA	UNITED STATES	92612	
92427		16693	INNOVATIVE SKINCARE	DIN OWNER	Y	Y	Y			3333 N SAN FERNANDO BLVD	BURBANK	CALIFORNIA	UNITED STATES	91504	
92429		16705	"SKIN MEDICA INC, AN ALLERGAN COMPANY"	DIN OWNER	Y	N	Y			2525 DUPONT DRIVE	IRVINE	CALIFORNIA	UNITED STATES	92612	
92430		16133	ISOLOGIC INNOVATIVE RADIOPHARMACEUTICALS LTD.	DIN OWNER	Y	N	Y			1855 32ND AVENUE	LACHINE	QUEBEC	CANADA	H8T 3J1	
92437		11438	ARIVAC INC.	DIN OWNER	Y	Y	Y			1230 DU BOISE	BOUCHERVILLE	QUEBEC	CANADA	J4B 8R1	
92448		13930	MYLAN PHARMACEUTICALS ULC	DIN OWNER	Y	Y	Y			85 ADVANCE ROAD	ETOBICOKE	ONTARIO	CANADA	M8Z 2S6	
92461		13741	PHARMAPAR INC	DIN OWNER	Y	Y	N			"1565 BOUL LIONEL-BOULET	"	VARENNES	QUEBEC	CANADA	J3X 1P7	
92462		13741	PHARMAPAR INC	DIN OWNER	Y	Y	N			"1565 BOUL LIONEL-BOULET	"	VARENNES	QUEBEC	CANADA	J3X 1P7	
92463		13741	PHARMAPAR INC	DIN OWNER	Y	Y	N			"1565 BOUL LIONEL-BOULET	"	VARENNES	QUEBEC	CANADA	J3X 1P7	
92464		14461	SEPTA PHARMACEUTICALS INC	DIN OWNER	Y	Y	N			7490 PACIFIC CIRCLE UNIT #1	MISSISSAUGA	ONTARIO	CANADA	L5T 2A3	
92465		14461	SEPTA PHARMACEUTICALS INC	DIN OWNER	Y	Y	N			7490 PACIFIC CIRCLE UNIT #1	MISSISSAUGA	ONTARIO	CANADA	L5T 2A3	
92471		13741	PHARMAPAR INC	DIN OWNER	Y	Y	N			"1565 BOUL LIONEL-BOULET	"	VARENNES	QUEBEC	CANADA	J3X 1P7	
92496		14907	MARCAN PHARMACEUTICALS INC	DIN OWNER	Y	N	N		SUITE 4	77 AURIGA DRIVE	OTTAWA	ONTARIO	CANADA	K2E 7Z7	
92499		16716	QUEST PRODUCTS INC	DIN OWNER	Y	Y	Y			"8201 104 ST, SUITE 200"	PLEASANT PRAIRIE	WISCONSIN	UNITED STATES	53158	
92501		13032	ACCORD HEALTHCARE INC	DIN OWNER	Y	Y	Y			"3535 BOULEVARD ST-CHARLES, SUITE 704"	KIRKLAND	QUEBEC	CANADA	H9H 5B9	
92502		13032	ACCORD HEALTHCARE INC	DIN OWNER	Y	Y	Y			"3535 BOULEVARD ST-CHARLES, SUITE 704"	KIRKLAND	QUEBEC	CANADA	H9H 5B9	
92503		13032	ACCORD HEALTHCARE INC	DIN OWNER	Y	Y	Y			"3535 BOULEVARD ST-CHARLES, SUITE 704"	KIRKLAND	QUEBEC	CANADA	H9H 5B9	
92511		14461	SEPTA PHARMACEUTICALS INC	DIN OWNER	Y	Y	N			7490 PACIFIC CIRCLE UNIT #1	MISSISSAUGA	ONTARIO	CANADA	L5T 2A3	
92512		14461	SEPTA PHARMACEUTICALS INC	DIN OWNER	Y	Y	N			7490 PACIFIC CIRCLE UNIT #1	MISSISSAUGA	ONTARIO	CANADA	L5T 2A3	
92514		15077	DENTEC SAFETY SPECIALISTS INC	DIN OWNER	Y	Y	Y			100 HARRY WALKER PKWY NORTH	NEWMARKET	ONTARIO	CANADA	L3Y 7B2	
92515		15077	DENTEC SAFETY SPECIALISTS INC	DIN OWNER	Y	Y	Y			100 HARRY WALKER PKWY NORTH	NEWMARKET	ONTARIO	CANADA	L3Y 7B2	
92527		16669	ZHEJIANGH HONGYU MEDICAL COMMODITY CO LTD	DIN OWNER	Y	N	Y			668 CHANHUA ROAD YINAN INDUSTRIAL DISTRICT	YIWU CITY	ZHEJIANG	CHINA	322002	
92529	TAR08	5241	TARO PHARMACEUTICALS INC	DIN OWNER	Y	Y	N	N		130 EAST DRIVE	BRAMPTON	ONTARIO	CANADA	L6T 1C1	
92540		16113	DECON7 SYSTEMS LLC	DIN OWNER	Y	Y	Y			"8541 EAST ANDERSON DR, SUTIE 106"	SCOTTSDALE	ARIZONA	UNITED STATES	85255	
92541		8189	GUARDIAN DRUG COMPANY INC	DIN OWNER	Y	Y	N			2 CHARLES COURT	DAYTON	NEW JERSEY	UNITED STATES	08810-1508	
92543		15772	ACTAVIS PHARMA COMPANY	DIN OWNER	Y	Y	Y			"6733 MISSISSAUGA ROAD, SUITE 400"	MISSISSAUGA	ONTARIO	CANADA	L5N 6J5	
92557	PVD08	7022	PHARM VET LTD.	DIN OWNER	Y	N	N	N		800 MAIN ST.	WINNIPEG	MANITOBA	CANADA	R2W 3R4	3506 REDWOOD CN
92559		14256	ANGITA PHARMA INC.	DIN OWNER	Y	N	N			1380 NEWTON UNIT 203	BOUCHERVILLE	QUEBEC	CANADA	J4B 5H2	
92560		14256	ANGITA PHARMA INC.	DIN OWNER	Y	N	N			1380 NEWTON UNIT 203	BOUCHERVILLE	QUEBEC	CANADA	J4B 5H2	
92561		14256	ANGITA PHARMA INC.	DIN OWNER	Y	N	N			1380 NEWTON UNIT 203	BOUCHERVILLE	QUEBEC	CANADA	J4B 5H2	
92562		13930	MYLAN PHARMACEUTICALS ULC	DIN OWNER	Y	Y	Y			85 ADVANCE ROAD	ETOBICOKE	ONTARIO	CANADA	M8Z 2S6	
92563		13930	MYLAN PHARMACEUTICALS ULC	DIN OWNER	Y	Y	Y			85 ADVANCE ROAD	ETOBICOKE	ONTARIO	CANADA	M8Z 2S6	
92565	CLQ08	3916	CLINIQUE LABORATORIES DIST	DIN OWNER	Y	N	N	N		550 PETROLIA ROAD	TORONTO	ONTARIO	CANADA	M3J 2W3	
92571	GAC08	4225	GALDERMA CANADA INC	DIN OWNER	Y	Y	Y	N		55 COMMERCE VALLEY DRIVE WEST	THORNHILL	ONTARIO	CANADA	L3T 7V9	
92575		12463	GENMED A DIVISION OF PFIZER CANADA INC	DIN OWNER	Y	Y	Y			17300 TRANS CANADA HIGHWAY	KIRKLAND	QUEBEC	CANADA	H9J 2M5	
92576		12463	GENMED A DIVISION OF PFIZER CANADA INC	DIN OWNER	Y	Y	Y			17300 TRANS CANADA HIGHWAY	KIRKLAND	QUEBEC	CANADA	H9J 2M5	
92577		12463	GENMED A DIVISION OF PFIZER CANADA INC	DIN OWNER	Y	Y	Y			17300 TRANS CANADA HIGHWAY	KIRKLAND	QUEBEC	CANADA	H9J 2M5	
92578		12463	GENMED A DIVISION OF PFIZER CANADA INC	DIN OWNER	Y	Y	Y			17300 TRANS CANADA HIGHWAY	KIRKLAND	QUEBEC	CANADA	H9J 2M5	
92579	PDL07	4901	PRO DOC LIMITEE	DIN OWNER	Y	Y	N	N		2925 BOULEVARD INDUSTRIEL	LAVAL	QUEBEC	CANADA	H7L 3W9	
92580	PMS07	3550	PHARMASCIENCE INC	DIN OWNER	Y	Y	Y	N	100	"6111, ROYALMOUNT AVENUE"	MONTREAL	QUEBEC	CANADA	H4P 2T4	
92582		14318	TEVA CANADA LIMITED	DIN OWNER	Y	Y	N			30 NOVOPHARM COURT	TORONTO	ONTARIO	CANADA	M1B 2K9	
92584	OMG07	4852	OMEGA LABORATORIES LTD	DIN OWNER	Y	Y	Y	N		11177 HAMON	MONTREAL	QUEBEC	CANADA	H3M 3E4	
92585	OMG07	4852	OMEGA LABORATORIES LTD	DIN OWNER	Y	Y	Y	N		11177 HAMON	MONTREAL	QUEBEC	CANADA	H3M 3E4	
92588	APX08	3636	APOTEX INC	DIN OWNER	Y	Y	Y	N		150 SIGNET DRIVE	TORONTO	ONTARIO	CANADA	M9L 1T9	
92589	APX08	3636	APOTEX INC	DIN OWNER	Y	Y	Y	N		150 SIGNET DRIVE	TORONTO	ONTARIO	CANADA	M9L 1T9	
92590	APX08	3636	APOTEX INC	DIN OWNER	Y	Y	Y	N		150 SIGNET DRIVE	TORONTO	ONTARIO	CANADA	M9L 1T9	
92591		13985	GENERIC MEDICAL PARTNERS INC	DIN OWNER	Y	Y	Y		SUITE 1200	251 CONSUMERS ROAD	TORONTO	ONTARIO	CANADA	M2J 4R3	
92597		16715	DREW MARINE	DIN OWNER	Y	N	Y			100 SOUTH JEFFERSON ROAD	WHIPPANY	NEW JERSEY	UNITED STATES	7981	
92599		17006	MALLINCKRODT RP CANADA INC	DIN OWNER	Y	Y	Y			"3333 BOULEVEARD COTE-VERTU, SUITE 202"	SAINT LAURENT	QUEBEC	CANADA	H4R 2N1	
92605		12463	GENMED A DIVISION OF PFIZER CANADA INC	DIN OWNER	Y	Y	Y			17300 TRANS CANADA HIGHWAY	KIRKLAND	QUEBEC	CANADA	H9J 2M5	
92606		12463	GENMED A DIVISION OF PFIZER CANADA INC	DIN OWNER	Y	Y	Y			17300 TRANS CANADA HIGHWAY	KIRKLAND	QUEBEC	CANADA	H9J 2M5	
92607		12463	GENMED A DIVISION OF PFIZER CANADA INC	DIN OWNER	Y	Y	Y			17300 TRANS CANADA HIGHWAY	KIRKLAND	QUEBEC	CANADA	H9J 2M5	
92610	RAX08	8892	STERIMAX INC	DIN OWNER	Y	Y	Y			2770 PORTLAND DRIVE	OAKVILLE	ONTARIO	CANADA	L6H 6R4	
92611	RAX08	8892	STERIMAX INC	DIN OWNER	Y	Y	Y			2770 PORTLAND DRIVE	OAKVILLE	ONTARIO	CANADA	L6H 6R4	
92612	RAX08	8892	STERIMAX INC	DIN OWNER	Y	Y	Y			2770 PORTLAND DRIVE	OAKVILLE	ONTARIO	CANADA	L6H 6R4	
92613	RAX08	8892	STERIMAX INC	DIN OWNER	Y	Y	Y			2770 PORTLAND DRIVE	OAKVILLE	ONTARIO	CANADA	L6H 6R4	
92614	RAX08	8892	STERIMAX INC	DIN OWNER	Y	Y	Y			2770 PORTLAND DRIVE	OAKVILLE	ONTARIO	CANADA	L6H 6R4	
92615		15590	CEVA ANIMAL HEALTH INC	DIN OWNER	Y	Y	Y			"1040 FOUNTAIN STREET NORTH, UNIT 6"	CAMBRIDGE	ONTARIO	CANADA	N3E 1A3	
92616		12463	GENMED A DIVISION OF PFIZER CANADA INC	DIN OWNER	Y	Y	Y			17300 TRANS CANADA HIGHWAY	KIRKLAND	QUEBEC	CANADA	H9J 2M5	
92617		15590	CEVA ANIMAL HEALTH INC	DIN OWNER	Y	Y	Y			"1040 FOUNTAIN STREET NORTH, UNIT 6"	CAMBRIDGE	ONTARIO	CANADA	N3E 1A3	
92618		15590	CEVA ANIMAL HEALTH INC	DIN OWNER	Y	Y	Y			"1040 FOUNTAIN STREET NORTH, UNIT 6"	CAMBRIDGE	ONTARIO	CANADA	N3E 1A3	
92619		15590	CEVA ANIMAL HEALTH INC	DIN OWNER	Y	Y	Y			"1040 FOUNTAIN STREET NORTH, UNIT 6"	CAMBRIDGE	ONTARIO	CANADA	N3E 1A3	
92620		15590	CEVA ANIMAL HEALTH INC	DIN OWNER	Y	Y	Y			"1040 FOUNTAIN STREET NORTH, UNIT 6"	CAMBRIDGE	ONTARIO	CANADA	N3E 1A3	
92622	GAC08	4225	GALDERMA CANADA INC	DIN OWNER	Y	Y	Y	N		55 COMMERCE VALLEY DRIVE WEST	THORNHILL	ONTARIO	CANADA	L3T 7V9	
92627		12027	SANDOZ CANADA INCORPORATED	DIN OWNER	Y	Y	Y			145 JULES-LÉGER STREET	BOUCHERVILLE	QUEBEC	CANADA	J4B 7K8	
92628		12027	SANDOZ CANADA INCORPORATED	DIN OWNER	Y	Y	Y			145 JULES-LÉGER STREET	BOUCHERVILLE	QUEBEC	CANADA	J4B 7K8	
92629	RIV07	5034	LABORATOIRE RIVA INC	DIN OWNER	Y	Y	N	N		660 BOUL. INDUSTRIEL	BLAINVILLE	QUEBEC	CANADA	J7C 3V4	
92634	PVD08	7022	PHARM VET LTD.	DIN OWNER	Y	N	N	N		800 MAIN ST.	WINNIPEG	MANITOBA	CANADA	R2W 3R4	3506 REDWOOD CN
92635	BEG95	3724	BEAUTICONTROL INC.	DIN OWNER	Y	Y	Y	N		PO BOX 815189	DALLAS	TEXAS	UNITED STATES	75381	
92644		11979	AURO PHARMA INC	DIN OWNER	Y	Y	Y			"3700 STEELES AVENUE WEST, SUITE 402"	WOODBRIDGE	ONTARIO	CANADA	L4L 8K8	
92645		11979	AURO PHARMA INC	DIN OWNER	Y	Y	Y			"3700 STEELES AVENUE WEST, SUITE 402"	WOODBRIDGE	ONTARIO	CANADA	L4L 8K8	
92646		14238	VISPAK INC	DIN OWNER	Y	Y	Y			174 MERIZZI	MONTREAL	QUEBEC	CANADA	H4T 1S4	
92650		12027	SANDOZ CANADA INCORPORATED	DIN OWNER	Y	Y	Y			145 JULES-LÉGER STREET	BOUCHERVILLE	QUEBEC	CANADA	J4B 7K8	
92651		12027	SANDOZ CANADA INCORPORATED	DIN OWNER	Y	Y	Y			145 JULES-LÉGER STREET	BOUCHERVILLE	QUEBEC	CANADA	J4B 7K8	
92660	ELC08	5490	ESTEE LAUDER DIST	DIN OWNER	Y	N	N	N		550 PETROLIA ROAD	TORONTO	ONTARIO	CANADA	M3J 2W3	
92668		16417	3D ECO CHEMICAL LABS	DIN OWNER	Y	Y	Y			"1885 CLEMENTS ROAD, UNIT 243"	PICKERING	ONTARIO	CANADA	L1W 3V4	
92669	NEK08	6333	MICRYLIUM LABORATORIES INC.	DIN OWNER	Y	N	N	N		5000-M DUFFERIN STREET	TORONTO	ONTARIO	CANADA	M3H 5T5	
92672	JPC10	4415	JAMP PHARMA CORPORATION	DIN OWNER	Y	Y	Y	N		1310 RUE NOBEL	BOUCHERVILLE	QUEBEC	CANADA	J4B 5H3	
92673	JPC10	4415	JAMP PHARMA CORPORATION	DIN OWNER	Y	Y	Y	N		1310 RUE NOBEL	BOUCHERVILLE	QUEBEC	CANADA	J4B 5H3	
92674		13221	MINT PHARMACEUTICALS INC	DIN OWNER	Y	Y	Y		UNIT 1	1093 MEYERSIDE DRIVE	MISSISSAUGA	ONTARIO	CANADA	L5T 1J6	
92675		13221	MINT PHARMACEUTICALS INC	DIN OWNER	Y	Y	Y		UNIT 1	1093 MEYERSIDE DRIVE	MISSISSAUGA	ONTARIO	CANADA	L5T 1J6	
92676		13221	MINT PHARMACEUTICALS INC	DIN OWNER	Y	Y	Y		UNIT 1	1093 MEYERSIDE DRIVE	MISSISSAUGA	ONTARIO	CANADA	L5T 1J6	
92682	PGA08	4911	PROCTER & GAMBLE INC	DIN OWNER	Y	N	N	N		4711 YONGE STREET	TORONTO	ONTARIO	CANADA	M2N 6K8	
92703	VKE95	7060	VIRBAC AH INC	DIN OWNER	Y	N	N	N		3200 MEACHAM BOULEVARD	FORT WORTH	TEXAS	UNITED STATES	76137	
92704	VKE95	7060	VIRBAC AH INC	DIN OWNER	Y	N	N	N		3200 MEACHAM BOULEVARD	FORT WORTH	TEXAS	UNITED STATES	76137	
92705	VKE95	7060	VIRBAC AH INC	DIN OWNER	Y	N	N	N		3200 MEACHAM BOULEVARD	FORT WORTH	TEXAS	UNITED STATES	76137	
92709		10774	BAYER INC	DIN OWNER	Y	N	Y			2920 MATHESON BLVD EAST	MISSISSAUGA	ONTARIO	CANADA	L4W 5R6	
92713		13930	MYLAN PHARMACEUTICALS ULC	DIN OWNER	Y	Y	Y			85 ADVANCE ROAD	ETOBICOKE	ONTARIO	CANADA	M8Z 2S6	
92720	PMT07	4933	PHARMETICS (2011) INC	DIN OWNER	Y	Y	Y	N		3695 AUTOROUTE DES LAURENTIDES	LAVAL	QUEBEC	CANADA	H7L 3H7	
92721	PMT07	4933	PHARMETICS (2011) INC	DIN OWNER	Y	Y	Y	N		3695 AUTOROUTE DES LAURENTIDES	LAVAL	QUEBEC	CANADA	H7L 3H7	
92726		14907	MARCAN PHARMACEUTICALS INC	DIN OWNER	Y	N	N		SUITE 4	77 AURIGA DRIVE	OTTAWA	ONTARIO	CANADA	K2E 7Z7	
92727		14907	MARCAN PHARMACEUTICALS INC	DIN OWNER	Y	N	N		SUITE 4	77 AURIGA DRIVE	OTTAWA	ONTARIO	CANADA	K2E 7Z7	
92729		14907	MARCAN PHARMACEUTICALS INC	DIN OWNER	Y	N	N		SUITE 4	77 AURIGA DRIVE	OTTAWA	ONTARIO	CANADA	K2E 7Z7	
92730		11642	HOSPIRA HEALTHCARE CORPORATION	DIN OWNER	Y	Y	Y			17300 TRANS-CANADA HIGHWAY	KIRKLAND	QUEBEC	CANADA	H9J 2M5	
92739		15279	ZINDA PHARMA LIMITED	DIN OWNER	Y	Y	Y			4103 SHERBROOKE STREET WEST	MONTREAL	QUEBEC	CANADA	H3Z 1A7	
92740		15279	ZINDA PHARMA LIMITED	DIN OWNER	Y	Y	Y			4103 SHERBROOKE STREET WEST	MONTREAL	QUEBEC	CANADA	H3Z 1A7	
92745	PMS07	3550	PHARMASCIENCE INC	DIN OWNER	Y	Y	Y	N	100	"6111, ROYALMOUNT AVENUE"	MONTREAL	QUEBEC	CANADA	H4P 2T4	
92754		14907	MARCAN PHARMACEUTICALS INC	DIN OWNER	Y	N	N		SUITE 4	77 AURIGA DRIVE	OTTAWA	ONTARIO	CANADA	K2E 7Z7	
92766		15909	ORIMED PHARMA INC	DIN OWNER	Y	Y	Y			1310 RUE NOBEL	BOUCHERVILLE	QUEBEC	CANADA	J4B 5H3	
92770		16273	ROCHESTER MIDLAND CORPORATION	DIN OWNER	Y	Y	Y			155 PARAGON DRIVE	ROCHESTER	NEW YORK	UNITED STATES	14624	
92783		9605	KIMBERLY-CLARK GLOBAL SALES LLC	DIN OWNER	Y	N	N			1400 HOLCOMB BRIDGE ROAD	ROSWELL	GEORGIA	UNITED STATES	30076	
92804		9530	FRUITS ET PASSION BOUTIQUES INC.	DIN OWNER	Y	N	Y	N		"9180 BOULEVARD LEDUC, SUITE 280"	BROSSARD	QUEBEC	CANADA	J4Y 0N7	
92808		9530	FRUITS ET PASSION BOUTIQUES INC.	DIN OWNER	Y	N	Y	N		"9180 BOULEVARD LEDUC, SUITE 280"	BROSSARD	QUEBEC	CANADA	J4Y 0N7	
92812	RAX08	8892	STERIMAX INC	DIN OWNER	Y	Y	Y			2770 PORTLAND DRIVE	OAKVILLE	ONTARIO	CANADA	L6H 6R4	
92814		15772	ACTAVIS PHARMA COMPANY	DIN OWNER	Y	Y	Y			"6733 MISSISSAUGA ROAD, SUITE 400"	MISSISSAUGA	ONTARIO	CANADA	L5N 6J5	
92816		15772	ACTAVIS PHARMA COMPANY	DIN OWNER	Y	Y	Y			"6733 MISSISSAUGA ROAD, SUITE 400"	MISSISSAUGA	ONTARIO	CANADA	L5N 6J5	
92819	TAR08	5241	TARO PHARMACEUTICALS INC	DIN OWNER	Y	Y	N	N		130 EAST DRIVE	BRAMPTON	ONTARIO	CANADA	L6T 1C1	
92822	TAR08	5241	TARO PHARMACEUTICALS INC	DIN OWNER	Y	Y	N	N		130 EAST DRIVE	BRAMPTON	ONTARIO	CANADA	L6T 1C1	
92826		11852	THATCHER COMPANY	DIN OWNER	Y	Y	Y			1905 FORTUNE ROAD	SALT LAKE CITY	UTAH	UNITED STATES	84104	
92828		15772	ACTAVIS PHARMA COMPANY	DIN OWNER	Y	Y	Y			"6733 MISSISSAUGA ROAD, SUITE 400"	MISSISSAUGA	ONTARIO	CANADA	L5N 6J5	
92829		15772	ACTAVIS PHARMA COMPANY	DIN OWNER	Y	Y	Y			"6733 MISSISSAUGA ROAD, SUITE 400"	MISSISSAUGA	ONTARIO	CANADA	L5N 6J5	
92832		9985	GLAXOSMITHKLINE INC	DIN OWNER	Y	N	Y			7333 MISSISSAUGA ROAD	MISSISSAUGA	ONTARIO	CANADA	L5N 6L4	
92833		9985	GLAXOSMITHKLINE INC	DIN OWNER	Y	N	Y			7333 MISSISSAUGA ROAD	MISSISSAUGA	ONTARIO	CANADA	L5N 6L4	
92835		8952	INLAND VETERINARY SUPPLY LTD.	DIN OWNER	Y	Y	Y			4-61 MALCOLM ROAD	GUELPH	ONTARIO	CANADA	N1K 1A7	
92844		14907	MARCAN PHARMACEUTICALS INC	DIN OWNER	Y	N	N		SUITE 4	77 AURIGA DRIVE	OTTAWA	ONTARIO	CANADA	K2E 7Z7	
92845		14907	MARCAN PHARMACEUTICALS INC	DIN OWNER	Y	N	N		SUITE 4	77 AURIGA DRIVE	OTTAWA	ONTARIO	CANADA	K2E 7Z7	
92846		15197	FOREST LABORATORIES CANADA INC	DIN OWNER	Y	Y	Y			500-85 ENTERPRISE BLVD	MARKHAM	ONTARIO	CANADA	L6G 0B5	
92847		15197	FOREST LABORATORIES CANADA INC	DIN OWNER	Y	Y	Y			500-85 ENTERPRISE BLVD	MARKHAM	ONTARIO	CANADA	L6G 0B5	
92848		15197	FOREST LABORATORIES CANADA INC	DIN OWNER	Y	Y	Y			500-85 ENTERPRISE BLVD	MARKHAM	ONTARIO	CANADA	L6G 0B5	
92850		15197	FOREST LABORATORIES CANADA INC	DIN OWNER	Y	Y	Y			500-85 ENTERPRISE BLVD	MARKHAM	ONTARIO	CANADA	L6G 0B5	
92851		15197	FOREST LABORATORIES CANADA INC	DIN OWNER	Y	Y	Y			500-85 ENTERPRISE BLVD	MARKHAM	ONTARIO	CANADA	L6G 0B5	
92852	BEG95	3724	BEAUTICONTROL INC.	DIN OWNER	Y	Y	Y	N		PO BOX 815189	DALLAS	TEXAS	UNITED STATES	75381	
92861	JAJ07	4402	JOHNSON & JOHNSON INC	DIN OWNER	Y	Y	Y	N		88 MCNABB STREET	MARKHAM	ONTARIO	CANADA	L3R 5L2	
92865		15633	NATCO PHARMA (CANADA) INC	DIN OWNER	Y	Y	Y		116	2550 ARGENTIA ROAD	MISSISSAUGA	ONTARIO	CANADA	L5N 5R1	
92866		15633	NATCO PHARMA (CANADA) INC	DIN OWNER	Y	Y	Y		116	2550 ARGENTIA ROAD	MISSISSAUGA	ONTARIO	CANADA	L5N 5R1	
92874		13930	MYLAN PHARMACEUTICALS ULC	DIN OWNER	Y	Y	Y			85 ADVANCE ROAD	ETOBICOKE	ONTARIO	CANADA	M8Z 2S6	
92876	TAR08	5241	TARO PHARMACEUTICALS INC	DIN OWNER	Y	Y	N	N		130 EAST DRIVE	BRAMPTON	ONTARIO	CANADA	L6T 1C1	
92877	TAR08	5241	TARO PHARMACEUTICALS INC	DIN OWNER	Y	Y	N	N		130 EAST DRIVE	BRAMPTON	ONTARIO	CANADA	L6T 1C1	
92878	TAR08	5241	TARO PHARMACEUTICALS INC	DIN OWNER	Y	Y	N	N		130 EAST DRIVE	BRAMPTON	ONTARIO	CANADA	L6T 1C1	
92879	TAR08	5241	TARO PHARMACEUTICALS INC	DIN OWNER	Y	Y	N	N		130 EAST DRIVE	BRAMPTON	ONTARIO	CANADA	L6T 1C1	
92880	TAR08	5241	TARO PHARMACEUTICALS INC	DIN OWNER	Y	Y	N	N		130 EAST DRIVE	BRAMPTON	ONTARIO	CANADA	L6T 1C1	
92889		9530	FRUITS ET PASSION BOUTIQUES INC.	DIN OWNER	Y	N	Y	N		"9180 BOULEVARD LEDUC, SUITE 280"	BROSSARD	QUEBEC	CANADA	J4Y 0N7	
92916		16755	"EDGEWELL PERSONAL CARE CANADA, ULC"	DIN OWNER	Y	N	N			800 12TH STREET	HANOVER	ONTARIO	CANADA	N4N 0B1	
92918		16755	"EDGEWELL PERSONAL CARE CANADA, ULC"	DIN OWNER	Y	N	N			800 12TH STREET	HANOVER	ONTARIO	CANADA	N4N 0B1	
92922		16354	PROVENSIS LTD	DIN OWNER	Y	Y	Y			5 FLEET PLACE	LONDON	GREATER LONDON	UNITED KINGDOM	EC4M 7RD	
92925		16351	VANC PHARMACEUTICALS INC	DIN OWNER	Y	N	N			"2639 VIKING WAY, UNIT 210"	RICHMOND	BRITISH COLUMBIA	CANADA	V6V 3B7	
92926		16351	VANC PHARMACEUTICALS INC	DIN OWNER	Y	N	N			"2639 VIKING WAY, UNIT 210"	RICHMOND	BRITISH COLUMBIA	CANADA	V6V 3B7	
92927		16351	VANC PHARMACEUTICALS INC	DIN OWNER	Y	N	N			"2639 VIKING WAY, UNIT 210"	RICHMOND	BRITISH COLUMBIA	CANADA	V6V 3B7	
92941		8482	BIOGEN CANADA INC	DIN OWNER	Y	Y	Y	N		"90 BURNHAMTHORPE ROAD WEST, SUITE 1100"	MISSISSAUGA	ONTARIO	CANADA	L5B 3C3	
92942		8482	BIOGEN CANADA INC	DIN OWNER	Y	Y	Y	N		"90 BURNHAMTHORPE ROAD WEST, SUITE 1100"	MISSISSAUGA	ONTARIO	CANADA	L5B 3C3	
92949		8971	ALOE CARE INTERNATIONAL LLC	DIN OWNER	Y	N	N	N		"9700 WEST 76TH STREET, SUITE H"	EDEN PRAIRIE	MINNESOTA	UNITED STATES	55344	
92950		13741	PHARMAPAR INC	DIN OWNER	Y	Y	N			"1565 BOUL LIONEL-BOULET	"	VARENNES	QUEBEC	CANADA	J3X 1P7	
92951		13741	PHARMAPAR INC	DIN OWNER	Y	Y	N			"1565 BOUL LIONEL-BOULET	"	VARENNES	QUEBEC	CANADA	J3X 1P7	
92952		13741	PHARMAPAR INC	DIN OWNER	Y	Y	N			"1565 BOUL LIONEL-BOULET	"	VARENNES	QUEBEC	CANADA	J3X 1P7	
92957		14586	LUPIN LIMITED	DIN OWNER	Y	Y	Y			"KALPATARU INSPIRE, 3RD FLOOR, OFF WESTERN HIGHWAY, SANTACRUZ  EAST"	MUMBAI	MAHARASHTRA	INDIA	400055	
92958		14586	LUPIN LIMITED	DIN OWNER	Y	Y	Y			"KALPATARU INSPIRE, 3RD FLOOR, OFF WESTERN HIGHWAY, SANTACRUZ  EAST"	MUMBAI	MAHARASHTRA	INDIA	400055	
92959		14586	LUPIN LIMITED	DIN OWNER	Y	Y	Y			"KALPATARU INSPIRE, 3RD FLOOR, OFF WESTERN HIGHWAY, SANTACRUZ  EAST"	MUMBAI	MAHARASHTRA	INDIA	400055	
92960		14586	LUPIN LIMITED	DIN OWNER	Y	Y	Y			"KALPATARU INSPIRE, 3RD FLOOR, OFF WESTERN HIGHWAY, SANTACRUZ  EAST"	MUMBAI	MAHARASHTRA	INDIA	400055	
92961		14586	LUPIN LIMITED	DIN OWNER	Y	Y	Y			"KALPATARU INSPIRE, 3RD FLOOR, OFF WESTERN HIGHWAY, SANTACRUZ  EAST"	MUMBAI	MAHARASHTRA	INDIA	400055	
92962		14586	LUPIN LIMITED	DIN OWNER	Y	Y	Y			"KALPATARU INSPIRE, 3RD FLOOR, OFF WESTERN HIGHWAY, SANTACRUZ  EAST"	MUMBAI	MAHARASHTRA	INDIA	400055	
92963		14586	LUPIN LIMITED	DIN OWNER	Y	Y	Y			"KALPATARU INSPIRE, 3RD FLOOR, OFF WESTERN HIGHWAY, SANTACRUZ  EAST"	MUMBAI	MAHARASHTRA	INDIA	400055	
92964		14586	LUPIN LIMITED	DIN OWNER	Y	Y	Y			"KALPATARU INSPIRE, 3RD FLOOR, OFF WESTERN HIGHWAY, SANTACRUZ  EAST"	MUMBAI	MAHARASHTRA	INDIA	400055	
92968		15662	ALEXION PHARMA GMBH	DIN OWNER	Y	Y	N			GIESSHUBELSTRASSE 30	ZURICH	ZURICH	SWITZERLAND	8045	
92975		13221	MINT PHARMACEUTICALS INC	DIN OWNER	Y	Y	Y		UNIT 1	1093 MEYERSIDE DRIVE	MISSISSAUGA	ONTARIO	CANADA	L5T 1J6	
92982	ODN07	4835	ODAN LABORATORIES LTD	DIN OWNER	Y	Y	Y	N		325 STILLVIEW AVENUE	POINTE-CLAIRE	QUEBEC	CANADA	H9R 2Y6	
92984		14807	AMOREPACIFIC CORPORATION	DIN OWNER	Y	N	Y			"100 CHEONGGYECHEON-RO, SIGNATURE TOWERS"	"JUNG-GU, SEOUL"	SEOUL NATIONAL CAPITAL AREA	"KOREA, REPUBLIC OF"		
92987		16351	VANC PHARMACEUTICALS INC	DIN OWNER	Y	N	N			"2639 VIKING WAY, UNIT 210"	RICHMOND	BRITISH COLUMBIA	CANADA	V6V 3B7	
92998		14907	MARCAN PHARMACEUTICALS INC	DIN OWNER	Y	N	N		SUITE 4	77 AURIGA DRIVE	OTTAWA	ONTARIO	CANADA	K2E 7Z7	
92999		14907	MARCAN PHARMACEUTICALS INC	DIN OWNER	Y	N	N		SUITE 4	77 AURIGA DRIVE	OTTAWA	ONTARIO	CANADA	K2E 7Z7	
93000		15654	RODAN & FIELDS LLC	DIN OWNER	Y	Y	N			"60 SPEAR STREET, SUITE 600"	SAN FRANCISCO	CALIFORNIA	UNITED STATES	94105	
93003		13032	ACCORD HEALTHCARE INC	DIN OWNER	Y	Y	Y			"3535 BOULEVARD ST-CHARLES, SUITE 704"	KIRKLAND	QUEBEC	CANADA	H9H 5B9	
93008		10997	BIOMED PHARMA	DIN OWNER	Y	Y	N			1565 BOUL LIONEL-BOULET	VARENNES	QUEBEC	CANADA	J3X 1P7	
93010		8971	ALOE CARE INTERNATIONAL LLC	DIN OWNER	Y	N	N	N		"9700 WEST 76TH STREET, SUITE H"	EDEN PRAIRIE	MINNESOTA	UNITED STATES	55344	
93012		10997	BIOMED PHARMA	DIN OWNER	Y	Y	N			1565 BOUL LIONEL-BOULET	VARENNES	QUEBEC	CANADA	J3X 1P7	
93016		16351	VANC PHARMACEUTICALS INC	DIN OWNER	Y	N	N			"2639 VIKING WAY, UNIT 210"	RICHMOND	BRITISH COLUMBIA	CANADA	V6V 3B7	
93017		16351	VANC PHARMACEUTICALS INC	DIN OWNER	Y	N	N			"2639 VIKING WAY, UNIT 210"	RICHMOND	BRITISH COLUMBIA	CANADA	V6V 3B7	
93038		15091	OXI BRITE INC	DIN OWNER	Y	Y	Y			8620 ESCARPMENT WAY #8	MILTON	ONTARIO	CANADA	L9T 0M1	
93040		13838	TORRENT PHARMACEUTICALS LIMITED	DIN OWNER	Y	N	N			AHMEDABAD-MEHSANA HIGHWAY	"TALUKA-KADI DIST. OF MEHSANA, INDRAD"	GUJARAT	INDIA	382721	
93041	PGA08	4911	PROCTER & GAMBLE INC	DIN OWNER	Y	N	N	N		4711 YONGE STREET	TORONTO	ONTARIO	CANADA	M2N 6K8	
93045		15528	"KISS MY FACE, LLC"	DIN OWNER	Y	N	Y			144 MAIN ST.	GARDINER	NEW YORK	UNITED STATES	12525	
93046		13889	SCA CANADA-NORTH AMERICA INC.	DIN OWNER	Y	Y	Y		2600	2929 ARCH STREET	PHILADELPHIA	PENNSYLVANIA	UNITED STATES	19104	
93047		13889	SCA CANADA-NORTH AMERICA INC.	DIN OWNER	Y	Y	Y		2600	2929 ARCH STREET	PHILADELPHIA	PENNSYLVANIA	UNITED STATES	19104	
93049		8971	ALOE CARE INTERNATIONAL LLC	DIN OWNER	Y	N	N	N		"9700 WEST 76TH STREET, SUITE H"	EDEN PRAIRIE	MINNESOTA	UNITED STATES	55344	
93050		14807	AMOREPACIFIC CORPORATION	DIN OWNER	Y	N	Y			"100 CHEONGGYECHEON-RO, SIGNATURE TOWERS"	"JUNG-GU, SEOUL"	SEOUL NATIONAL CAPITAL AREA	"KOREA, REPUBLIC OF"		
93052		14807	AMOREPACIFIC CORPORATION	DIN OWNER	Y	N	Y			"100 CHEONGGYECHEON-RO, SIGNATURE TOWERS"	"JUNG-GU, SEOUL"	SEOUL NATIONAL CAPITAL AREA	"KOREA, REPUBLIC OF"		
93056		13741	PHARMAPAR INC	DIN OWNER	Y	Y	N			"1565 BOUL LIONEL-BOULET	"	VARENNES	QUEBEC	CANADA	J3X 1P7	
93067		13741	PHARMAPAR INC	DIN OWNER	Y	Y	N			"1565 BOUL LIONEL-BOULET	"	VARENNES	QUEBEC	CANADA	J3X 1P7	
93074		15415	ALEMBIC PHARMACEUTICALS LIMITED	DIN OWNER	Y	Y	Y			ALEMBIC ROAD	VADODARA	GUJARAT	INDIA	390003	
93075		15415	ALEMBIC PHARMACEUTICALS LIMITED	DIN OWNER	Y	Y	Y			ALEMBIC ROAD	VADODARA	GUJARAT	INDIA	390003	
93077	APX08	3636	APOTEX INC	DIN OWNER	Y	Y	Y	N		150 SIGNET DRIVE	TORONTO	ONTARIO	CANADA	M9L 1T9	
93078	APX08	3636	APOTEX INC	DIN OWNER	Y	Y	Y	N		150 SIGNET DRIVE	TORONTO	ONTARIO	CANADA	M9L 1T9	
93079	APX08	3636	APOTEX INC	DIN OWNER	Y	Y	Y	N		150 SIGNET DRIVE	TORONTO	ONTARIO	CANADA	M9L 1T9	
93080	APX08	3636	APOTEX INC	DIN OWNER	Y	Y	Y	N		150 SIGNET DRIVE	TORONTO	ONTARIO	CANADA	M9L 1T9	
93081	APX08	3636	APOTEX INC	DIN OWNER	Y	Y	Y	N		150 SIGNET DRIVE	TORONTO	ONTARIO	CANADA	M9L 1T9	
93082	APX08	3636	APOTEX INC	DIN OWNER	Y	Y	Y	N		150 SIGNET DRIVE	TORONTO	ONTARIO	CANADA	M9L 1T9	
93085		14055	PROCESS CLEANING SOLUTIONS LTD	DIN OWNER	Y	Y	N			2060 FISHER DRIVE	PETERBOROUGH	ONTARIO	CANADA	K9J 8N4	3000
93086	ALC08	3594	ALCON CANADA INC	DIN OWNER	Y	Y	Y	N		2665 MEADOWPINE BLVD	MISSISSAUGA	ONTARIO	CANADA	L5N 8C7	
93090		7049	VIVA PHARMACEUTICAL INC.	DIN OWNER	Y	Y	Y	N		13880 VIKING PLACE	RICHMOND	BRITISH COLUMBIA	CANADA	V6V 1K8	
93091	ALC08	3594	ALCON CANADA INC	DIN OWNER	Y	Y	Y	N		2665 MEADOWPINE BLVD	MISSISSAUGA	ONTARIO	CANADA	L5N 8C7	
93092		12428	SANOFI PASTEUR LIMITED	DIN OWNER	Y	Y	Y			1755 STEELES AVENUE WEST	TORONTO	ONTARIO	CANADA	M2R 3T4	
93094		10029	CHANELLE PHARMACEUTICALS MANUFACTURING LIMITED	DIN OWNER	Y	Y	Y			DUBLIN ROAD	LOUGHREA	CO. GALWAY	IRELAND		
93097		13741	PHARMAPAR INC	DIN OWNER	Y	Y	N			"1565 BOUL LIONEL-BOULET	"	VARENNES	QUEBEC	CANADA	J3X 1P7	
93098		13741	PHARMAPAR INC	DIN OWNER	Y	Y	N			"1565 BOUL LIONEL-BOULET	"	VARENNES	QUEBEC	CANADA	J3X 1P7	
93101		10997	BIOMED PHARMA	DIN OWNER	Y	Y	N			1565 BOUL LIONEL-BOULET	VARENNES	QUEBEC	CANADA	J3X 1P7	
93102	VOO95	6758	MURAD LLC	DIN OWNER	Y	Y	Y	N		"2121 PARK PLACE, 1ST FLOOR"	EL SEGUNDO	CALIFORNIA	UNITED STATES	90425	
93104		17122	THE PROACTIV COMPANY LLC	DIN OWNER	Y	Y	N		1400	"100 N SEPULVEDA BLVD	"	EL SEGUNDO	CALIFORNIA	UNITED STATES	90245	
93112		10997	BIOMED PHARMA	DIN OWNER	Y	Y	N			1565 BOUL LIONEL-BOULET	VARENNES	QUEBEC	CANADA	J3X 1P7	
93113		10997	BIOMED PHARMA	DIN OWNER	Y	Y	N			1565 BOUL LIONEL-BOULET	VARENNES	QUEBEC	CANADA	J3X 1P7	
93133		12538	SANOFI-AVENTIS CANADA INC	DIN OWNER	Y	N	Y			2905 PLACE LOUIS-R. RENAUD	LAVAL	QUEBEC	CANADA	H7V 0A3	
93145		9873	BEIERSDORF CANADA INC	DIN OWNER	Y	N	Y			"2344 ALFRED-NOBEL BLVD.,SUITE 100A"	ST-LAURENT	QUEBEC	CANADA	H4S 0A4	
93146		14907	MARCAN PHARMACEUTICALS INC	DIN OWNER	Y	N	N		SUITE 4	77 AURIGA DRIVE	OTTAWA	ONTARIO	CANADA	K2E 7Z7	
93148	PGA08	4911	PROCTER & GAMBLE INC	DIN OWNER	Y	N	N	N		4711 YONGE STREET	TORONTO	ONTARIO	CANADA	M2N 6K8	
93151		14318	TEVA CANADA LIMITED	DIN OWNER	Y	Y	N			30 NOVOPHARM COURT	TORONTO	ONTARIO	CANADA	M1B 2K9	
93160	LZI95	6236	LONZA INC.	DIN OWNER	Y	Y	N	N		90 BOROLINE ROAD	ALLENDALE	NEW JERSEY	UNITED STATES	7401	
93169		14907	MARCAN PHARMACEUTICALS INC	DIN OWNER	Y	N	N		SUITE 4	77 AURIGA DRIVE	OTTAWA	ONTARIO	CANADA	K2E 7Z7	
93170		14907	MARCAN PHARMACEUTICALS INC	DIN OWNER	Y	N	N		SUITE 4	77 AURIGA DRIVE	OTTAWA	ONTARIO	CANADA	K2E 7Z7	
93202		14907	MARCAN PHARMACEUTICALS INC	DIN OWNER	Y	N	N		SUITE 4	77 AURIGA DRIVE	OTTAWA	ONTARIO	CANADA	K2E 7Z7	
93203		14907	MARCAN PHARMACEUTICALS INC	DIN OWNER	Y	N	N		SUITE 4	77 AURIGA DRIVE	OTTAWA	ONTARIO	CANADA	K2E 7Z7	
93210		13741	PHARMAPAR INC	DIN OWNER	Y	Y	N			"1565 BOUL LIONEL-BOULET	"	VARENNES	QUEBEC	CANADA	J3X 1P7	
93211		13741	PHARMAPAR INC	DIN OWNER	Y	Y	N			"1565 BOUL LIONEL-BOULET	"	VARENNES	QUEBEC	CANADA	J3X 1P7	
93212		13379	BASILEA PHARMACEUTICA INTERNATIONAL AG	DIN OWNER	Y	Y	N			GRENZACHERSTRASSE 487	BASEL	BASEL-STADT	SWITZERLAND	4058	CH-4005
93221		16419	ASPRI PHARMA CANADA INC	DIN OWNER	Y	Y	Y			"665 MILLWAY AVENUE, SUITE 31 B"	CONCORD	ONTARIO	CANADA	L4K 3T8	
93222		16419	ASPRI PHARMA CANADA INC	DIN OWNER	Y	Y	Y			"665 MILLWAY AVENUE, SUITE 31 B"	CONCORD	ONTARIO	CANADA	L4K 3T8	
93223		16419	ASPRI PHARMA CANADA INC	DIN OWNER	Y	Y	Y			"665 MILLWAY AVENUE, SUITE 31 B"	CONCORD	ONTARIO	CANADA	L4K 3T8	
93229		16271	L'OCCITANE CANADA CORP.	DIN OWNER	Y	Y	N			"2700 DUFFERIN STREET, SUITE 89"	TORONTO	ONTARIO	CANADA	M6B 4J3	
93230	DPC07	4065	DOMINION PHARMACAL	DIN OWNER	Y	Y	Y	N	SUITE 100	"6111, AVENUE ROYALMOUNT"	MONTREAL	QUEBEC	CANADA	H4P 2T4	
93231	DPC07	4065	DOMINION PHARMACAL	DIN OWNER	Y	Y	Y	N	SUITE 100	"6111, AVENUE ROYALMOUNT"	MONTREAL	QUEBEC	CANADA	H4P 2T4	
93244	PGA08	4911	PROCTER & GAMBLE INC	DIN OWNER	Y	N	N	N		4711 YONGE STREET	TORONTO	ONTARIO	CANADA	M2N 6K8	
93246		16755	"EDGEWELL PERSONAL CARE CANADA, ULC"	DIN OWNER	Y	N	N			800 12TH STREET	HANOVER	ONTARIO	CANADA	N4N 0B1	
93253	JAJ07	4402	JOHNSON & JOHNSON INC	DIN OWNER	Y	Y	Y	N		88 MCNABB STREET	MARKHAM	ONTARIO	CANADA	L3R 5L2	
93257	DPC07	4065	DOMINION PHARMACAL	DIN OWNER	Y	Y	Y	N	SUITE 100	"6111, AVENUE ROYALMOUNT"	MONTREAL	QUEBEC	CANADA	H4P 2T4	
93258	DPC07	4065	DOMINION PHARMACAL	DIN OWNER	Y	Y	Y	N	SUITE 100	"6111, AVENUE ROYALMOUNT"	MONTREAL	QUEBEC	CANADA	H4P 2T4	
93260		13838	TORRENT PHARMACEUTICALS LIMITED	DIN OWNER	Y	N	N			AHMEDABAD-MEHSANA HIGHWAY	"TALUKA-KADI DIST. OF MEHSANA, INDRAD"	GUJARAT	INDIA	382721	
93261		13838	TORRENT PHARMACEUTICALS LIMITED	DIN OWNER	Y	N	N			AHMEDABAD-MEHSANA HIGHWAY	"TALUKA-KADI DIST. OF MEHSANA, INDRAD"	GUJARAT	INDIA	382721	
93267		13741	PHARMAPAR INC	DIN OWNER	Y	Y	N			"1565 BOUL LIONEL-BOULET	"	VARENNES	QUEBEC	CANADA	J3X 1P7	
93273	REK07	5010	RECKITT BENCKISER (CANADA) INC	DIN OWNER	Y	Y	Y	N	UNIT #2	1680 TECH AVENUE	MISSISSAUGA	ONTARIO	CANADA	L4W 5S9	
93275		7520	GREER LABORATORIES INC	DIN OWNER	Y	Y	Y	N		639 NUWAY CIRCLE	LENOIR	NORTH CAROLINA	UNITED STATES	28645-0800	800
93278		10997	BIOMED PHARMA	DIN OWNER	Y	Y	N			1565 BOUL LIONEL-BOULET	VARENNES	QUEBEC	CANADA	J3X 1P7	
93286	RAX08	8892	STERIMAX INC	DIN OWNER	Y	Y	Y			2770 PORTLAND DRIVE	OAKVILLE	ONTARIO	CANADA	L6H 6R4	
93295		16478	SUCAMPO PHARMA AMERICAS LLC	DIN OWNER	Y	N	Y			"4520 EAST WEST HIGHWAY, SUITE 300"	BETHESDA	MARYLAND	UNITED STATES	20814	
93301		14461	SEPTA PHARMACEUTICALS INC	DIN OWNER	Y	Y	N			7490 PACIFIC CIRCLE UNIT #1	MISSISSAUGA	ONTARIO	CANADA	L5T 2A3	
93302		14461	SEPTA PHARMACEUTICALS INC	DIN OWNER	Y	Y	N			7490 PACIFIC CIRCLE UNIT #1	MISSISSAUGA	ONTARIO	CANADA	L5T 2A3	
93307		16861	NFI CONSUMER PRODUCTS	DIN OWNER	Y	Y	Y			501 FIFTH STREET	BRISTOL	TENNESSEE	UNITED STATES	37620	
93308		16861	NFI CONSUMER PRODUCTS	DIN OWNER	Y	Y	Y			501 FIFTH STREET	BRISTOL	TENNESSEE	UNITED STATES	37620	
93317	DIV08	4044	DIVERSEY INC	DIN OWNER	Y	N	N	N		P.O. BOX 19747	CHARLOTTE	NORTH CAROLINA	UNITED STATES	28219	
93318	DIV08	4044	DIVERSEY INC	DIN OWNER	Y	N	N	N		P.O. BOX 19747	CHARLOTTE	NORTH CAROLINA	UNITED STATES	28219	
93319	DIV08	4044	DIVERSEY INC	DIN OWNER	Y	N	N	N		P.O. BOX 19747	CHARLOTTE	NORTH CAROLINA	UNITED STATES	28219	
93329		11852	THATCHER COMPANY	DIN OWNER	Y	Y	Y			1905 FORTUNE ROAD	SALT LAKE CITY	UTAH	UNITED STATES	84104	
93330		11852	THATCHER COMPANY	DIN OWNER	Y	Y	Y			1905 FORTUNE ROAD	SALT LAKE CITY	UTAH	UNITED STATES	84104	
93334		11852	THATCHER COMPANY	DIN OWNER	Y	Y	Y			1905 FORTUNE ROAD	SALT LAKE CITY	UTAH	UNITED STATES	84104	
93338		9551	ECOLAB INC	DIN OWNER	Y	N	Y			370 NORTH WABASHA ST SUITE EUC-9	ST. PAUL	MINNESOTA	UNITED STATES	55102	
93339		13936	MANTRA PHARMA INC	DIN OWNER	Y	N	Y			"4605 B BOUL LAPINIERE, SUITE 250"	BROSSARD	QUEBEC	CANADA	J4Z 3T5	
93341	TAN08	5240	TANTA PHARMACEUTICALS INC	DIN OWNER	Y	Y	Y	N		1009 BURNS STREET EAST	WHITBY	ONTARIO	CANADA	L1N 6A6	
93342	APX08	3636	APOTEX INC	DIN OWNER	Y	Y	Y	N		150 SIGNET DRIVE	TORONTO	ONTARIO	CANADA	M9L 1T9	
93343	APX08	3636	APOTEX INC	DIN OWNER	Y	Y	Y	N		150 SIGNET DRIVE	TORONTO	ONTARIO	CANADA	M9L 1T9	
93354	RAX08	8892	STERIMAX INC	DIN OWNER	Y	Y	Y			2770 PORTLAND DRIVE	OAKVILLE	ONTARIO	CANADA	L6H 6R4	
93356		16954	9113657 CANADA INC	DIN OWNER	Y	Y	Y			"4605-B BOUL. LAPINIERE, BUREAU 350"	BROSSARD	QUEBEC	CANADA	J4Z 3T5	
93357	DIV08	4044	DIVERSEY INC	DIN OWNER	Y	N	N	N		P.O. BOX 19747	CHARLOTTE	NORTH CAROLINA	UNITED STATES	28219	
93358	DIV08	4044	DIVERSEY INC	DIN OWNER	Y	N	N	N		P.O. BOX 19747	CHARLOTTE	NORTH CAROLINA	UNITED STATES	28219	
93396	YNO08	5348	BAYER INC CONSUMER CARE	DIN OWNER	Y	N	Y	N		2920  MATHESON BLVD E	MISSISSAUGA	ONTARIO	CANADA	L4W 5R6	
93399		14907	MARCAN PHARMACEUTICALS INC	DIN OWNER	Y	N	N		SUITE 4	77 AURIGA DRIVE	OTTAWA	ONTARIO	CANADA	K2E 7Z7	
93400		14907	MARCAN PHARMACEUTICALS INC	DIN OWNER	Y	N	N		SUITE 4	77 AURIGA DRIVE	OTTAWA	ONTARIO	CANADA	K2E 7Z7	
93401		15772	ACTAVIS PHARMA COMPANY	DIN OWNER	Y	Y	Y			"6733 MISSISSAUGA ROAD, SUITE 400"	MISSISSAUGA	ONTARIO	CANADA	L5N 6J5	
93402		15772	ACTAVIS PHARMA COMPANY	DIN OWNER	Y	Y	Y			"6733 MISSISSAUGA ROAD, SUITE 400"	MISSISSAUGA	ONTARIO	CANADA	L5N 6J5	
93409		13741	PHARMAPAR INC	DIN OWNER	Y	Y	N			"1565 BOUL LIONEL-BOULET	"	VARENNES	QUEBEC	CANADA	J3X 1P7	
93410		13741	PHARMAPAR INC	DIN OWNER	Y	Y	N			"1565 BOUL LIONEL-BOULET	"	VARENNES	QUEBEC	CANADA	J3X 1P7	
93419		16351	VANC PHARMACEUTICALS INC	DIN OWNER	Y	N	N			"2639 VIKING WAY, UNIT 210"	RICHMOND	BRITISH COLUMBIA	CANADA	V6V 3B7	
93421	DIV08	4044	DIVERSEY INC	DIN OWNER	Y	N	N	N		P.O. BOX 19747	CHARLOTTE	NORTH CAROLINA	UNITED STATES	28219	
93428	LIL08	7005	ELI LILLY CANADA INC	DIN OWNER	Y	Y	Y	N		3650 DANFORTH AVENUE	TORONTO	ONTARIO	CANADA	M1N 2E8	
93429	LIL08	7005	ELI LILLY CANADA INC	DIN OWNER	Y	Y	Y	N		3650 DANFORTH AVENUE	TORONTO	ONTARIO	CANADA	M1N 2E8	
93437		14907	MARCAN PHARMACEUTICALS INC	DIN OWNER	Y	N	N		SUITE 4	77 AURIGA DRIVE	OTTAWA	ONTARIO	CANADA	K2E 7Z7	
93438		14907	MARCAN PHARMACEUTICALS INC	DIN OWNER	Y	N	N		SUITE 4	77 AURIGA DRIVE	OTTAWA	ONTARIO	CANADA	K2E 7Z7	
93439		14907	MARCAN PHARMACEUTICALS INC	DIN OWNER	Y	N	N		SUITE 4	77 AURIGA DRIVE	OTTAWA	ONTARIO	CANADA	K2E 7Z7	
93440		14907	MARCAN PHARMACEUTICALS INC	DIN OWNER	Y	N	N		SUITE 4	77 AURIGA DRIVE	OTTAWA	ONTARIO	CANADA	K2E 7Z7	
93453		13741	PHARMAPAR INC	DIN OWNER	Y	Y	N			"1565 BOUL LIONEL-BOULET	"	VARENNES	QUEBEC	CANADA	J3X 1P7	
93456		14318	TEVA CANADA LIMITED	DIN OWNER	Y	Y	N			30 NOVOPHARM COURT	TORONTO	ONTARIO	CANADA	M1B 2K9	
93457		14318	TEVA CANADA LIMITED	DIN OWNER	Y	Y	N			30 NOVOPHARM COURT	TORONTO	ONTARIO	CANADA	M1B 2K9	
93465		16989	INNOVATION LINE INC	DIN OWNER	Y	Y	N			11869 TEALE STREET	CULVER CITY	CALIFORNIA	UNITED STATES	90230	
93467		16989	INNOVATION LINE INC	DIN OWNER	Y	Y	N			11869 TEALE STREET	CULVER CITY	CALIFORNIA	UNITED STATES	90230	
93469	CCP08	3857	CANADIAN CUSTOM PACKAGING COMPANY	DIN OWNER	Y	Y	N	N		333 RIMROCK ROAD	TORONTO	ONTARIO	CANADA	M3J 3J9	
93470		8388	WOOD WYANT INC	DIN OWNER	Y	Y	Y	N		42 RUE DE L'ARTISAN	VICTORIAVILLE	QUEBEC	CANADA	G6P 7E3	
93482		11271	RANBAXY PHARMACEUTICALS CANADA INC.	DIN OWNER	Y	Y	Y			126 EAST DRIVE	BRAMPTON	ONTARIO	CANADA	L6T 1C1	
93483		11271	RANBAXY PHARMACEUTICALS CANADA INC.	DIN OWNER	Y	Y	Y			126 EAST DRIVE	BRAMPTON	ONTARIO	CANADA	L6T 1C1	
93484		11271	RANBAXY PHARMACEUTICALS CANADA INC.	DIN OWNER	Y	Y	Y			126 EAST DRIVE	BRAMPTON	ONTARIO	CANADA	L6T 1C1	
93485		11271	RANBAXY PHARMACEUTICALS CANADA INC.	DIN OWNER	Y	Y	Y			126 EAST DRIVE	BRAMPTON	ONTARIO	CANADA	L6T 1C1	
93489	JPC10	4415	JAMP PHARMA CORPORATION	DIN OWNER	Y	Y	Y	N		1310 RUE NOBEL	BOUCHERVILLE	QUEBEC	CANADA	J4B 5H3	
93490	JPC10	4415	JAMP PHARMA CORPORATION	DIN OWNER	Y	Y	Y	N		1310 RUE NOBEL	BOUCHERVILLE	QUEBEC	CANADA	J4B 5H3	
93492	JPC10	4415	JAMP PHARMA CORPORATION	DIN OWNER	Y	Y	Y	N		1310 RUE NOBEL	BOUCHERVILLE	QUEBEC	CANADA	J4B 5H3	
93500		14624	PFIZER CONSUMER HEALTHCARE A DIVISION OF PFIZER CANADA INC	DIN OWNER	Y	N	Y			"55 STANDISH COURT, SUITE 450"	MISSISSAUGA	ONTARIO	CANADA	L5R 4B2	
93501		14624	PFIZER CONSUMER HEALTHCARE A DIVISION OF PFIZER CANADA INC	DIN OWNER	Y	N	Y			"55 STANDISH COURT, SUITE 450"	MISSISSAUGA	ONTARIO	CANADA	L5R 4B2	
93504	JPC10	4415	JAMP PHARMA CORPORATION	DIN OWNER	Y	Y	Y	N		1310 RUE NOBEL	BOUCHERVILLE	QUEBEC	CANADA	J4B 5H3	
93506		16282	BYLSMA IMPORTS INC	DIN OWNER	Y	Y	Y			P.O. BOX 44	CRANFORD	ALBERTA	CANADA	T0K 0R0	
93515		13741	PHARMAPAR INC	DIN OWNER	Y	Y	N			"1565 BOUL LIONEL-BOULET	"	VARENNES	QUEBEC	CANADA	J3X 1P7	
93516		13741	PHARMAPAR INC	DIN OWNER	Y	Y	N			"1565 BOUL LIONEL-BOULET	"	VARENNES	QUEBEC	CANADA	J3X 1P7	
93517		14464	CRLS	DIN OWNER	Y	Y	Y			"333-24 AVENUE SW, SUITE 300"	CALGARY	ALBERTA	CANADA	T2S 3E6	1381
93518		10997	BIOMED PHARMA	DIN OWNER	Y	Y	N			1565 BOUL LIONEL-BOULET	VARENNES	QUEBEC	CANADA	J3X 1P7	
93519		10997	BIOMED PHARMA	DIN OWNER	Y	Y	N			1565 BOUL LIONEL-BOULET	VARENNES	QUEBEC	CANADA	J3X 1P7	
93526	DIV08	4044	DIVERSEY INC	DIN OWNER	Y	N	N	N		P.O. BOX 19747	CHARLOTTE	NORTH CAROLINA	UNITED STATES	28219	
93527		11271	RANBAXY PHARMACEUTICALS CANADA INC.	DIN OWNER	Y	Y	Y			126 EAST DRIVE	BRAMPTON	ONTARIO	CANADA	L6T 1C1	
93528		11271	RANBAXY PHARMACEUTICALS CANADA INC.	DIN OWNER	Y	Y	Y			126 EAST DRIVE	BRAMPTON	ONTARIO	CANADA	L6T 1C1	
93529		11271	RANBAXY PHARMACEUTICALS CANADA INC.	DIN OWNER	Y	Y	Y			126 EAST DRIVE	BRAMPTON	ONTARIO	CANADA	L6T 1C1	
93530		11271	RANBAXY PHARMACEUTICALS CANADA INC.	DIN OWNER	Y	Y	Y			126 EAST DRIVE	BRAMPTON	ONTARIO	CANADA	L6T 1C1	
93531		11271	RANBAXY PHARMACEUTICALS CANADA INC.	DIN OWNER	Y	Y	Y			126 EAST DRIVE	BRAMPTON	ONTARIO	CANADA	L6T 1C1	
93534		16808	SENIVA PHARMACEUTICALS LTD	DIN OWNER	Y	Y	Y			109-31060 PEARDONVILLE ROAD	ABBOTSFORD	BRITISH COLUMBIA	CANADA	V2T 6K5	
93535		10376	QWATRO CORPORATION	DIN OWNER	Y	Y	Y			"1870 ALBION ROAD, SUITE 3"	ETOBICOKE	ONTARIO	CANADA	M9W 5T2	
93541		14318	TEVA CANADA LIMITED	DIN OWNER	Y	Y	N			30 NOVOPHARM COURT	TORONTO	ONTARIO	CANADA	M1B 2K9	
93542		14318	TEVA CANADA LIMITED	DIN OWNER	Y	Y	N			30 NOVOPHARM COURT	TORONTO	ONTARIO	CANADA	M1B 2K9	
93543	ALC08	3594	ALCON CANADA INC	DIN OWNER	Y	Y	Y	N		2665 MEADOWPINE BLVD	MISSISSAUGA	ONTARIO	CANADA	L5N 8C7	
93545		15176	EMPACK SPRAYTECH INC	DIN OWNER	Y	Y	Y			98 WALKER DRIVE	BRAMPTON	ONTARIO	CANADA	L6T 4H6	
93546		15176	EMPACK SPRAYTECH INC	DIN OWNER	Y	Y	Y			98 WALKER DRIVE	BRAMPTON	ONTARIO	CANADA	L6T 4H6	
93547	PGA08	4911	PROCTER & GAMBLE INC	DIN OWNER	Y	N	N	N		4711 YONGE STREET	TORONTO	ONTARIO	CANADA	M2N 6K8	
93548	PGA08	4911	PROCTER & GAMBLE INC	DIN OWNER	Y	N	N	N		4711 YONGE STREET	TORONTO	ONTARIO	CANADA	M2N 6K8	
93549	PGA08	4911	PROCTER & GAMBLE INC	DIN OWNER	Y	N	N	N		4711 YONGE STREET	TORONTO	ONTARIO	CANADA	M2N 6K8	
93550	PGA08	4911	PROCTER & GAMBLE INC	DIN OWNER	Y	N	N	N		4711 YONGE STREET	TORONTO	ONTARIO	CANADA	M2N 6K8	
93552	TAR08	5241	TARO PHARMACEUTICALS INC	DIN OWNER	Y	Y	N	N		130 EAST DRIVE	BRAMPTON	ONTARIO	CANADA	L6T 1C1	
93553		13741	PHARMAPAR INC	DIN OWNER	Y	Y	N			"1565 BOUL LIONEL-BOULET	"	VARENNES	QUEBEC	CANADA	J3X 1P7	
93554		13741	PHARMAPAR INC	DIN OWNER	Y	Y	N			"1565 BOUL LIONEL-BOULET	"	VARENNES	QUEBEC	CANADA	J3X 1P7	
93555		13741	PHARMAPAR INC	DIN OWNER	Y	Y	N			"1565 BOUL LIONEL-BOULET	"	VARENNES	QUEBEC	CANADA	J3X 1P7	
93556		10997	BIOMED PHARMA	DIN OWNER	Y	Y	N			1565 BOUL LIONEL-BOULET	VARENNES	QUEBEC	CANADA	J3X 1P7	
93557		10997	BIOMED PHARMA	DIN OWNER	Y	Y	N			1565 BOUL LIONEL-BOULET	VARENNES	QUEBEC	CANADA	J3X 1P7	
93558		10997	BIOMED PHARMA	DIN OWNER	Y	Y	N			1565 BOUL LIONEL-BOULET	VARENNES	QUEBEC	CANADA	J3X 1P7	
93559		13930	MYLAN PHARMACEUTICALS ULC	DIN OWNER	Y	Y	Y			85 ADVANCE ROAD	ETOBICOKE	ONTARIO	CANADA	M8Z 2S6	
93569		13032	ACCORD HEALTHCARE INC	DIN OWNER	Y	Y	Y			"3535 BOULEVARD ST-CHARLES, SUITE 704"	KIRKLAND	QUEBEC	CANADA	H9H 5B9	
93570		13032	ACCORD HEALTHCARE INC	DIN OWNER	Y	Y	Y			"3535 BOULEVARD ST-CHARLES, SUITE 704"	KIRKLAND	QUEBEC	CANADA	H9H 5B9	
93571		13032	ACCORD HEALTHCARE INC	DIN OWNER	Y	Y	Y			"3535 BOULEVARD ST-CHARLES, SUITE 704"	KIRKLAND	QUEBEC	CANADA	H9H 5B9	
93572		13032	ACCORD HEALTHCARE INC	DIN OWNER	Y	Y	Y			"3535 BOULEVARD ST-CHARLES, SUITE 704"	KIRKLAND	QUEBEC	CANADA	H9H 5B9	
93573		13032	ACCORD HEALTHCARE INC	DIN OWNER	Y	Y	Y			"3535 BOULEVARD ST-CHARLES, SUITE 704"	KIRKLAND	QUEBEC	CANADA	H9H 5B9	
93574		13032	ACCORD HEALTHCARE INC	DIN OWNER	Y	Y	Y			"3535 BOULEVARD ST-CHARLES, SUITE 704"	KIRKLAND	QUEBEC	CANADA	H9H 5B9	
93575		13032	ACCORD HEALTHCARE INC	DIN OWNER	Y	Y	Y			"3535 BOULEVARD ST-CHARLES, SUITE 704"	KIRKLAND	QUEBEC	CANADA	H9H 5B9	
93576		13032	ACCORD HEALTHCARE INC	DIN OWNER	Y	Y	Y			"3535 BOULEVARD ST-CHARLES, SUITE 704"	KIRKLAND	QUEBEC	CANADA	H9H 5B9	
93594		9071	THE CLOROX COMPANY OF CANADA LTD	DIN OWNER	Y	Y	Y			150 BISCAYNE CRESCENT	BRAMPTON	ONTARIO	CANADA	L6W 4V3	
93599		15689	SHISEIDO AMERICAS CORPORATION	DIN OWNER	Y	N	N			900 THIRD AVENUE	NEW YORK	NEW YORK	UNITED STATES	10022	
93610	RAX08	8892	STERIMAX INC	DIN OWNER	Y	Y	Y			2770 PORTLAND DRIVE	OAKVILLE	ONTARIO	CANADA	L6H 6R4	
93612		13741	PHARMAPAR INC	DIN OWNER	Y	Y	N			"1565 BOUL LIONEL-BOULET	"	VARENNES	QUEBEC	CANADA	J3X 1P7	
93613		13741	PHARMAPAR INC	DIN OWNER	Y	Y	N			"1565 BOUL LIONEL-BOULET	"	VARENNES	QUEBEC	CANADA	J3X 1P7	
93614		13741	PHARMAPAR INC	DIN OWNER	Y	Y	N			"1565 BOUL LIONEL-BOULET	"	VARENNES	QUEBEC	CANADA	J3X 1P7	
93615		13741	PHARMAPAR INC	DIN OWNER	Y	Y	N			"1565 BOUL LIONEL-BOULET	"	VARENNES	QUEBEC	CANADA	J3X 1P7	
93616		13741	PHARMAPAR INC	DIN OWNER	Y	Y	N			"1565 BOUL LIONEL-BOULET	"	VARENNES	QUEBEC	CANADA	J3X 1P7	
93617		10997	BIOMED PHARMA	DIN OWNER	Y	Y	N			1565 BOUL LIONEL-BOULET	VARENNES	QUEBEC	CANADA	J3X 1P7	
93618		10997	BIOMED PHARMA	DIN OWNER	Y	Y	N			1565 BOUL LIONEL-BOULET	VARENNES	QUEBEC	CANADA	J3X 1P7	
93619		10997	BIOMED PHARMA	DIN OWNER	Y	Y	N			1565 BOUL LIONEL-BOULET	VARENNES	QUEBEC	CANADA	J3X 1P7	
93620		10997	BIOMED PHARMA	DIN OWNER	Y	Y	N			1565 BOUL LIONEL-BOULET	VARENNES	QUEBEC	CANADA	J3X 1P7	
93621		10997	BIOMED PHARMA	DIN OWNER	Y	Y	N			1565 BOUL LIONEL-BOULET	VARENNES	QUEBEC	CANADA	J3X 1P7	
93636	AVM07	3684	AVMOR LTD	DIN OWNER	Y	Y	Y	N		950 MICHELIN	LAVAL	QUEBEC	CANADA	H7L 5C1	
93647		10997	BIOMED PHARMA	DIN OWNER	Y	Y	N			1565 BOUL LIONEL-BOULET	VARENNES	QUEBEC	CANADA	J3X 1P7	
93648		10997	BIOMED PHARMA	DIN OWNER	Y	Y	N			1565 BOUL LIONEL-BOULET	VARENNES	QUEBEC	CANADA	J3X 1P7	
93649		10997	BIOMED PHARMA	DIN OWNER	Y	Y	N			1565 BOUL LIONEL-BOULET	VARENNES	QUEBEC	CANADA	J3X 1P7	
93650		13741	PHARMAPAR INC	DIN OWNER	Y	Y	N			"1565 BOUL LIONEL-BOULET	"	VARENNES	QUEBEC	CANADA	J3X 1P7	
93651		13741	PHARMAPAR INC	DIN OWNER	Y	Y	N			"1565 BOUL LIONEL-BOULET	"	VARENNES	QUEBEC	CANADA	J3X 1P7	
93652		13741	PHARMAPAR INC	DIN OWNER	Y	Y	N			"1565 BOUL LIONEL-BOULET	"	VARENNES	QUEBEC	CANADA	J3X 1P7	
93653		12027	SANDOZ CANADA INCORPORATED	DIN OWNER	Y	Y	Y			145 JULES-LÉGER STREET	BOUCHERVILLE	QUEBEC	CANADA	J4B 7K8	
93660	YNO08	5348	BAYER INC CONSUMER CARE	DIN OWNER	Y	N	Y	N		2920  MATHESON BLVD E	MISSISSAUGA	ONTARIO	CANADA	L4W 5R6	
93661		13930	MYLAN PHARMACEUTICALS ULC	DIN OWNER	Y	Y	Y			85 ADVANCE ROAD	ETOBICOKE	ONTARIO	CANADA	M8Z 2S6	
93672		14807	AMOREPACIFIC CORPORATION	DIN OWNER	Y	N	Y			"100 CHEONGGYECHEON-RO, SIGNATURE TOWERS"	"JUNG-GU, SEOUL"	SEOUL NATIONAL CAPITAL AREA	"KOREA, REPUBLIC OF"		
93673		14807	AMOREPACIFIC CORPORATION	DIN OWNER	Y	N	Y			"100 CHEONGGYECHEON-RO, SIGNATURE TOWERS"	"JUNG-GU, SEOUL"	SEOUL NATIONAL CAPITAL AREA	"KOREA, REPUBLIC OF"		
93685		16903	INTELAGARD INC	DIN OWNER	Y	Y	Y			1275 ROCK CREEK CIRCLE	LAFAYETTE	COLORADO	UNITED STATES	80026	
93686	BLP95	5622	BETCO CORPORATION	DIN OWNER	Y	N	N	N		1001 BROWN AVENUE	TOLEDO	OHIO	UNITED STATES	43607	
93690		14807	AMOREPACIFIC CORPORATION	DIN OWNER	Y	N	Y			"100 CHEONGGYECHEON-RO, SIGNATURE TOWERS"	"JUNG-GU, SEOUL"	SEOUL NATIONAL CAPITAL AREA	"KOREA, REPUBLIC OF"		
93699		13032	ACCORD HEALTHCARE INC	DIN OWNER	Y	Y	Y			"3535 BOULEVARD ST-CHARLES, SUITE 704"	KIRKLAND	QUEBEC	CANADA	H9H 5B9	
93700		13032	ACCORD HEALTHCARE INC	DIN OWNER	Y	Y	Y			"3535 BOULEVARD ST-CHARLES, SUITE 704"	KIRKLAND	QUEBEC	CANADA	H9H 5B9	
93701		13032	ACCORD HEALTHCARE INC	DIN OWNER	Y	Y	Y			"3535 BOULEVARD ST-CHARLES, SUITE 704"	KIRKLAND	QUEBEC	CANADA	H9H 5B9	
93702		13032	ACCORD HEALTHCARE INC	DIN OWNER	Y	Y	Y			"3535 BOULEVARD ST-CHARLES, SUITE 704"	KIRKLAND	QUEBEC	CANADA	H9H 5B9	
93703		13032	ACCORD HEALTHCARE INC	DIN OWNER	Y	Y	Y			"3535 BOULEVARD ST-CHARLES, SUITE 704"	KIRKLAND	QUEBEC	CANADA	H9H 5B9	
93713	APX08	3636	APOTEX INC	DIN OWNER	Y	Y	Y	N		150 SIGNET DRIVE	TORONTO	ONTARIO	CANADA	M9L 1T9	
93718		8916	METHAPHARM INC	DIN OWNER	Y	Y	Y	N		81 SINCLAIR BLVD	BRANTFORD	ONTARIO	CANADA	N3S 7X6	
93719		8916	METHAPHARM INC	DIN OWNER	Y	Y	Y	N		81 SINCLAIR BLVD	BRANTFORD	ONTARIO	CANADA	N3S 7X6	
93720		8916	METHAPHARM INC	DIN OWNER	Y	Y	Y	N		81 SINCLAIR BLVD	BRANTFORD	ONTARIO	CANADA	N3S 7X6	
93721		8916	METHAPHARM INC	DIN OWNER	Y	Y	Y	N		81 SINCLAIR BLVD	BRANTFORD	ONTARIO	CANADA	N3S 7X6	
93726		13936	MANTRA PHARMA INC	DIN OWNER	Y	N	Y			"4605 B BOUL LAPINIERE, SUITE 250"	BROSSARD	QUEBEC	CANADA	J4Z 3T5	
93727	ASQ95	6869	SAFETEC OF AMERICA INC	DIN OWNER	Y	N	N	N		887 KENSINGTON AVENUE	BUFFALO	NEW YORK	UNITED STATES	14215-2720	
93736		6688	GEMINI PACKAGING LTD	DIN OWNER	Y	Y	Y	N	150	12071 JACOBSON	RICHMOND	BRITISH COLUMBIA	CANADA	V6W 1L5	
93737		6688	GEMINI PACKAGING LTD	DIN OWNER	Y	Y	Y	N	150	12071 JACOBSON	RICHMOND	BRITISH COLUMBIA	CANADA	V6W 1L5	
93739		13936	MANTRA PHARMA INC	DIN OWNER	Y	N	Y			"4605 B BOUL LAPINIERE, SUITE 250"	BROSSARD	QUEBEC	CANADA	J4Z 3T5	
93749		16884	ACERUS PHARMACEUTICALS CORPORATION	DIN OWNER	Y	N	N			2486 DUNWIN DRIVE	MISSISSAUGA	ONTARIO	CANADA	L5L 1J9	
93750		16884	ACERUS PHARMACEUTICALS CORPORATION	DIN OWNER	Y	N	N			2486 DUNWIN DRIVE	MISSISSAUGA	ONTARIO	CANADA	L5L 1J9	
93752		16884	ACERUS PHARMACEUTICALS CORPORATION	DIN OWNER	Y	N	N			2486 DUNWIN DRIVE	MISSISSAUGA	ONTARIO	CANADA	L5L 1J9	
93754	BLP95	5622	BETCO CORPORATION	DIN OWNER	Y	N	N	N		1001 BROWN AVENUE	TOLEDO	OHIO	UNITED STATES	43607	
93755		8541	VITA HEALTH PRODUCTS INC	DIN OWNER	Y	N	Y	N		150 BEGHIN AVENUE	WINNIPEG	MANITOBA	CANADA	R2J 3W2	
93758		13014	CSL BEHRING CANADA INC	DIN OWNER	Y	N	N		1460	55 METCALFE STREET	OTTAWA	ONTARIO	CANADA	K1P 6L5	
93759		13014	CSL BEHRING CANADA INC	DIN OWNER	Y	N	N		1460	55 METCALFE STREET	OTTAWA	ONTARIO	CANADA	K1P 6L5	
93760		13014	CSL BEHRING CANADA INC	DIN OWNER	Y	N	N		1460	55 METCALFE STREET	OTTAWA	ONTARIO	CANADA	K1P 6L5	
93761		13014	CSL BEHRING CANADA INC	DIN OWNER	Y	N	N		1460	55 METCALFE STREET	OTTAWA	ONTARIO	CANADA	K1P 6L5	
93763		11979	AURO PHARMA INC	DIN OWNER	Y	Y	Y			"3700 STEELES AVENUE WEST, SUITE 402"	WOODBRIDGE	ONTARIO	CANADA	L4L 8K8	
93764		11979	AURO PHARMA INC	DIN OWNER	Y	Y	Y			"3700 STEELES AVENUE WEST, SUITE 402"	WOODBRIDGE	ONTARIO	CANADA	L4L 8K8	
93771	PMS07	3550	PHARMASCIENCE INC	DIN OWNER	Y	Y	Y	N	100	"6111, ROYALMOUNT AVENUE"	MONTREAL	QUEBEC	CANADA	H4P 2T4	
93772		14534	PLAINS ECA SOLUTIONS INC	DIN OWNER	Y	Y	N			GENERAL DELIVERY	DECKER	MANITOBA	CANADA	R0M 0K0	
93780	DIV08	4044	DIVERSEY INC	DIN OWNER	Y	N	N	N		P.O. BOX 19747	CHARLOTTE	NORTH CAROLINA	UNITED STATES	28219	
93790		13221	MINT PHARMACEUTICALS INC	DIN OWNER	Y	Y	Y		UNIT 1	1093 MEYERSIDE DRIVE	MISSISSAUGA	ONTARIO	CANADA	L5T 1J6	
93792		13221	MINT PHARMACEUTICALS INC	DIN OWNER	Y	Y	Y		UNIT 1	1093 MEYERSIDE DRIVE	MISSISSAUGA	ONTARIO	CANADA	L5T 1J6	
93794		10774	BAYER INC	DIN OWNER	Y	N	Y			2920 MATHESON BLVD EAST	MISSISSAUGA	ONTARIO	CANADA	L4W 5R6	
93795		10774	BAYER INC	DIN OWNER	Y	N	Y			2920 MATHESON BLVD EAST	MISSISSAUGA	ONTARIO	CANADA	L4W 5R6	
93796		10774	BAYER INC	DIN OWNER	Y	N	Y			2920 MATHESON BLVD EAST	MISSISSAUGA	ONTARIO	CANADA	L4W 5R6	
93797		10774	BAYER INC	DIN OWNER	Y	N	Y			2920 MATHESON BLVD EAST	MISSISSAUGA	ONTARIO	CANADA	L4W 5R6	
93798		10774	BAYER INC	DIN OWNER	Y	N	Y			2920 MATHESON BLVD EAST	MISSISSAUGA	ONTARIO	CANADA	L4W 5R6	
93809	APX08	3636	APOTEX INC	DIN OWNER	Y	Y	Y	N		150 SIGNET DRIVE	TORONTO	ONTARIO	CANADA	M9L 1T9	
93826	APX08	3636	APOTEX INC	DIN OWNER	Y	Y	Y	N		150 SIGNET DRIVE	TORONTO	ONTARIO	CANADA	M9L 1T9	
93829		15890	STERINOVA INC	DIN OWNER	Y	Y	Y			3005 AVENUE JOSE-MARIA ROSELL	SAINT-HYACINTHE	QUEBEC	CANADA	J2S 0J9	
93834	WEX95	6779	WEXFORD LABS INC	DIN OWNER	Y	Y	Y	N		325 LEFFINGWELL AVENUE	KIRKWOOD	MISSOURI	UNITED STATES	63122	
93846		15645	ZOETIS CANADA INC	DIN OWNER	Y	Y	Y			16740 TRANS CANADA HIGHWAY	KIRKLAND	QUEBEC	CANADA	H9H 4M7	
93855		15590	CEVA ANIMAL HEALTH INC	DIN OWNER	Y	Y	Y			"1040 FOUNTAIN STREET NORTH, UNIT 6"	CAMBRIDGE	ONTARIO	CANADA	N3E 1A3	
93860	ALC08	3594	ALCON CANADA INC	DIN OWNER	Y	Y	Y	N		2665 MEADOWPINE BLVD	MISSISSAUGA	ONTARIO	CANADA	L5N 8C7	
93861		17036	GLEN MARTIN LTD	DIN OWNER	Y	Y	Y			38 FRASER COURT	BARRIE	ONTARIO	CANADA	L4N 5J5	
93869	JPC10	4415	JAMP PHARMA CORPORATION	DIN OWNER	Y	Y	Y	N		1310 RUE NOBEL	BOUCHERVILLE	QUEBEC	CANADA	J4B 5H3	
93871		14907	MARCAN PHARMACEUTICALS INC	DIN OWNER	Y	N	N		SUITE 4	77 AURIGA DRIVE	OTTAWA	ONTARIO	CANADA	K2E 7Z7	
93878	RIV07	5034	LABORATOIRE RIVA INC	DIN OWNER	Y	Y	N	N		660 BOUL. INDUSTRIEL	BLAINVILLE	QUEBEC	CANADA	J7C 3V4	
93879	RIV07	5034	LABORATOIRE RIVA INC	DIN OWNER	Y	Y	N	N		660 BOUL. INDUSTRIEL	BLAINVILLE	QUEBEC	CANADA	J7C 3V4	
93881		15788	QILU PHARMACEUTICALS CO. LTD	DIN OWNER	Y	N	N			243 GONG YE BEI ROAD	JINAN	SHANDONG	CHINA	250100	
93889	APX08	3636	APOTEX INC	DIN OWNER	Y	Y	Y	N		150 SIGNET DRIVE	TORONTO	ONTARIO	CANADA	M9L 1T9	
93890	APX08	3636	APOTEX INC	DIN OWNER	Y	Y	Y	N		150 SIGNET DRIVE	TORONTO	ONTARIO	CANADA	M9L 1T9	
93891		8388	WOOD WYANT INC	DIN OWNER	Y	Y	Y	N		42 RUE DE L'ARTISAN	VICTORIAVILLE	QUEBEC	CANADA	G6P 7E3	
93892		15739	VPI PHARMACEUTICALS INC	DIN OWNER	Y	Y	Y			"16,667 BOUL. HYMUS"	KIRKLAND	QUEBEC	CANADA	H9H 4R9	
93893		15739	VPI PHARMACEUTICALS INC	DIN OWNER	Y	Y	Y			"16,667 BOUL. HYMUS"	KIRKLAND	QUEBEC	CANADA	H9H 4R9	
93894		15739	VPI PHARMACEUTICALS INC	DIN OWNER	Y	Y	Y			"16,667 BOUL. HYMUS"	KIRKLAND	QUEBEC	CANADA	H9H 4R9	
93895		15739	VPI PHARMACEUTICALS INC	DIN OWNER	Y	Y	Y			"16,667 BOUL. HYMUS"	KIRKLAND	QUEBEC	CANADA	H9H 4R9	
93896		15739	VPI PHARMACEUTICALS INC	DIN OWNER	Y	Y	Y			"16,667 BOUL. HYMUS"	KIRKLAND	QUEBEC	CANADA	H9H 4R9	
93897		14910	TOM FORD BEAUTY DIST.	DIN OWNER	Y	N	N			550 PETROLIA ROAD	TORONTO	ONTARIO	CANADA	M3J 2W3	
93907		16791	MEDENTECH	DIN OWNER	Y	N	N			CLONARD ROAD	WEXFORD	WEXFORD	IRELAND	.	
93918		17003	BLUE OCEAN FINANCIAL CORP	DIN OWNER	Y	Y	N			"525 WILSON AVE, SUITE 1101"	TORONTO	ONTARIO	CANADA	M3H 0A7	
93922		14464	CRLS	DIN OWNER	Y	Y	Y			"333-24 AVENUE SW, SUITE 300"	CALGARY	ALBERTA	CANADA	T2S 3E6	1381
93927		14464	CRLS	DIN OWNER	Y	Y	Y			"333-24 AVENUE SW, SUITE 300"	CALGARY	ALBERTA	CANADA	T2S 3E6	1381
93928		15590	CEVA ANIMAL HEALTH INC	DIN OWNER	Y	Y	Y			"1040 FOUNTAIN STREET NORTH, UNIT 6"	CAMBRIDGE	ONTARIO	CANADA	N3E 1A3	
93931	ALC08	3594	ALCON CANADA INC	DIN OWNER	Y	Y	Y	N		2665 MEADOWPINE BLVD	MISSISSAUGA	ONTARIO	CANADA	L5N 8C7	
93938		13175	UCB CANADA INC	DIN OWNER	Y	Y	Y			"2060 WINSTON PARK DRIVE, 401"	OAKVILLE	ONTARIO	CANADA	L6H 5R7	
93939		13175	UCB CANADA INC	DIN OWNER	Y	Y	Y			"2060 WINSTON PARK DRIVE, 401"	OAKVILLE	ONTARIO	CANADA	L6H 5R7	
93941		9551	ECOLAB INC	DIN OWNER	Y	N	Y			370 NORTH WABASHA ST SUITE EUC-9	ST. PAUL	MINNESOTA	UNITED STATES	55102	
93942		10577	CHIEF MEDICAL SUPPLIES LTD	DIN OWNER	Y	Y	Y			411-19 ST SE	CALGARY	ALBERTA	CANADA	T2E 6J7	
93943		10577	CHIEF MEDICAL SUPPLIES LTD	DIN OWNER	Y	Y	Y			411-19 ST SE	CALGARY	ALBERTA	CANADA	T2E 6J7	
93944		10577	CHIEF MEDICAL SUPPLIES LTD	DIN OWNER	Y	Y	Y			411-19 ST SE	CALGARY	ALBERTA	CANADA	T2E 6J7	
93945		10577	CHIEF MEDICAL SUPPLIES LTD	DIN OWNER	Y	Y	Y			411-19 ST SE	CALGARY	ALBERTA	CANADA	T2E 6J7	
93964	PMT07	4933	PHARMETICS (2011) INC	DIN OWNER	Y	Y	Y	N		3695 AUTOROUTE DES LAURENTIDES	LAVAL	QUEBEC	CANADA	H7L 3H7	
93965	PMT07	4933	PHARMETICS (2011) INC	DIN OWNER	Y	Y	Y	N		3695 AUTOROUTE DES LAURENTIDES	LAVAL	QUEBEC	CANADA	H7L 3H7	
93967		9043	VIROX TECHNOLOGIES INC	DIN OWNER	Y	Y	Y	N		2770 COVENTRY ROAD	OAKVILLE	ONTARIO	CANADA	L6H 6R1	
93972	ODN07	4835	ODAN LABORATORIES LTD	DIN OWNER	Y	Y	Y	N		325 STILLVIEW AVENUE	POINTE-CLAIRE	QUEBEC	CANADA	H9R 2Y6	
93974		15043	SUNOVION PHARMACEUTICALS CANADA INC	DIN OWNER	Y	Y	Y		100	6790 CENTURY AVE	MISSISSAUGA	ONTARIO	CANADA	L5N 2V8	
93975		15043	SUNOVION PHARMACEUTICALS CANADA INC	DIN OWNER	Y	Y	Y		100	6790 CENTURY AVE	MISSISSAUGA	ONTARIO	CANADA	L5N 2V8	
93976		15043	SUNOVION PHARMACEUTICALS CANADA INC	DIN OWNER	Y	Y	Y		100	6790 CENTURY AVE	MISSISSAUGA	ONTARIO	CANADA	L5N 2V8	
93979		12027	SANDOZ CANADA INCORPORATED	DIN OWNER	Y	Y	Y			145 JULES-LÉGER STREET	BOUCHERVILLE	QUEBEC	CANADA	J4B 7K8	
93987	JPC10	4415	JAMP PHARMA CORPORATION	DIN OWNER	Y	Y	Y	N		1310 RUE NOBEL	BOUCHERVILLE	QUEBEC	CANADA	J4B 5H3	
93988	JPC10	4415	JAMP PHARMA CORPORATION	DIN OWNER	Y	Y	Y	N		1310 RUE NOBEL	BOUCHERVILLE	QUEBEC	CANADA	J4B 5H3	
93992	DPC07	4065	DOMINION PHARMACAL	DIN OWNER	Y	Y	Y	N	SUITE 100	"6111, AVENUE ROYALMOUNT"	MONTREAL	QUEBEC	CANADA	H4P 2T4	
93993	DPC07	4065	DOMINION PHARMACAL	DIN OWNER	Y	Y	Y	N	SUITE 100	"6111, AVENUE ROYALMOUNT"	MONTREAL	QUEBEC	CANADA	H4P 2T4	
93995		13032	ACCORD HEALTHCARE INC	DIN OWNER	Y	Y	Y			"3535 BOULEVARD ST-CHARLES, SUITE 704"	KIRKLAND	QUEBEC	CANADA	H9H 5B9	
93997		11271	RANBAXY PHARMACEUTICALS CANADA INC.	DIN OWNER	Y	Y	Y			126 EAST DRIVE	BRAMPTON	ONTARIO	CANADA	L6T 1C1	
93998	JAJ07	4402	JOHNSON & JOHNSON INC	DIN OWNER	Y	Y	Y	N		88 MCNABB STREET	MARKHAM	ONTARIO	CANADA	L3R 5L2	
94004		12027	SANDOZ CANADA INCORPORATED	DIN OWNER	Y	Y	Y			145 JULES-LÉGER STREET	BOUCHERVILLE	QUEBEC	CANADA	J4B 7K8	
94008		17062	MIDWAY ADVANCED PRODUCTS LLC	DIN OWNER	Y	Y	Y			"800 TOWN COUNTRY BLVD, SUTIE 200"	HOUSTON	TEXAS	UNITED STATES	77024	
94009		17062	MIDWAY ADVANCED PRODUCTS LLC	DIN OWNER	Y	Y	Y			"800 TOWN COUNTRY BLVD, SUTIE 200"	HOUSTON	TEXAS	UNITED STATES	77024	
94014	NPE08	4780	NUTRICORP INTERNATIONAL	DIN OWNER	Y	Y	Y	N		4025 RHODES DRIVE	WINDSOR	ONTARIO	CANADA	N8W 5B5	
94015	NPE08	4780	NUTRICORP INTERNATIONAL	DIN OWNER	Y	Y	Y	N		4025 RHODES DRIVE	WINDSOR	ONTARIO	CANADA	N8W 5B5	
94027		14318	TEVA CANADA LIMITED	DIN OWNER	Y	Y	N			30 NOVOPHARM COURT	TORONTO	ONTARIO	CANADA	M1B 2K9	
94031	JPC10	4415	JAMP PHARMA CORPORATION	DIN OWNER	Y	Y	Y	N		1310 RUE NOBEL	BOUCHERVILLE	QUEBEC	CANADA	J4B 5H3	
94032	SOC07	5166	GROUPE SAVON OLYMPIC INC.	DIN OWNER	Y	Y	Y	N		2700 BOUL. DANIEL-JOHNSON	LAVAL	QUEBEC	CANADA	H7P 5Z7	
94033		16505	GENERIC PARTNERS (CANADA) INC.	DIN OWNER	Y	Y	N			"35 NIXON ROAD, UNIT 10"	CALEDON	ONTARIO	CANADA	L7E 1K1	
94034		17052	BARD PHARMACEUTICALS (1990) INC	DIN OWNER	Y	Y	N			580 GRANITE COURT	PICKERING	ONTARIO	CANADA	L1W 3W8	
94036		17052	BARD PHARMACEUTICALS (1990) INC	DIN OWNER	Y	Y	N			580 GRANITE COURT	PICKERING	ONTARIO	CANADA	L1W 3W8	
94038		17052	BARD PHARMACEUTICALS (1990) INC	DIN OWNER	Y	Y	N			580 GRANITE COURT	PICKERING	ONTARIO	CANADA	L1W 3W8	
94039		17052	BARD PHARMACEUTICALS (1990) INC	DIN OWNER	Y	Y	N			580 GRANITE COURT	PICKERING	ONTARIO	CANADA	L1W 3W8	
94040		17052	BARD PHARMACEUTICALS (1990) INC	DIN OWNER	Y	Y	N			580 GRANITE COURT	PICKERING	ONTARIO	CANADA	L1W 3W8	
94043		15772	ACTAVIS PHARMA COMPANY	DIN OWNER	Y	Y	Y			"6733 MISSISSAUGA ROAD, SUITE 400"	MISSISSAUGA	ONTARIO	CANADA	L5N 6J5	
94044		15772	ACTAVIS PHARMA COMPANY	DIN OWNER	Y	Y	Y			"6733 MISSISSAUGA ROAD, SUITE 400"	MISSISSAUGA	ONTARIO	CANADA	L5N 6J5	
94046		8612	ACCUCAPS INDUSTRIES LIMITED	DIN OWNER	Y	Y	N			2125 AMBASSADOR DRIVE	WINDSOR	ONTARIO	CANADA	N9C 3R5	
94049	PGA08	4911	PROCTER & GAMBLE INC	DIN OWNER	Y	N	N	N		4711 YONGE STREET	TORONTO	ONTARIO	CANADA	M2N 6K8	
94050		14774	LONDON DAIRY SUPPLY LTD	DIN OWNER	Y	Y	N			3700 OLD VICTORIA ROAD	LONDON	ONTARIO	CANADA	N6N 1R2	
94051		17059	NITMOI LABS INC	DIN OWNER	Y	Y	Y	N		29 CENTENNIAL ROAD UNITS 6-7	ORANGEVILLE	ONTARIO	CANADA	L9W 1R1	
94052	PGA08	4911	PROCTER & GAMBLE INC	DIN OWNER	Y	N	N	N		4711 YONGE STREET	TORONTO	ONTARIO	CANADA	M2N 6K8	
94054		14907	MARCAN PHARMACEUTICALS INC	DIN OWNER	Y	N	N		SUITE 4	77 AURIGA DRIVE	OTTAWA	ONTARIO	CANADA	K2E 7Z7	
94055		14907	MARCAN PHARMACEUTICALS INC	DIN OWNER	Y	N	N		SUITE 4	77 AURIGA DRIVE	OTTAWA	ONTARIO	CANADA	K2E 7Z7	
94056		14907	MARCAN PHARMACEUTICALS INC	DIN OWNER	Y	N	N		SUITE 4	77 AURIGA DRIVE	OTTAWA	ONTARIO	CANADA	K2E 7Z7	
94057		14907	MARCAN PHARMACEUTICALS INC	DIN OWNER	Y	N	N		SUITE 4	77 AURIGA DRIVE	OTTAWA	ONTARIO	CANADA	K2E 7Z7	
94058		13032	ACCORD HEALTHCARE INC	DIN OWNER	Y	Y	Y			"3535 BOULEVARD ST-CHARLES, SUITE 704"	KIRKLAND	QUEBEC	CANADA	H9H 5B9	
94060		13985	GENERIC MEDICAL PARTNERS INC	DIN OWNER	Y	Y	Y		SUITE 1200	251 CONSUMERS ROAD	TORONTO	ONTARIO	CANADA	M2J 4R3	
94064		16734	DERMCARE-VET PTY. LTD	DIN OWNER	Y	Y	Y			7 CENTENARY ROAD	SLACKS CREEK	QUEENSLAND	AUSTRALIA	4127	
94067		17075	CHANTECAILLE BEAUTÉ	DIN OWNER	Y	N	N			"584 BROADWAY, SUITE 1111"	NEW YORK	NEW YORK	UNITED STATES	10012	
94068		8612	ACCUCAPS INDUSTRIES LIMITED	DIN OWNER	Y	Y	N			2125 AMBASSADOR DRIVE	WINDSOR	ONTARIO	CANADA	N9C 3R5	
94069		8612	ACCUCAPS INDUSTRIES LIMITED	DIN OWNER	Y	Y	N			2125 AMBASSADOR DRIVE	WINDSOR	ONTARIO	CANADA	N9C 3R5	
94070	JAJ07	4402	JOHNSON & JOHNSON INC	DIN OWNER	Y	Y	Y	N		88 MCNABB STREET	MARKHAM	ONTARIO	CANADA	L3R 5L2	
94076		8612	ACCUCAPS INDUSTRIES LIMITED	DIN OWNER	Y	Y	N			2125 AMBASSADOR DRIVE	WINDSOR	ONTARIO	CANADA	N9C 3R5	
94078		10074	ORIGINS NATURAL RESOURCES DIST	DIN OWNER	Y	N	N			550 PETROLIA ROAD	TORONTO	ONTARIO	CANADA	M3J 2W3	
94083	JPC10	4415	JAMP PHARMA CORPORATION	DIN OWNER	Y	Y	Y	N		1310 RUE NOBEL	BOUCHERVILLE	QUEBEC	CANADA	J4B 5H3	
94084		15645	ZOETIS CANADA INC	DIN OWNER	Y	Y	Y			16740 TRANS CANADA HIGHWAY	KIRKLAND	QUEBEC	CANADA	H9H 4M7	
94093		17073	"HALYARD HEALTH, INC"	DIN OWNER	Y	N	Y			5405 WINDWARD PARKWAY	ALPHARETTA	GEORGIA	UNITED STATES	30004	
94094		14464	CRLS	DIN OWNER	Y	Y	Y			"333-24 AVENUE SW, SUITE 300"	CALGARY	ALBERTA	CANADA	T2S 3E6	1381
94095		9071	THE CLOROX COMPANY OF CANADA LTD	DIN OWNER	Y	Y	Y			150 BISCAYNE CRESCENT	BRAMPTON	ONTARIO	CANADA	L6W 4V3	
94101	PGA08	4911	PROCTER & GAMBLE INC	DIN OWNER	Y	N	N	N		4711 YONGE STREET	TORONTO	ONTARIO	CANADA	M2N 6K8	
94102	APX08	3636	APOTEX INC	DIN OWNER	Y	Y	Y	N		150 SIGNET DRIVE	TORONTO	ONTARIO	CANADA	M9L 1T9	
94106		13032	ACCORD HEALTHCARE INC	DIN OWNER	Y	Y	Y			"3535 BOULEVARD ST-CHARLES, SUITE 704"	KIRKLAND	QUEBEC	CANADA	H9H 5B9	
94107		13032	ACCORD HEALTHCARE INC	DIN OWNER	Y	Y	Y			"3535 BOULEVARD ST-CHARLES, SUITE 704"	KIRKLAND	QUEBEC	CANADA	H9H 5B9	
94108		13985	GENERIC MEDICAL PARTNERS INC	DIN OWNER	Y	Y	Y		SUITE 1200	251 CONSUMERS ROAD	TORONTO	ONTARIO	CANADA	M2J 4R3	
94118	APX08	3636	APOTEX INC	DIN OWNER	Y	Y	Y	N		150 SIGNET DRIVE	TORONTO	ONTARIO	CANADA	M9L 1T9	
94132		12027	SANDOZ CANADA INCORPORATED	DIN OWNER	Y	Y	Y			145 JULES-LÉGER STREET	BOUCHERVILLE	QUEBEC	CANADA	J4B 7K8	
94133		12027	SANDOZ CANADA INCORPORATED	DIN OWNER	Y	Y	Y			145 JULES-LÉGER STREET	BOUCHERVILLE	QUEBEC	CANADA	J4B 7K8	
94134		12027	SANDOZ CANADA INCORPORATED	DIN OWNER	Y	Y	Y			145 JULES-LÉGER STREET	BOUCHERVILLE	QUEBEC	CANADA	J4B 7K8	
94139		11271	RANBAXY PHARMACEUTICALS CANADA INC.	DIN OWNER	Y	Y	Y			126 EAST DRIVE	BRAMPTON	ONTARIO	CANADA	L6T 1C1	
94140	RIV07	5034	LABORATOIRE RIVA INC	DIN OWNER	Y	Y	N	N		660 BOUL. INDUSTRIEL	BLAINVILLE	QUEBEC	CANADA	J7C 3V4	
94142	RIV07	5034	LABORATOIRE RIVA INC	DIN OWNER	Y	Y	N	N		660 BOUL. INDUSTRIEL	BLAINVILLE	QUEBEC	CANADA	J7C 3V4	
94144		10348	MEDEXUS INC	DIN OWNER	Y	Y	Y			"35 NIXON ROAD, UNIT 1"	BOLTON	ONTARIO	CANADA	L7E 1K1	
94147		8916	METHAPHARM INC	DIN OWNER	Y	Y	Y	N		81 SINCLAIR BLVD	BRANTFORD	ONTARIO	CANADA	N3S 7X6	
94159		17093	ARALEZ PHARMACEUTICALS TRADING DAC	DIN OWNER	Y	N	Y			47-49 ST STEPHENS GREEN	DUBLIN 2	--	IRELAND		
94160		10348	MEDEXUS INC	DIN OWNER	Y	Y	Y			"35 NIXON ROAD, UNIT 1"	BOLTON	ONTARIO	CANADA	L7E 1K1	
94161		10348	MEDEXUS INC	DIN OWNER	Y	Y	Y			"35 NIXON ROAD, UNIT 1"	BOLTON	ONTARIO	CANADA	L7E 1K1	
94162		10348	MEDEXUS INC	DIN OWNER	Y	Y	Y			"35 NIXON ROAD, UNIT 1"	BOLTON	ONTARIO	CANADA	L7E 1K1	
94168		15590	CEVA ANIMAL HEALTH INC	DIN OWNER	Y	Y	Y			"1040 FOUNTAIN STREET NORTH, UNIT 6"	CAMBRIDGE	ONTARIO	CANADA	N3E 1A3	
94170		9043	VIROX TECHNOLOGIES INC	DIN OWNER	Y	Y	Y	N		2770 COVENTRY ROAD	OAKVILLE	ONTARIO	CANADA	L6H 6R1	
94171	MCL08	4569	MCNEIL CONSUMER HEALTHCARE DIVISION OF JOHNSON & JOHNSON INC	DIN OWNER	Y	Y	Y	N		88 MCNABB STREET	MARKHAM	ONTARIO	CANADA	L3R 5L2	
94173	NFG08	4398	INTERVET CANADA CORP	DIN OWNER	Y	Y	Y	N		16750 ROUTE TRANSCANADIENNE	KIRKLAND	QUEBEC	CANADA	H9H 4M7	
94174	NFG08	4398	INTERVET CANADA CORP	DIN OWNER	Y	Y	Y	N		16750 ROUTE TRANSCANADIENNE	KIRKLAND	QUEBEC	CANADA	H9H 4M7	
94175	NFG08	4398	INTERVET CANADA CORP	DIN OWNER	Y	Y	Y	N		16750 ROUTE TRANSCANADIENNE	KIRKLAND	QUEBEC	CANADA	H9H 4M7	
94176	NFG08	4398	INTERVET CANADA CORP	DIN OWNER	Y	Y	Y	N		16750 ROUTE TRANSCANADIENNE	KIRKLAND	QUEBEC	CANADA	H9H 4M7	
94177	NFG08	4398	INTERVET CANADA CORP	DIN OWNER	Y	Y	Y	N		16750 ROUTE TRANSCANADIENNE	KIRKLAND	QUEBEC	CANADA	H9H 4M7	
94178	NFG08	4398	INTERVET CANADA CORP	DIN OWNER	Y	Y	Y	N		16750 ROUTE TRANSCANADIENNE	KIRKLAND	QUEBEC	CANADA	H9H 4M7	
94179	NFG08	4398	INTERVET CANADA CORP	DIN OWNER	Y	Y	Y	N		16750 ROUTE TRANSCANADIENNE	KIRKLAND	QUEBEC	CANADA	H9H 4M7	
94180	NFG08	4398	INTERVET CANADA CORP	DIN OWNER	Y	Y	Y	N		16750 ROUTE TRANSCANADIENNE	KIRKLAND	QUEBEC	CANADA	H9H 4M7	
94183		14942	EOS PRODUCTS LLC	DIN OWNER	Y	Y	N			"19 W 44TH  STREET, SUITE 811"	NEW YORK	NEW YORK	UNITED STATES	10036	
94184	CLQ08	3916	CLINIQUE LABORATORIES DIST	DIN OWNER	Y	N	N	N		550 PETROLIA ROAD	TORONTO	ONTARIO	CANADA	M3J 2W3	
94185		14942	EOS PRODUCTS LLC	DIN OWNER	Y	Y	N			"19 W 44TH  STREET, SUITE 811"	NEW YORK	NEW YORK	UNITED STATES	10036	
94196	AVO07	3685	AVON CANADA INC	DIN OWNER	Y	Y	N	N		5500 TRANS-CANADA HIGHWAY	POINTE-CLAIRE	QUEBEC	CANADA	H9R 1B6	
94197		15023	ALBERTA VETERINARY LABORATORIES LTD	DIN OWNER	Y	Y	Y			411-19TH STREET S.E.	CALGARY	ALBERTA	CANADA	T2E 6J7	
94198	CVH08	5793	CAN-VET ANIMAL HEALTH SUPPLIES LTD.	DIN OWNER	Y	Y	Y	N	4	61 MALCOLM ROAD	GUELPH	ONTARIO	CANADA	N1K 1A7	
94199		13690	DIAMOND WIPES INTERNATIONAL INC	DIN OWNER	Y	Y	Y			4651 SCHAEFER AVENUE	CHINO	CALIFORNIA	UNITED STATES	91710	
94200		11979	AURO PHARMA INC	DIN OWNER	Y	Y	Y			"3700 STEELES AVENUE WEST, SUITE 402"	WOODBRIDGE	ONTARIO	CANADA	L4L 8K8	
94201		11979	AURO PHARMA INC	DIN OWNER	Y	Y	Y			"3700 STEELES AVENUE WEST, SUITE 402"	WOODBRIDGE	ONTARIO	CANADA	L4L 8K8	
94202		11979	AURO PHARMA INC	DIN OWNER	Y	Y	Y			"3700 STEELES AVENUE WEST, SUITE 402"	WOODBRIDGE	ONTARIO	CANADA	L4L 8K8	
94203		11979	AURO PHARMA INC	DIN OWNER	Y	Y	Y			"3700 STEELES AVENUE WEST, SUITE 402"	WOODBRIDGE	ONTARIO	CANADA	L4L 8K8	
94206	DIV08	4044	DIVERSEY INC	DIN OWNER	Y	N	N	N		P.O. BOX 19747	CHARLOTTE	NORTH CAROLINA	UNITED STATES	28219	
94208		15872	"ANDERSEN PRODUCTS, INC"	DIN OWNER	Y	Y	Y			3202 CAROLINE DR.	HAW RIVER	NORTH CAROLINA	UNITED STATES	27258	
94209		15872	"ANDERSEN PRODUCTS, INC"	DIN OWNER	Y	Y	Y			3202 CAROLINE DR.	HAW RIVER	NORTH CAROLINA	UNITED STATES	27258	
94210		17068	KC PHARMACEUTICALS INC	DIN OWNER	Y	N	Y			3201 PRODUCER WAY	POMONA	CALIFORNIA	UNITED STATES	91768	
94211		17068	KC PHARMACEUTICALS INC	DIN OWNER	Y	N	Y			3201 PRODUCER WAY	POMONA	CALIFORNIA	UNITED STATES	91768	
94219	APX08	3636	APOTEX INC	DIN OWNER	Y	Y	Y	N		150 SIGNET DRIVE	TORONTO	ONTARIO	CANADA	M9L 1T9	
94227		11587	MEDLINE INDUSTRIES INCORPORATED	DIN OWNER	Y	N	N			1 MEDLINE PLACE	MUNDELEIN	ILLINOIS	UNITED STATES	60060	
94229	APX08	3636	APOTEX INC	DIN OWNER	Y	Y	Y	N		150 SIGNET DRIVE	TORONTO	ONTARIO	CANADA	M9L 1T9	
94230	APX08	3636	APOTEX INC	DIN OWNER	Y	Y	Y	N		150 SIGNET DRIVE	TORONTO	ONTARIO	CANADA	M9L 1T9	
94238		17068	KC PHARMACEUTICALS INC	DIN OWNER	Y	N	Y			3201 PRODUCER WAY	POMONA	CALIFORNIA	UNITED STATES	91768	
94241		12914	MODERN VETERINARY THERAPEUTICS LLC	DIN OWNER	Y	Y	Y			"18001 OLD CUTLER ROAD, SUITE 633"	MIAMI	FLORIDA	UNITED STATES	33157	
94244		13741	PHARMAPAR INC	DIN OWNER	Y	Y	N			"1565 BOUL LIONEL-BOULET	"	VARENNES	QUEBEC	CANADA	J3X 1P7	
94245		13741	PHARMAPAR INC	DIN OWNER	Y	Y	N			"1565 BOUL LIONEL-BOULET	"	VARENNES	QUEBEC	CANADA	J3X 1P7	
94246		13741	PHARMAPAR INC	DIN OWNER	Y	Y	N			"1565 BOUL LIONEL-BOULET	"	VARENNES	QUEBEC	CANADA	J3X 1P7	
94247		13741	PHARMAPAR INC	DIN OWNER	Y	Y	N			"1565 BOUL LIONEL-BOULET	"	VARENNES	QUEBEC	CANADA	J3X 1P7	
94248	PMS07	3550	PHARMASCIENCE INC	DIN OWNER	Y	Y	Y	N	100	"6111, ROYALMOUNT AVENUE"	MONTREAL	QUEBEC	CANADA	H4P 2T4	
94249		10997	BIOMED PHARMA	DIN OWNER	Y	Y	N			1565 BOUL LIONEL-BOULET	VARENNES	QUEBEC	CANADA	J3X 1P7	
94250		10997	BIOMED PHARMA	DIN OWNER	Y	Y	N			1565 BOUL LIONEL-BOULET	VARENNES	QUEBEC	CANADA	J3X 1P7	
94251		10997	BIOMED PHARMA	DIN OWNER	Y	Y	N			1565 BOUL LIONEL-BOULET	VARENNES	QUEBEC	CANADA	J3X 1P7	
94252		10997	BIOMED PHARMA	DIN OWNER	Y	Y	N			1565 BOUL LIONEL-BOULET	VARENNES	QUEBEC	CANADA	J3X 1P7	
94254	RAX08	8892	STERIMAX INC	DIN OWNER	Y	Y	Y			2770 PORTLAND DRIVE	OAKVILLE	ONTARIO	CANADA	L6H 6R4	
94255		15018	MDA INC.	DIN OWNER	Y	Y	Y			206-2401 BRISTOL CIRCLE	OAKVILLE	ONTARIO	CANADA	L6H 5S9	
94256		15018	MDA INC.	DIN OWNER	Y	Y	Y			206-2401 BRISTOL CIRCLE	OAKVILLE	ONTARIO	CANADA	L6H 5S9	
94262		11993	SIAMONS INTERNATIONAL INC.	DIN OWNER	Y	N	Y		SUITE 413	48 GALAXY BLVD	TORONTO	ONTARIO	CANADA	M9W 6C8	
94263	REK07	5010	RECKITT BENCKISER (CANADA) INC	DIN OWNER	Y	Y	Y	N	UNIT #2	1680 TECH AVENUE	MISSISSAUGA	ONTARIO	CANADA	L4W 5S9	
94265	MAK08	4550	3M CANADA COMPANY	DIN OWNER	Y	Y	Y	N		300 TARTAN DR.	LONDON	ONTARIO	CANADA	N5V 4M9	
94269		12027	SANDOZ CANADA INCORPORATED	DIN OWNER	Y	Y	Y			145 JULES-LÉGER STREET	BOUCHERVILLE	QUEBEC	CANADA	J4B 7K8	
94270		12027	SANDOZ CANADA INCORPORATED	DIN OWNER	Y	Y	Y			145 JULES-LÉGER STREET	BOUCHERVILLE	QUEBEC	CANADA	J4B 7K8	
94271	PGA08	4911	PROCTER & GAMBLE INC	DIN OWNER	Y	N	N	N		4711 YONGE STREET	TORONTO	ONTARIO	CANADA	M2N 6K8	
94272		12027	SANDOZ CANADA INCORPORATED	DIN OWNER	Y	Y	Y			145 JULES-LÉGER STREET	BOUCHERVILLE	QUEBEC	CANADA	J4B 7K8	
94277		13930	MYLAN PHARMACEUTICALS ULC	DIN OWNER	Y	Y	Y			85 ADVANCE ROAD	ETOBICOKE	ONTARIO	CANADA	M8Z 2S6	
94278	BQC07	3798	BRISTOL-MYERS SQUIBB CANADA	DIN OWNER	Y	Y	Y	N		"2344 BOUL. ALFRED-NOBEL, SUITE 300"	MONTRÉAL (ST-LAURENT)	QUEBEC	CANADA	H4S 0A4	
94279	BQC07	3798	BRISTOL-MYERS SQUIBB CANADA	DIN OWNER	Y	Y	Y	N		"2344 BOUL. ALFRED-NOBEL, SUITE 300"	MONTRÉAL (ST-LAURENT)	QUEBEC	CANADA	H4S 0A4	
94292		15347	BIOSENTA INC	DIN OWNER	Y	N	N			"3080 YONGE STREET, SUITE 6020, BOX 86"	TORONTO	ONTARIO	CANADA	M4N 3N1	
94294		13032	ACCORD HEALTHCARE INC	DIN OWNER	Y	Y	Y			"3535 BOULEVARD ST-CHARLES, SUITE 704"	KIRKLAND	QUEBEC	CANADA	H9H 5B9	
94295		13032	ACCORD HEALTHCARE INC	DIN OWNER	Y	Y	Y			"3535 BOULEVARD ST-CHARLES, SUITE 704"	KIRKLAND	QUEBEC	CANADA	H9H 5B9	
94297		13930	MYLAN PHARMACEUTICALS ULC	DIN OWNER	Y	Y	Y			85 ADVANCE ROAD	ETOBICOKE	ONTARIO	CANADA	M8Z 2S6	
94298		13930	MYLAN PHARMACEUTICALS ULC	DIN OWNER	Y	Y	Y			85 ADVANCE ROAD	ETOBICOKE	ONTARIO	CANADA	M8Z 2S6	
94300		16725	BEXIMCO PHARMACEUTICALS CANADA LIMITED	DIN OWNER	Y	N	Y			80 DUNSTALL CRESCENT	TORONTO	ONTARIO	CANADA	M1E 3M4	
94301	APX08	3636	APOTEX INC	DIN OWNER	Y	Y	Y	N		150 SIGNET DRIVE	TORONTO	ONTARIO	CANADA	M9L 1T9	
94302		17110	BMB SALES AND MARKETING	DIN OWNER	Y	Y	N			"330 HIGHWAY 7 E, PH1"	RICHMOND HILL	ONTARIO	CANADA	L4B 3P8	
94312		15192	LABORATOIRES THEA	DIN OWNER	Y	N	N			12 RUE LOUIS BLERIOT	CLERMONT-FERRAND	CEDEX 2	FRANCE	63017	
94314		12027	SANDOZ CANADA INCORPORATED	DIN OWNER	Y	Y	Y			145 JULES-LÉGER STREET	BOUCHERVILLE	QUEBEC	CANADA	J4B 7K8	
94315		14128	CHINOOK PHARMACY LTD	DIN OWNER	Y	Y	Y			10440 WAPITI DRIVE SE	CALGARY	ALBERTA	CANADA	T2J 1J4	
94318		8541	VITA HEALTH PRODUCTS INC	DIN OWNER	Y	N	Y	N		150 BEGHIN AVENUE	WINNIPEG	MANITOBA	CANADA	R2J 3W2	
94329		13930	MYLAN PHARMACEUTICALS ULC	DIN OWNER	Y	Y	Y			85 ADVANCE ROAD	ETOBICOKE	ONTARIO	CANADA	M8Z 2S6	
94333		8388	WOOD WYANT INC	DIN OWNER	Y	Y	Y	N		42 RUE DE L'ARTISAN	VICTORIAVILLE	QUEBEC	CANADA	G6P 7E3	
94337	PGA08	4911	PROCTER & GAMBLE INC	DIN OWNER	Y	N	N	N		4711 YONGE STREET	TORONTO	ONTARIO	CANADA	M2N 6K8	
94338	PGA08	4911	PROCTER & GAMBLE INC	DIN OWNER	Y	N	N	N		4711 YONGE STREET	TORONTO	ONTARIO	CANADA	M2N 6K8	
94339	PGA08	4911	PROCTER & GAMBLE INC	DIN OWNER	Y	N	N	N		4711 YONGE STREET	TORONTO	ONTARIO	CANADA	M2N 6K8	
94340	PGA08	4911	PROCTER & GAMBLE INC	DIN OWNER	Y	N	N	N		4711 YONGE STREET	TORONTO	ONTARIO	CANADA	M2N 6K8	
94341	RAX08	8892	STERIMAX INC	DIN OWNER	Y	Y	Y			2770 PORTLAND DRIVE	OAKVILLE	ONTARIO	CANADA	L6H 6R4	
94351	CLQ08	3916	CLINIQUE LABORATORIES DIST	DIN OWNER	Y	N	N	N		550 PETROLIA ROAD	TORONTO	ONTARIO	CANADA	M3J 2W3	
94355		7555	EURO-PHARM INTERNATIONAL CANADA INC	DIN OWNER	Y	Y	Y	N		9400  BOUL. LANGELIER	MONTREAL	QUEBEC	CANADA	H1P 3H8	
94363		15687	IMAGE INTERNATIONALMANUFACTURING INC.	DIN OWNER	Y	Y	Y			7130 SEACREST BLVD	LANTANA	FLORIDA	UNITED STATES	33462	
94364		15687	IMAGE INTERNATIONALMANUFACTURING INC.	DIN OWNER	Y	Y	Y			7130 SEACREST BLVD	LANTANA	FLORIDA	UNITED STATES	33462	
94365	LEO08	4489	LEO PHARMA INC	DIN OWNER	Y	Y	N	N		"123 COMMERCE VALLEY DRIVE EAST, SUITE 400"	THORNHILL	ONTARIO	CANADA	L3T 7W8	
94366	LEO08	4489	LEO PHARMA INC	DIN OWNER	Y	Y	N	N		"123 COMMERCE VALLEY DRIVE EAST, SUITE 400"	THORNHILL	ONTARIO	CANADA	L3T 7W8	
94367		14624	PFIZER CONSUMER HEALTHCARE A DIVISION OF PFIZER CANADA INC	DIN OWNER	Y	N	Y			"55 STANDISH COURT, SUITE 450"	MISSISSAUGA	ONTARIO	CANADA	L5R 4B2	
94368		14624	PFIZER CONSUMER HEALTHCARE A DIVISION OF PFIZER CANADA INC	DIN OWNER	Y	N	Y			"55 STANDISH COURT, SUITE 450"	MISSISSAUGA	ONTARIO	CANADA	L5R 4B2	
94369		14624	PFIZER CONSUMER HEALTHCARE A DIVISION OF PFIZER CANADA INC	DIN OWNER	Y	N	Y			"55 STANDISH COURT, SUITE 450"	MISSISSAUGA	ONTARIO	CANADA	L5R 4B2	
94370		9898	OBAGI MEDICAL PRODUCTS A DIV OF VALEANT PHARMACEUTICALS NORTH AMERICA LLC	DIN OWNER	Y	N	N			400 SOMERSET CORPORATE BOULEVARD	BRIDGEWATER	NEW JERSEY	UNITED STATES	8807	
94371		12027	SANDOZ CANADA INCORPORATED	DIN OWNER	Y	Y	Y			145 JULES-LÉGER STREET	BOUCHERVILLE	QUEBEC	CANADA	J4B 7K8	
94372		12027	SANDOZ CANADA INCORPORATED	DIN OWNER	Y	Y	Y			145 JULES-LÉGER STREET	BOUCHERVILLE	QUEBEC	CANADA	J4B 7K8	
94373		12027	SANDOZ CANADA INCORPORATED	DIN OWNER	Y	Y	Y			145 JULES-LÉGER STREET	BOUCHERVILLE	QUEBEC	CANADA	J4B 7K8	
94374		15772	ACTAVIS PHARMA COMPANY	DIN OWNER	Y	Y	Y			"6733 MISSISSAUGA ROAD, SUITE 400"	MISSISSAUGA	ONTARIO	CANADA	L5N 6J5	
94375		15772	ACTAVIS PHARMA COMPANY	DIN OWNER	Y	Y	Y			"6733 MISSISSAUGA ROAD, SUITE 400"	MISSISSAUGA	ONTARIO	CANADA	L5N 6J5	
94386		9071	THE CLOROX COMPANY OF CANADA LTD	DIN OWNER	Y	Y	Y			150 BISCAYNE CRESCENT	BRAMPTON	ONTARIO	CANADA	L6W 4V3	
94387	WEX95	6779	WEXFORD LABS INC	DIN OWNER	Y	Y	Y	N		325 LEFFINGWELL AVENUE	KIRKWOOD	MISSOURI	UNITED STATES	63122	
94388		12250	MERCK CANADA INC	DIN OWNER	Y	Y	Y			16750 ROUTE TRANSCANADIENNE	KIRKLAND	QUEBEC	CANADA	H9H 4M7	
94389		13930	MYLAN PHARMACEUTICALS ULC	DIN OWNER	Y	Y	Y			85 ADVANCE ROAD	ETOBICOKE	ONTARIO	CANADA	M8Z 2S6	
94390		13930	MYLAN PHARMACEUTICALS ULC	DIN OWNER	Y	Y	Y			85 ADVANCE ROAD	ETOBICOKE	ONTARIO	CANADA	M8Z 2S6	
94391		13930	MYLAN PHARMACEUTICALS ULC	DIN OWNER	Y	Y	Y			85 ADVANCE ROAD	ETOBICOKE	ONTARIO	CANADA	M8Z 2S6	
94392	SEV07	5096	SERVIER CANADA INC	DIN OWNER	Y	N	N	N		235 BOUL. ARMAND-FRAPPIER  - PARC SCIENTIF. ET DE HAUTE TECH. DE LAVAL	LAVAL	QUEBEC	CANADA	H7V 4A7	
94401		14236	SANIS HEALTH INC	DIN OWNER	Y	N	N			1 PRESIDENTS CHOICE CIRCLE	BRAMPTON	ONTARIO	CANADA	L6Y 5S5	
94402		14236	SANIS HEALTH INC	DIN OWNER	Y	N	N			1 PRESIDENTS CHOICE CIRCLE	BRAMPTON	ONTARIO	CANADA	L6Y 5S5	
94403		14236	SANIS HEALTH INC	DIN OWNER	Y	N	N			1 PRESIDENTS CHOICE CIRCLE	BRAMPTON	ONTARIO	CANADA	L6Y 5S5	
94410		10114	GLAXOSMITHKLINE CONSUMER HEALTHCARE INC.	DIN OWNER	Y	Y	Y			"7333 MISSISSAUGA ROAD, 4TH FLOOR"	MISSISSAUGA	ONTARIO	CANADA	L5N 6L4	
94411		13745	LIBERCHEM INC	DIN OWNER	Y	Y	Y			572 AVENUE ORLY	DORVAL	QUEBEC	CANADA	H9P 1E9	
94413	OMG07	4852	OMEGA LABORATORIES LTD	DIN OWNER	Y	Y	Y	N		11177 HAMON	MONTREAL	QUEBEC	CANADA	H3M 3E4	
94414		17109	TELIGENT OU	DIN OWNER	Y	N	N			AKADEEMIA TEE 21/5	TALLINN	HARJU COUNTY	ESTONIA	12618	
94415		17109	TELIGENT OU	DIN OWNER	Y	N	N			AKADEEMIA TEE 21/5	TALLINN	HARJU COUNTY	ESTONIA	12618	
94416		17109	TELIGENT OU	DIN OWNER	Y	N	N			AKADEEMIA TEE 21/5	TALLINN	HARJU COUNTY	ESTONIA	12618	
94417	MTH08	4675	THE MENTHOLATUM COMPANY OF CANADA LTD	DIN OWNER	Y	Y	N	N	UNIT 2	45 HANNOVER DR.	ST. CATHARINES	ONTARIO	CANADA	L2W 1A3	
94419	CHU08	3893	CHURCH & DWIGHT CANADA CORP	DIN OWNER	Y	N	N	N		635 SECRETARIAT COURT	MISSISSAUGA	ONTARIO	CANADA	L5S 0A5	
94421		17142	JUNO OTC INC	DIN OWNER	Y	N	Y			"555 RICHMOND STREET WEST, SUITE 1004"	TORONTO	ONTARIO	CANADA	M5V 3B1	
94424		13930	MYLAN PHARMACEUTICALS ULC	DIN OWNER	Y	Y	Y			85 ADVANCE ROAD	ETOBICOKE	ONTARIO	CANADA	M8Z 2S6	
94425		13930	MYLAN PHARMACEUTICALS ULC	DIN OWNER	Y	Y	Y			85 ADVANCE ROAD	ETOBICOKE	ONTARIO	CANADA	M8Z 2S6	
94427	TAR08	5241	TARO PHARMACEUTICALS INC	DIN OWNER	Y	Y	N	N		130 EAST DRIVE	BRAMPTON	ONTARIO	CANADA	L6T 1C1	
94428	TAR08	5241	TARO PHARMACEUTICALS INC	DIN OWNER	Y	Y	N	N		130 EAST DRIVE	BRAMPTON	ONTARIO	CANADA	L6T 1C1	
94429		13985	GENERIC MEDICAL PARTNERS INC	DIN OWNER	Y	Y	Y		SUITE 1200	251 CONSUMERS ROAD	TORONTO	ONTARIO	CANADA	M2J 4R3	
94430	APX08	3636	APOTEX INC	DIN OWNER	Y	Y	Y	N		150 SIGNET DRIVE	TORONTO	ONTARIO	CANADA	M9L 1T9	
94431	APX08	3636	APOTEX INC	DIN OWNER	Y	Y	Y	N		150 SIGNET DRIVE	TORONTO	ONTARIO	CANADA	M9L 1T9	
94432	APX08	3636	APOTEX INC	DIN OWNER	Y	Y	Y	N		150 SIGNET DRIVE	TORONTO	ONTARIO	CANADA	M9L 1T9	
94433	APX08	3636	APOTEX INC	DIN OWNER	Y	Y	Y	N		150 SIGNET DRIVE	TORONTO	ONTARIO	CANADA	M9L 1T9	
94434	APX08	3636	APOTEX INC	DIN OWNER	Y	Y	Y	N		150 SIGNET DRIVE	TORONTO	ONTARIO	CANADA	M9L 1T9	
94444		13032	ACCORD HEALTHCARE INC	DIN OWNER	Y	Y	Y			"3535 BOULEVARD ST-CHARLES, SUITE 704"	KIRKLAND	QUEBEC	CANADA	H9H 5B9	
94447		13374	DECHRA LTD	DIN OWNER	Y	N	N			"SNAYGILL INDUSTRIAL ESTATE, KEIGHLEY ROAD"	SKIPTON	NORTH YORKSHIRE	UNITED KINGDOM	BD23 2RW	
94448	APX08	3636	APOTEX INC	DIN OWNER	Y	Y	Y	N		150 SIGNET DRIVE	TORONTO	ONTARIO	CANADA	M9L 1T9	
94449		9484	ERFA CANADA 2012 INC	DIN OWNER	Y	N	N	N		"8250 BLVD DECARIE, SUITE 110"	MONTREAL	QUEBEC	CANADA	H4P 2P5	
94452		16555	FRESENIUS KABI CANADA LTD	DIN OWNER	Y	Y	Y			"165 GALAXY BLVD, SUITE 100"	TORONTO	ONTARIO	CANADA	M9W 0C8	
94453		16555	FRESENIUS KABI CANADA LTD	DIN OWNER	Y	Y	Y			"165 GALAXY BLVD, SUITE 100"	TORONTO	ONTARIO	CANADA	M9W 0C8	
94454	TAR08	5241	TARO PHARMACEUTICALS INC	DIN OWNER	Y	Y	N	N		130 EAST DRIVE	BRAMPTON	ONTARIO	CANADA	L6T 1C1	
94455	TAR08	5241	TARO PHARMACEUTICALS INC	DIN OWNER	Y	Y	N	N		130 EAST DRIVE	BRAMPTON	ONTARIO	CANADA	L6T 1C1	
94456		12027	SANDOZ CANADA INCORPORATED	DIN OWNER	Y	Y	Y			145 JULES-LÉGER STREET	BOUCHERVILLE	QUEBEC	CANADA	J4B 7K8	
94457	DIV08	4044	DIVERSEY INC	DIN OWNER	Y	N	N	N		P.O. BOX 19747	CHARLOTTE	NORTH CAROLINA	UNITED STATES	28219	
94458		15772	ACTAVIS PHARMA COMPANY	DIN OWNER	Y	Y	Y			"6733 MISSISSAUGA ROAD, SUITE 400"	MISSISSAUGA	ONTARIO	CANADA	L5N 6J5	
94459	JPC10	4415	JAMP PHARMA CORPORATION	DIN OWNER	Y	Y	Y	N		1310 RUE NOBEL	BOUCHERVILLE	QUEBEC	CANADA	J4B 5H3	
94460		11979	AURO PHARMA INC	DIN OWNER	Y	Y	Y			"3700 STEELES AVENUE WEST, SUITE 402"	WOODBRIDGE	ONTARIO	CANADA	L4L 8K8	
94461		11979	AURO PHARMA INC	DIN OWNER	Y	Y	Y			"3700 STEELES AVENUE WEST, SUITE 402"	WOODBRIDGE	ONTARIO	CANADA	L4L 8K8	
94463		10074	ORIGINS NATURAL RESOURCES DIST	DIN OWNER	Y	N	N			550 PETROLIA ROAD	TORONTO	ONTARIO	CANADA	M3J 2W3	
94464	MCL08	4569	MCNEIL CONSUMER HEALTHCARE DIVISION OF JOHNSON & JOHNSON INC	DIN OWNER	Y	Y	Y	N		88 MCNABB STREET	MARKHAM	ONTARIO	CANADA	L3R 5L2	
94465	MCL08	4569	MCNEIL CONSUMER HEALTHCARE DIVISION OF JOHNSON & JOHNSON INC	DIN OWNER	Y	Y	Y	N		88 MCNABB STREET	MARKHAM	ONTARIO	CANADA	L3R 5L2	
94466	MCL08	4569	MCNEIL CONSUMER HEALTHCARE DIVISION OF JOHNSON & JOHNSON INC	DIN OWNER	Y	Y	Y	N		88 MCNABB STREET	MARKHAM	ONTARIO	CANADA	L3R 5L2	
94467	MCL08	4569	MCNEIL CONSUMER HEALTHCARE DIVISION OF JOHNSON & JOHNSON INC	DIN OWNER	Y	Y	Y	N		88 MCNABB STREET	MARKHAM	ONTARIO	CANADA	L3R 5L2	
94468	MCL08	4569	MCNEIL CONSUMER HEALTHCARE DIVISION OF JOHNSON & JOHNSON INC	DIN OWNER	Y	Y	Y	N		88 MCNABB STREET	MARKHAM	ONTARIO	CANADA	L3R 5L2	
94469	JPC10	4415	JAMP PHARMA CORPORATION	DIN OWNER	Y	Y	Y	N		1310 RUE NOBEL	BOUCHERVILLE	QUEBEC	CANADA	J4B 5H3	
94470		16351	VANC PHARMACEUTICALS INC	DIN OWNER	Y	N	N			"2639 VIKING WAY, UNIT 210"	RICHMOND	BRITISH COLUMBIA	CANADA	V6V 3B7	
94471	JPC10	4415	JAMP PHARMA CORPORATION	DIN OWNER	Y	Y	Y	N		1310 RUE NOBEL	BOUCHERVILLE	QUEBEC	CANADA	J4B 5H3	
94472	JPC10	4415	JAMP PHARMA CORPORATION	DIN OWNER	Y	Y	Y	N		1310 RUE NOBEL	BOUCHERVILLE	QUEBEC	CANADA	J4B 5H3	
94473	JPC10	4415	JAMP PHARMA CORPORATION	DIN OWNER	Y	Y	Y	N		1310 RUE NOBEL	BOUCHERVILLE	QUEBEC	CANADA	J4B 5H3	
94478		13032	ACCORD HEALTHCARE INC	DIN OWNER	Y	Y	Y			"3535 BOULEVARD ST-CHARLES, SUITE 704"	KIRKLAND	QUEBEC	CANADA	H9H 5B9	
94479		13032	ACCORD HEALTHCARE INC	DIN OWNER	Y	Y	Y			"3535 BOULEVARD ST-CHARLES, SUITE 704"	KIRKLAND	QUEBEC	CANADA	H9H 5B9	
94480		13032	ACCORD HEALTHCARE INC	DIN OWNER	Y	Y	Y			"3535 BOULEVARD ST-CHARLES, SUITE 704"	KIRKLAND	QUEBEC	CANADA	H9H 5B9	
94481		13032	ACCORD HEALTHCARE INC	DIN OWNER	Y	Y	Y			"3535 BOULEVARD ST-CHARLES, SUITE 704"	KIRKLAND	QUEBEC	CANADA	H9H 5B9	
94482	PGA08	4911	PROCTER & GAMBLE INC	DIN OWNER	Y	N	N	N		4711 YONGE STREET	TORONTO	ONTARIO	CANADA	M2N 6K8	
94483	PGA08	4911	PROCTER & GAMBLE INC	DIN OWNER	Y	N	N	N		4711 YONGE STREET	TORONTO	ONTARIO	CANADA	M2N 6K8	
94484		13985	GENERIC MEDICAL PARTNERS INC	DIN OWNER	Y	Y	Y		SUITE 1200	251 CONSUMERS ROAD	TORONTO	ONTARIO	CANADA	M2J 4R3	
94485	PGA08	4911	PROCTER & GAMBLE INC	DIN OWNER	Y	N	N	N		4711 YONGE STREET	TORONTO	ONTARIO	CANADA	M2N 6K8	
94486	PGA08	4911	PROCTER & GAMBLE INC	DIN OWNER	Y	N	N	N		4711 YONGE STREET	TORONTO	ONTARIO	CANADA	M2N 6K8	
94487	PGA08	4911	PROCTER & GAMBLE INC	DIN OWNER	Y	N	N	N		4711 YONGE STREET	TORONTO	ONTARIO	CANADA	M2N 6K8	
94490	JPC10	4415	JAMP PHARMA CORPORATION	DIN OWNER	Y	Y	Y	N		1310 RUE NOBEL	BOUCHERVILLE	QUEBEC	CANADA	J4B 5H3	
94491	JPC10	4415	JAMP PHARMA CORPORATION	DIN OWNER	Y	Y	Y	N		1310 RUE NOBEL	BOUCHERVILLE	QUEBEC	CANADA	J4B 5H3	
94492	JPC10	4415	JAMP PHARMA CORPORATION	DIN OWNER	Y	Y	Y	N		1310 RUE NOBEL	BOUCHERVILLE	QUEBEC	CANADA	J4B 5H3	
94493		16769	PANDA PHARMACEUTICALS INC.	DIN OWNER	Y	Y	Y			"35 NIXON ROAD, UNIT 10"	CALEDON	ONTARIO	CANADA	L7E 1K1	
94495		13014	CSL BEHRING CANADA INC	DIN OWNER	Y	N	N		1460	55 METCALFE STREET	OTTAWA	ONTARIO	CANADA	K1P 6L5	
94497	APX08	3636	APOTEX INC	DIN OWNER	Y	Y	Y	N		150 SIGNET DRIVE	TORONTO	ONTARIO	CANADA	M9L 1T9	
94507		17145	SYSTEM BIOLOGIE AG	DIN OWNER	Y	Y	N			SIHLEGGSTRASSE 23	WOLLERAU	SCHWYZ	SWITZERLAND	8832	
94508		9626	BIOLYSE PHARMA CORPORATION	DIN OWNER	Y	Y	Y			59 WELLAND VALE ROAD	ST. CATHARINES	ONTARIO	CANADA	L2S 3Y2	
94515	ECO08	4114	ECOLAB CO	DIN OWNER	Y	Y	Y	N		5105 TOMKEN ROAD	MISSISSAUGA	ONTARIO	CANADA	L4W 2X5	
94517		17109	TELIGENT OU	DIN OWNER	Y	N	N			AKADEEMIA TEE 21/5	TALLINN	HARJU COUNTY	ESTONIA	12618	
94522		17082	ADAPT PHARMA OPERATIONS LIMITED	DIN OWNER	Y	Y	N			45 FITZWILLIAM SQUARE	DUBLIN 2	DUBLIN	IRELAND	99999	
94523		17082	ADAPT PHARMA OPERATIONS LIMITED	DIN OWNER	Y	Y	N			45 FITZWILLIAM SQUARE	DUBLIN 2	DUBLIN	IRELAND	99999	
94524	PGA08	4911	PROCTER & GAMBLE INC	DIN OWNER	Y	N	N	N		4711 YONGE STREET	TORONTO	ONTARIO	CANADA	M2N 6K8	
94526		17109	TELIGENT OU	DIN OWNER	Y	N	N			AKADEEMIA TEE 21/5	TALLINN	HARJU COUNTY	ESTONIA	12618	
94537	CIF08	3903	C.P. INDUSTRIES LTD	DIN OWNER	Y	Y	Y	N		535 DICKSON DRIVE	FERGUS	ONTARIO	CANADA	N1M 2W8	P.O. BOX 300
94538		15689	SHISEIDO AMERICAS CORPORATION	DIN OWNER	Y	N	N			900 THIRD AVENUE	NEW YORK	NEW YORK	UNITED STATES	10022	
94539		13745	LIBERCHEM INC	DIN OWNER	Y	Y	Y			572 AVENUE ORLY	DORVAL	QUEBEC	CANADA	H9P 1E9	
94540		13745	LIBERCHEM INC	DIN OWNER	Y	Y	Y			572 AVENUE ORLY	DORVAL	QUEBEC	CANADA	H9P 1E9	
94541		13745	LIBERCHEM INC	DIN OWNER	Y	Y	Y			572 AVENUE ORLY	DORVAL	QUEBEC	CANADA	H9P 1E9	
94544		12007	PARTNAR ANIMAL HEALTH INC	DIN OWNER	Y	Y	Y			14057 ILDERTON ROAD	ILDERTON	ONTARIO	CANADA	N0M 2A0	
94545		11826	THE BODY SHOP CANADA LIMITED	DIN OWNER	Y	N	N			"1 YORKDALE ROAD, SUITE 510"	TORONTO	ONTARIO	CANADA	M6A 3A1	
94547	PMS07	3550	PHARMASCIENCE INC	DIN OWNER	Y	Y	Y	N	100	"6111, ROYALMOUNT AVENUE"	MONTREAL	QUEBEC	CANADA	H4P 2T4	
94548	PMS07	3550	PHARMASCIENCE INC	DIN OWNER	Y	Y	Y	N	100	"6111, ROYALMOUNT AVENUE"	MONTREAL	QUEBEC	CANADA	H4P 2T4	
94551		15083	DR REDDYS LABORATORIES LTD	DIN OWNER	Y	N	N			"SURVEY NOS 42,45,46,54 BACHUPALLY, QUTHBULLAPUR"	HYDERBAD	TELANGANA	INDIA	500090	
94555	JPC10	4415	JAMP PHARMA CORPORATION	DIN OWNER	Y	Y	Y	N		1310 RUE NOBEL	BOUCHERVILLE	QUEBEC	CANADA	J4B 5H3	
94560	JGD95	4412	PERRIGO INTERNATIONAL	DIN OWNER	Y	Y	Y	N		515 EASTERN AVE	ALLEGAN	MICHIGAN	UNITED STATES	49010-1327	
94562		17121	GREENLABS CHEMICAL SOLUTIONS	DIN OWNER	Y	Y	Y			851 PROGRESS COURT	OAKVILLE	ONTARIO	CANADA	L6L 6K1	
94565		15590	CEVA ANIMAL HEALTH INC	DIN OWNER	Y	Y	Y			"1040 FOUNTAIN STREET NORTH, UNIT 6"	CAMBRIDGE	ONTARIO	CANADA	N3E 1A3	
94571	NVR07	7277	NOVARTIS PHARMACEUTICALS CANADA INC	DIN OWNER	Y	Y	Y	N		385 BOUCHARD BLVD	DORVAL	QUEBEC	CANADA	H9S 1A9	
94572		17109	TELIGENT OU	DIN OWNER	Y	N	N			AKADEEMIA TEE 21/5	TALLINN	HARJU COUNTY	ESTONIA	12618	
94573		11979	AURO PHARMA INC	DIN OWNER	Y	Y	Y			"3700 STEELES AVENUE WEST, SUITE 402"	WOODBRIDGE	ONTARIO	CANADA	L4L 8K8	
94574		11979	AURO PHARMA INC	DIN OWNER	Y	Y	Y			"3700 STEELES AVENUE WEST, SUITE 402"	WOODBRIDGE	ONTARIO	CANADA	L4L 8K8	
94584		16778	GLENMARK PHARMACEUTICALS CANADA INC.	DIN OWNER	Y	N	N			"500 KING STREET W, 3RD FLOOR, SUITE 300"	TORONTO	ONTARIO	CANADA	M5V 1L9	
94586		12027	SANDOZ CANADA INCORPORATED	DIN OWNER	Y	Y	Y			145 JULES-LÉGER STREET	BOUCHERVILLE	QUEBEC	CANADA	J4B 7K8	
94587		12027	SANDOZ CANADA INCORPORATED	DIN OWNER	Y	Y	Y			145 JULES-LÉGER STREET	BOUCHERVILLE	QUEBEC	CANADA	J4B 7K8	
94591		16702	CELLCHEM PHARMACEUTICALS INC.	DIN OWNER	Y	N	N			"30 CONCOURSE GATE, UNIT 1"	OTTAWA	ONTARIO	CANADA	K2E 7V7	
94592		16702	CELLCHEM PHARMACEUTICALS INC.	DIN OWNER	Y	N	N			"30 CONCOURSE GATE, UNIT 1"	OTTAWA	ONTARIO	CANADA	K2E 7V7	
94593		16702	CELLCHEM PHARMACEUTICALS INC.	DIN OWNER	Y	N	N			"30 CONCOURSE GATE, UNIT 1"	OTTAWA	ONTARIO	CANADA	K2E 7V7	
94594		16702	CELLCHEM PHARMACEUTICALS INC.	DIN OWNER	Y	N	N			"30 CONCOURSE GATE, UNIT 1"	OTTAWA	ONTARIO	CANADA	K2E 7V7	
94595		16702	CELLCHEM PHARMACEUTICALS INC.	DIN OWNER	Y	N	N			"30 CONCOURSE GATE, UNIT 1"	OTTAWA	ONTARIO	CANADA	K2E 7V7	
94596		16702	CELLCHEM PHARMACEUTICALS INC.	DIN OWNER	Y	N	N			"30 CONCOURSE GATE, UNIT 1"	OTTAWA	ONTARIO	CANADA	K2E 7V7	
94597		13930	MYLAN PHARMACEUTICALS ULC	DIN OWNER	Y	Y	Y			85 ADVANCE ROAD	ETOBICOKE	ONTARIO	CANADA	M8Z 2S6	
94598		13930	MYLAN PHARMACEUTICALS ULC	DIN OWNER	Y	Y	Y			85 ADVANCE ROAD	ETOBICOKE	ONTARIO	CANADA	M8Z 2S6	
94599		13930	MYLAN PHARMACEUTICALS ULC	DIN OWNER	Y	Y	Y			85 ADVANCE ROAD	ETOBICOKE	ONTARIO	CANADA	M8Z 2S6	
94601	ODN07	4835	ODAN LABORATORIES LTD	DIN OWNER	Y	Y	Y	N		325 STILLVIEW AVENUE	POINTE-CLAIRE	QUEBEC	CANADA	H9R 2Y6	
94602		16702	CELLCHEM PHARMACEUTICALS INC.	DIN OWNER	Y	N	N			"30 CONCOURSE GATE, UNIT 1"	OTTAWA	ONTARIO	CANADA	K2E 7V7	
94603		16702	CELLCHEM PHARMACEUTICALS INC.	DIN OWNER	Y	N	N			"30 CONCOURSE GATE, UNIT 1"	OTTAWA	ONTARIO	CANADA	K2E 7V7	
94604		15590	CEVA ANIMAL HEALTH INC	DIN OWNER	Y	Y	Y			"1040 FOUNTAIN STREET NORTH, UNIT 6"	CAMBRIDGE	ONTARIO	CANADA	N3E 1A3	
94605		17199	BRITE RIDGE PHARMACEUTICALS	DIN OWNER	Y	Y	Y			4-61 MALCOM ROAD	GUELPH	ONTARIO	CANADA	N1K 1A7	
94611		11979	AURO PHARMA INC	DIN OWNER	Y	Y	Y			"3700 STEELES AVENUE WEST, SUITE 402"	WOODBRIDGE	ONTARIO	CANADA	L4L 8K8	
94613		11979	AURO PHARMA INC	DIN OWNER	Y	Y	Y			"3700 STEELES AVENUE WEST, SUITE 402"	WOODBRIDGE	ONTARIO	CANADA	L4L 8K8	
94614		11979	AURO PHARMA INC	DIN OWNER	Y	Y	Y			"3700 STEELES AVENUE WEST, SUITE 402"	WOODBRIDGE	ONTARIO	CANADA	L4L 8K8	
94615		11979	AURO PHARMA INC	DIN OWNER	Y	Y	Y			"3700 STEELES AVENUE WEST, SUITE 402"	WOODBRIDGE	ONTARIO	CANADA	L4L 8K8	
94619		16529	BAXALTA CANADA CORPORATION	DIN OWNER	Y	Y	Y			7125 MISSISSAUGA ROAD	MISSISSAUGA	ONTARIO	CANADA	L5N 0C2	
94620		16529	BAXALTA CANADA CORPORATION	DIN OWNER	Y	Y	Y			7125 MISSISSAUGA ROAD	MISSISSAUGA	ONTARIO	CANADA	L5N 0C2	
94621		16529	BAXALTA CANADA CORPORATION	DIN OWNER	Y	Y	Y			7125 MISSISSAUGA ROAD	MISSISSAUGA	ONTARIO	CANADA	L5N 0C2	
94622		16529	BAXALTA CANADA CORPORATION	DIN OWNER	Y	Y	Y			7125 MISSISSAUGA ROAD	MISSISSAUGA	ONTARIO	CANADA	L5N 0C2	
94629		9071	THE CLOROX COMPANY OF CANADA LTD	DIN OWNER	Y	Y	Y			150 BISCAYNE CRESCENT	BRAMPTON	ONTARIO	CANADA	L6W 4V3	
94630		9071	THE CLOROX COMPANY OF CANADA LTD	DIN OWNER	Y	Y	Y			150 BISCAYNE CRESCENT	BRAMPTON	ONTARIO	CANADA	L6W 4V3	
94631		15415	ALEMBIC PHARMACEUTICALS LIMITED	DIN OWNER	Y	Y	Y			ALEMBIC ROAD	VADODARA	GUJARAT	INDIA	390003	
94632	PIA08	8481	PALADIN LABS INC	DIN OWNER	Y	Y	Y	N		"100 BLVD ALEXIS-NIHON, SUITE 600"	SAINT-LAURENT	QUEBEC	CANADA	H4M 2P2	
94633	PIA08	8481	PALADIN LABS INC	DIN OWNER	Y	Y	Y	N		"100 BLVD ALEXIS-NIHON, SUITE 600"	SAINT-LAURENT	QUEBEC	CANADA	H4M 2P2	
94634		9551	ECOLAB INC	DIN OWNER	Y	N	Y			370 NORTH WABASHA ST SUITE EUC-9	ST. PAUL	MINNESOTA	UNITED STATES	55102	
94635	YYK08	5472	RELIABLE MAINTENANCE PRODUCTS LTD.	DIN OWNER	Y	Y	Y	N		345 REGENT STREET SOUTH	SUDBURY	ONTARIO	CANADA	P3C 4E1	
94636	AZC08	9307	ASTRAZENECA CANADA INC	DIN OWNER	Y	N	Y	N		"1004 MIDDLEGATE ROAD, SUITE 5000"	MISSISSAUGA	ONTARIO	CANADA	L4Y 1M4	
94637	AZC08	9307	ASTRAZENECA CANADA INC	DIN OWNER	Y	N	Y	N		"1004 MIDDLEGATE ROAD, SUITE 5000"	MISSISSAUGA	ONTARIO	CANADA	L4Y 1M4	
94638	DPC07	4065	DOMINION PHARMACAL	DIN OWNER	Y	Y	Y	N	SUITE 100	"6111, AVENUE ROYALMOUNT"	MONTREAL	QUEBEC	CANADA	H4P 2T4	
94640	APX08	3636	APOTEX INC	DIN OWNER	Y	Y	Y	N		150 SIGNET DRIVE	TORONTO	ONTARIO	CANADA	M9L 1T9	
94641	DPC07	4065	DOMINION PHARMACAL	DIN OWNER	Y	Y	Y	N	SUITE 100	"6111, AVENUE ROYALMOUNT"	MONTREAL	QUEBEC	CANADA	H4P 2T4	
94642	DPC07	4065	DOMINION PHARMACAL	DIN OWNER	Y	Y	Y	N	SUITE 100	"6111, AVENUE ROYALMOUNT"	MONTREAL	QUEBEC	CANADA	H4P 2T4	
94644		17068	KC PHARMACEUTICALS INC	DIN OWNER	Y	N	Y			3201 PRODUCER WAY	POMONA	CALIFORNIA	UNITED STATES	91768	
94652		9113	GUERBET	DIN OWNER	Y	N	Y			BP 57400	ROISSY CDG CEDEX	VAL-D'OISE	FRANCE	95943	
94653		9730	GEA FARM TECHNOLOGIES INC	DIN OWNER	Y	Y	Y			1880 COUNTRY FARM DRIVE	NAPERVILLE	ILLINOIS	UNITED STATES	60563	
94667		14318	TEVA CANADA LIMITED	DIN OWNER	Y	Y	N			30 NOVOPHARM COURT	TORONTO	ONTARIO	CANADA	M1B 2K9	
94668		17136	GENESIS CHEMICALS LTD	DIN OWNER	Y	N	Y			602 13TH STREET SE	MEDICINE HAT	ALBERTA	CANADA	T1A 1X3	
94669		14907	MARCAN PHARMACEUTICALS INC	DIN OWNER	Y	N	N		SUITE 4	77 AURIGA DRIVE	OTTAWA	ONTARIO	CANADA	K2E 7Z7	
94670		14907	MARCAN PHARMACEUTICALS INC	DIN OWNER	Y	N	N		SUITE 4	77 AURIGA DRIVE	OTTAWA	ONTARIO	CANADA	K2E 7Z7	
94673	APX08	3636	APOTEX INC	DIN OWNER	Y	Y	Y	N		150 SIGNET DRIVE	TORONTO	ONTARIO	CANADA	M9L 1T9	
94674	APX08	3636	APOTEX INC	DIN OWNER	Y	Y	Y	N		150 SIGNET DRIVE	TORONTO	ONTARIO	CANADA	M9L 1T9	
94685		13014	CSL BEHRING CANADA INC	DIN OWNER	Y	N	N		1460	55 METCALFE STREET	OTTAWA	ONTARIO	CANADA	K1P 6L5	
94686		13014	CSL BEHRING CANADA INC	DIN OWNER	Y	N	N		1460	55 METCALFE STREET	OTTAWA	ONTARIO	CANADA	K1P 6L5	
94687		13014	CSL BEHRING CANADA INC	DIN OWNER	Y	N	N		1460	55 METCALFE STREET	OTTAWA	ONTARIO	CANADA	K1P 6L5	
94688		13014	CSL BEHRING CANADA INC	DIN OWNER	Y	N	N		1460	55 METCALFE STREET	OTTAWA	ONTARIO	CANADA	K1P 6L5	
94689		13014	CSL BEHRING CANADA INC	DIN OWNER	Y	N	N		1460	55 METCALFE STREET	OTTAWA	ONTARIO	CANADA	K1P 6L5	
94690		13014	CSL BEHRING CANADA INC	DIN OWNER	Y	N	N		1460	55 METCALFE STREET	OTTAWA	ONTARIO	CANADA	K1P 6L5	
94691		13014	CSL BEHRING CANADA INC	DIN OWNER	Y	N	N		1460	55 METCALFE STREET	OTTAWA	ONTARIO	CANADA	K1P 6L5	
94692	CYR09	5813	CANGENE CORPORATION A SUBSIDIARY OF EMERGENT BIOSOLUTIONS INC.	DIN OWNER	Y	N	N	N		155 INNOVATION DRIVE	WINNIPEG	MANITOBA	CANADA	R3T 5Y3	
94695		12027	SANDOZ CANADA INCORPORATED	DIN OWNER	Y	Y	Y			145 JULES-LÉGER STREET	BOUCHERVILLE	QUEBEC	CANADA	J4B 7K8	
94696		15583	PEDIAPHARM INC	DIN OWNER	Y	Y	Y			"1 PLACE DU COMMERCE, SUITE 225"	VERDUN	QUEBEC	CANADA	H3E 1A2	
94708		14774	LONDON DAIRY SUPPLY LTD	DIN OWNER	Y	Y	N			3700 OLD VICTORIA ROAD	LONDON	ONTARIO	CANADA	N6N 1R2	
94711	NVR07	7277	NOVARTIS PHARMACEUTICALS CANADA INC	DIN OWNER	Y	Y	Y	N		385 BOUCHARD BLVD	DORVAL	QUEBEC	CANADA	H9S 1A9	
94712	NVR07	7277	NOVARTIS PHARMACEUTICALS CANADA INC	DIN OWNER	Y	Y	Y	N		385 BOUCHARD BLVD	DORVAL	QUEBEC	CANADA	H9S 1A9	
94716	PGA08	4911	PROCTER & GAMBLE INC	DIN OWNER	Y	N	N	N		4711 YONGE STREET	TORONTO	ONTARIO	CANADA	M2N 6K8	
94718	PGA08	4911	PROCTER & GAMBLE INC	DIN OWNER	Y	N	N	N		4711 YONGE STREET	TORONTO	ONTARIO	CANADA	M2N 6K8	
94719		16702	CELLCHEM PHARMACEUTICALS INC.	DIN OWNER	Y	N	N			"30 CONCOURSE GATE, UNIT 1"	OTTAWA	ONTARIO	CANADA	K2E 7V7	
94720		13930	MYLAN PHARMACEUTICALS ULC	DIN OWNER	Y	Y	Y			85 ADVANCE ROAD	ETOBICOKE	ONTARIO	CANADA	M8Z 2S6	
94721		17109	TELIGENT OU	DIN OWNER	Y	N	N			AKADEEMIA TEE 21/5	TALLINN	HARJU COUNTY	ESTONIA	12618	
94722		16702	CELLCHEM PHARMACEUTICALS INC.	DIN OWNER	Y	N	N			"30 CONCOURSE GATE, UNIT 1"	OTTAWA	ONTARIO	CANADA	K2E 7V7	
94723		16702	CELLCHEM PHARMACEUTICALS INC.	DIN OWNER	Y	N	N			"30 CONCOURSE GATE, UNIT 1"	OTTAWA	ONTARIO	CANADA	K2E 7V7	
94739		14507	EISAI LIMITED	DIN OWNER	Y	Y	Y			"6925 CENTURY AVE, SUITE 701"	MISSISSAUGA	ONTARIO	CANADA	L5N 7K2	
94742	RAX08	8892	STERIMAX INC	DIN OWNER	Y	Y	Y			2770 PORTLAND DRIVE	OAKVILLE	ONTARIO	CANADA	L6H 6R4	
94744		9730	GEA FARM TECHNOLOGIES INC	DIN OWNER	Y	Y	Y			1880 COUNTRY FARM DRIVE	NAPERVILLE	ILLINOIS	UNITED STATES	60563	
94745		9730	GEA FARM TECHNOLOGIES INC	DIN OWNER	Y	Y	Y			1880 COUNTRY FARM DRIVE	NAPERVILLE	ILLINOIS	UNITED STATES	60563	
94748	APX08	3636	APOTEX INC	DIN OWNER	Y	Y	Y	N		150 SIGNET DRIVE	TORONTO	ONTARIO	CANADA	M9L 1T9	
94751		7555	EURO-PHARM INTERNATIONAL CANADA INC	DIN OWNER	Y	Y	Y	N		9400  BOUL. LANGELIER	MONTREAL	QUEBEC	CANADA	H1P 3H8	
94752	JPC10	4415	JAMP PHARMA CORPORATION	DIN OWNER	Y	Y	Y	N		1310 RUE NOBEL	BOUCHERVILLE	QUEBEC	CANADA	J4B 5H3	
94753	JPC10	4415	JAMP PHARMA CORPORATION	DIN OWNER	Y	Y	Y	N		1310 RUE NOBEL	BOUCHERVILLE	QUEBEC	CANADA	J4B 5H3	
94754	JPC10	4415	JAMP PHARMA CORPORATION	DIN OWNER	Y	Y	Y	N		1310 RUE NOBEL	BOUCHERVILLE	QUEBEC	CANADA	J4B 5H3	
94755	DUI07	4086	DUCHESNAY INC	DIN OWNER	Y	Y	N	N		950 MICHELE-BOHEC BLVD	BLAINVILLE	QUEBEC	CANADA	J7C 5E2	
94756	DUI07	4086	DUCHESNAY INC	DIN OWNER	Y	Y	N	N		950 MICHELE-BOHEC BLVD	BLAINVILLE	QUEBEC	CANADA	J7C 5E2	
94758		16702	CELLCHEM PHARMACEUTICALS INC.	DIN OWNER	Y	N	N			"30 CONCOURSE GATE, UNIT 1"	OTTAWA	ONTARIO	CANADA	K2E 7V7	
94760		17240	SEQIRUS UK LTD	DIN OWNER	Y	N	Y			29 MARKET STREET	MAIDENHEAD	BERKSHIRE	UNITED KINGDOM	SL6 8AA	
94767	NVR07	7277	NOVARTIS PHARMACEUTICALS CANADA INC	DIN OWNER	Y	Y	Y	N		385 BOUCHARD BLVD	DORVAL	QUEBEC	CANADA	H9S 1A9	
94769		16555	FRESENIUS KABI CANADA LTD	DIN OWNER	Y	Y	Y			"165 GALAXY BLVD, SUITE 100"	TORONTO	ONTARIO	CANADA	M9W 0C8	
94770		16555	FRESENIUS KABI CANADA LTD	DIN OWNER	Y	Y	Y			"165 GALAXY BLVD, SUITE 100"	TORONTO	ONTARIO	CANADA	M9W 0C8	
94771		15645	ZOETIS CANADA INC	DIN OWNER	Y	Y	Y			16740 TRANS CANADA HIGHWAY	KIRKLAND	QUEBEC	CANADA	H9H 4M7	
94779		17136	GENESIS CHEMICALS LTD	DIN OWNER	Y	N	Y			602 13TH STREET SE	MEDICINE HAT	ALBERTA	CANADA	T1A 1X3	
94783	APX08	3636	APOTEX INC	DIN OWNER	Y	Y	Y	N		150 SIGNET DRIVE	TORONTO	ONTARIO	CANADA	M9L 1T9	
94784		14907	MARCAN PHARMACEUTICALS INC	DIN OWNER	Y	N	N		SUITE 4	77 AURIGA DRIVE	OTTAWA	ONTARIO	CANADA	K2E 7Z7	
94795	APX08	3636	APOTEX INC	DIN OWNER	Y	Y	Y	N		150 SIGNET DRIVE	TORONTO	ONTARIO	CANADA	M9L 1T9	
94800		17142	JUNO OTC INC	DIN OWNER	Y	N	Y			"555 RICHMOND STREET WEST, SUITE 1004"	TORONTO	ONTARIO	CANADA	M5V 3B1	
94801		17142	JUNO OTC INC	DIN OWNER	Y	N	Y			"555 RICHMOND STREET WEST, SUITE 1004"	TORONTO	ONTARIO	CANADA	M5V 3B1	
94802		17142	JUNO OTC INC	DIN OWNER	Y	N	Y			"555 RICHMOND STREET WEST, SUITE 1004"	TORONTO	ONTARIO	CANADA	M5V 3B1	
94803	RAX08	8892	STERIMAX INC	DIN OWNER	Y	Y	Y			2770 PORTLAND DRIVE	OAKVILLE	ONTARIO	CANADA	L6H 6R4	
94804	RAX08	8892	STERIMAX INC	DIN OWNER	Y	Y	Y			2770 PORTLAND DRIVE	OAKVILLE	ONTARIO	CANADA	L6H 6R4	
94805	LPI07	4524	LES PRODUITS SANITAIRES LÉPINE INC.	DIN OWNER	Y	Y	Y	N		1105 BERSIMIS	CHICOUTIMI	QUEBEC	CANADA	G7K 1A4	
94807	RAX08	8892	STERIMAX INC	DIN OWNER	Y	Y	Y			2770 PORTLAND DRIVE	OAKVILLE	ONTARIO	CANADA	L6H 6R4	
94808	APX08	3636	APOTEX INC	DIN OWNER	Y	Y	Y	N		150 SIGNET DRIVE	TORONTO	ONTARIO	CANADA	M9L 1T9	
94809	PMS07	3550	PHARMASCIENCE INC	DIN OWNER	Y	Y	Y	N	100	"6111, ROYALMOUNT AVENUE"	MONTREAL	QUEBEC	CANADA	H4P 2T4	
94810		16906	"HSP USA, LLC"	DIN OWNER	Y	Y	Y			"3111 ROUTE 38, SUITE 11, # 310"	MOUNT LAUREL	NEW JERSEY	UNITED STATES	8054	
94812		16967	DIMACHEM INC	DIN OWNER	Y	Y	Y			3258 MARENTETTE AVENUE	WINDSOR	ONTARIO	CANADA	N8X 4G4	
94814		8460	BIMEDA-MTC ANIMAL HEALTH INC	DIN OWNER	Y	Y	Y	N		420 BEAVERDALE RD.	CAMBRIDGE	ONTARIO	CANADA	N3W 2W4	
94822		17107	SYLVIA FEDORUK CANADIAN CENTRE FOR NUCLEAR INNOVATION	DIN OWNER	Y	Y	Y			111-54 INNOVATION BOULEVARD	SASKATOON	SASKATCHEWAN	CANADA	S7N 2V3	
94824		16778	GLENMARK PHARMACEUTICALS CANADA INC.	DIN OWNER	Y	N	N			"500 KING STREET W, 3RD FLOOR, SUITE 300"	TORONTO	ONTARIO	CANADA	M5V 1L9	
94825		9071	THE CLOROX COMPANY OF CANADA LTD	DIN OWNER	Y	Y	Y			150 BISCAYNE CRESCENT	BRAMPTON	ONTARIO	CANADA	L6W 4V3	
94826		17052	BARD PHARMACEUTICALS (1990) INC	DIN OWNER	Y	Y	N			580 GRANITE COURT	PICKERING	ONTARIO	CANADA	L1W 3W8	
94827		17052	BARD PHARMACEUTICALS (1990) INC	DIN OWNER	Y	Y	N			580 GRANITE COURT	PICKERING	ONTARIO	CANADA	L1W 3W8	
94828		17052	BARD PHARMACEUTICALS (1990) INC	DIN OWNER	Y	Y	N			580 GRANITE COURT	PICKERING	ONTARIO	CANADA	L1W 3W8	
94829		17052	BARD PHARMACEUTICALS (1990) INC	DIN OWNER	Y	Y	N			580 GRANITE COURT	PICKERING	ONTARIO	CANADA	L1W 3W8	
94830		17052	BARD PHARMACEUTICALS (1990) INC	DIN OWNER	Y	Y	N			580 GRANITE COURT	PICKERING	ONTARIO	CANADA	L1W 3W8	
94831		17052	BARD PHARMACEUTICALS (1990) INC	DIN OWNER	Y	Y	N			580 GRANITE COURT	PICKERING	ONTARIO	CANADA	L1W 3W8	
94832		17052	BARD PHARMACEUTICALS (1990) INC	DIN OWNER	Y	Y	N			580 GRANITE COURT	PICKERING	ONTARIO	CANADA	L1W 3W8	
94833		17052	BARD PHARMACEUTICALS (1990) INC	DIN OWNER	Y	Y	N			580 GRANITE COURT	PICKERING	ONTARIO	CANADA	L1W 3W8	
94840		17124	ALLERGAN PHARMA CO.	DIN OWNER	Y	Y	Y			500-85 ENTERPRISE BLVD	MARKHAM	ONTARIO	CANADA	L6G 0B5	
94841		17124	ALLERGAN PHARMA CO.	DIN OWNER	Y	Y	Y			500-85 ENTERPRISE BLVD	MARKHAM	ONTARIO	CANADA	L6G 0B5	
94843	APX08	3636	APOTEX INC	DIN OWNER	Y	Y	Y	N		150 SIGNET DRIVE	TORONTO	ONTARIO	CANADA	M9L 1T9	
94844		12027	SANDOZ CANADA INCORPORATED	DIN OWNER	Y	Y	Y			145 JULES-LÉGER STREET	BOUCHERVILLE	QUEBEC	CANADA	J4B 7K8	
94845		12027	SANDOZ CANADA INCORPORATED	DIN OWNER	Y	Y	Y			145 JULES-LÉGER STREET	BOUCHERVILLE	QUEBEC	CANADA	J4B 7K8	
94846		15018	MDA INC.	DIN OWNER	Y	Y	Y			206-2401 BRISTOL CIRCLE	OAKVILLE	ONTARIO	CANADA	L6H 5S9	
94847		15018	MDA INC.	DIN OWNER	Y	Y	Y			206-2401 BRISTOL CIRCLE	OAKVILLE	ONTARIO	CANADA	L6H 5S9	
94859	BGM08	3744	BIO AGRI MIX LP	DIN OWNER	Y	Y	Y	N		11 ELLENS STREET	MITCHELL	ONTARIO	CANADA	N0K 1N0	399
94860		17214	MODIFI PRODUCTS LLC	DIN OWNER	Y	Y	N			7571 WEST SAND LAKE RD	ORLANDO	FLORIDA	UNITED STATES	32819	
94862	RAX08	8892	STERIMAX INC	DIN OWNER	Y	Y	Y			2770 PORTLAND DRIVE	OAKVILLE	ONTARIO	CANADA	L6H 6R4	
94863	YNO08	5348	BAYER INC CONSUMER CARE	DIN OWNER	Y	N	Y	N		2920  MATHESON BLVD E	MISSISSAUGA	ONTARIO	CANADA	L4W 5R6	
94864	YNO08	5348	BAYER INC CONSUMER CARE	DIN OWNER	Y	N	Y	N		2920  MATHESON BLVD E	MISSISSAUGA	ONTARIO	CANADA	L4W 5R6	
94865		17217	ARA-AVANTI RX ANALYTICS INC	DIN OWNER	Y	N	Y			135 DEVON ROAD	BRAMPTON	ONTARIO	CANADA	L6T 5A4	
94871		14255	VIIV HEALTHCARE ULC	DIN OWNER	Y	N	Y			245 BOULEVARD ARMAND-FRAPPIER	LAVAL	QUEBEC	CANADA	H7V 4A7	
94872		14255	VIIV HEALTHCARE ULC	DIN OWNER	Y	N	Y			245 BOULEVARD ARMAND-FRAPPIER	LAVAL	QUEBEC	CANADA	H7V 4A7	
94883		12027	SANDOZ CANADA INCORPORATED	DIN OWNER	Y	Y	Y			145 JULES-LÉGER STREET	BOUCHERVILLE	QUEBEC	CANADA	J4B 7K8	
94884		12027	SANDOZ CANADA INCORPORATED	DIN OWNER	Y	Y	Y			145 JULES-LÉGER STREET	BOUCHERVILLE	QUEBEC	CANADA	J4B 7K8	
94894	NVR07	7277	NOVARTIS PHARMACEUTICALS CANADA INC	DIN OWNER	Y	Y	Y	N		385 BOUCHARD BLVD	DORVAL	QUEBEC	CANADA	H9S 1A9	
94898		17219	HAMPTON MANUFACTURING INC DIV OF RON S. HAMPTON ENTERPRISES INC	DIN OWNER	Y	Y	N			"121 BETHEA ROAD, SUITE 301"	FAYETTEVILLE	GEORGIA	UNITED STATES	30214	
94899	RAX08	8892	STERIMAX INC	DIN OWNER	Y	Y	Y			2770 PORTLAND DRIVE	OAKVILLE	ONTARIO	CANADA	L6H 6R4	
94903		11979	AURO PHARMA INC	DIN OWNER	Y	Y	Y			"3700 STEELES AVENUE WEST, SUITE 402"	WOODBRIDGE	ONTARIO	CANADA	L4L 8K8	
94906		15112	SANOFI CONSUMER HEALTH INC SANOFI SANTE GRAND PUBLIC INC	DIN OWNER	Y	Y	Y			2905 PLACE LOUIS-R RENAUD	LAVAL	QUEBEC	CANADA	H7V 0A3	
94908		13221	MINT PHARMACEUTICALS INC	DIN OWNER	Y	Y	Y		UNIT 1	1093 MEYERSIDE DRIVE	MISSISSAUGA	ONTARIO	CANADA	L5T 1J6	
94911	APX08	3636	APOTEX INC	DIN OWNER	Y	Y	Y	N		150 SIGNET DRIVE	TORONTO	ONTARIO	CANADA	M9L 1T9	
94916	LIL08	7005	ELI LILLY CANADA INC	DIN OWNER	Y	Y	Y	N		3650 DANFORTH AVENUE	TORONTO	ONTARIO	CANADA	M1N 2E8	
94926		14803	JUBILANT GENERICS LIMITED	DIN OWNER	Y	Y	N			"1A, SECTOR 16A INSTITUTIONAL AREA"	NOIDA	UTTAR PRADESH	INDIA	201301	
94928		14803	JUBILANT GENERICS LIMITED	DIN OWNER	Y	Y	N			"1A, SECTOR 16A INSTITUTIONAL AREA"	NOIDA	UTTAR PRADESH	INDIA	201301	
94929		14803	JUBILANT GENERICS LIMITED	DIN OWNER	Y	Y	N			"1A, SECTOR 16A INSTITUTIONAL AREA"	NOIDA	UTTAR PRADESH	INDIA	201301	
94930		14803	JUBILANT GENERICS LIMITED	DIN OWNER	Y	Y	N			"1A, SECTOR 16A INSTITUTIONAL AREA"	NOIDA	UTTAR PRADESH	INDIA	201301	
94943		16529	BAXALTA CANADA CORPORATION	DIN OWNER	Y	Y	Y			7125 MISSISSAUGA ROAD	MISSISSAUGA	ONTARIO	CANADA	L5N 0C2	
94945		9730	GEA FARM TECHNOLOGIES INC	DIN OWNER	Y	Y	Y			1880 COUNTRY FARM DRIVE	NAPERVILLE	ILLINOIS	UNITED STATES	60563	
94948	RIV07	5034	LABORATOIRE RIVA INC	DIN OWNER	Y	Y	N	N		660 BOUL. INDUSTRIEL	BLAINVILLE	QUEBEC	CANADA	J7C 3V4	
94949	RIV07	5034	LABORATOIRE RIVA INC	DIN OWNER	Y	Y	N	N		660 BOUL. INDUSTRIEL	BLAINVILLE	QUEBEC	CANADA	J7C 3V4	
94960	APX08	3636	APOTEX INC	DIN OWNER	Y	Y	Y	N		150 SIGNET DRIVE	TORONTO	ONTARIO	CANADA	M9L 1T9	
94961	APX08	3636	APOTEX INC	DIN OWNER	Y	Y	Y	N		150 SIGNET DRIVE	TORONTO	ONTARIO	CANADA	M9L 1T9	
94962	APX08	3636	APOTEX INC	DIN OWNER	Y	Y	Y	N		150 SIGNET DRIVE	TORONTO	ONTARIO	CANADA	M9L 1T9	
94964		16505	GENERIC PARTNERS (CANADA) INC.	DIN OWNER	Y	Y	N			"35 NIXON ROAD, UNIT 10"	CALEDON	ONTARIO	CANADA	L7E 1K1	
94965		16529	BAXALTA CANADA CORPORATION	DIN OWNER	Y	Y	Y			7125 MISSISSAUGA ROAD	MISSISSAUGA	ONTARIO	CANADA	L5N 0C2	
94966	BQC07	3798	BRISTOL-MYERS SQUIBB CANADA	DIN OWNER	Y	Y	Y	N		"2344 BOUL. ALFRED-NOBEL, SUITE 300"	MONTRÉAL (ST-LAURENT)	QUEBEC	CANADA	H4S 0A4	
94968		16133	ISOLOGIC INNOVATIVE RADIOPHARMACEUTICALS LTD.	DIN OWNER	Y	N	Y			1855 32ND AVENUE	LACHINE	QUEBEC	CANADA	H8T 3J1	
94969		11895	SYNTHESE ELEVAGE	DIN OWNER	Y	Y	Y			11 RUE MARIE CURIE	PLEUMELEUC	ILLE-ET-VILAINE	FRANCE	35160	
94972		10103	DELAVAL INC.	DIN OWNER	Y	N	N			150-B JAMESON DRIVE	PETERBOROUGH	ONTARIO	CANADA	K9J 7B7	P.O. BOX 4600
94973		12027	SANDOZ CANADA INCORPORATED	DIN OWNER	Y	Y	Y			145 JULES-LÉGER STREET	BOUCHERVILLE	QUEBEC	CANADA	J4B 7K8	
94974		12027	SANDOZ CANADA INCORPORATED	DIN OWNER	Y	Y	Y			145 JULES-LÉGER STREET	BOUCHERVILLE	QUEBEC	CANADA	J4B 7K8	
94975		12027	SANDOZ CANADA INCORPORATED	DIN OWNER	Y	Y	Y			145 JULES-LÉGER STREET	BOUCHERVILLE	QUEBEC	CANADA	J4B 7K8	
94976		12027	SANDOZ CANADA INCORPORATED	DIN OWNER	Y	Y	Y			145 JULES-LÉGER STREET	BOUCHERVILLE	QUEBEC	CANADA	J4B 7K8	
94983		17177	STAR - PHARMA PAN - AMERICA INC	DIN OWNER	Y	Y	Y			"2985 DREW RD, SUITE 216"	MISSISSAUGA	ONTARIO	CANADA	L4T 0A4	
94984		17177	STAR - PHARMA PAN - AMERICA INC	DIN OWNER	Y	Y	Y			"2985 DREW RD, SUITE 216"	MISSISSAUGA	ONTARIO	CANADA	L4T 0A4	
94988		14510	CENTRE FOR PROBE DEVELOPMENT AND COMMERCIALIZATION	DIN OWNER	Y	N	Y		A303	"1280 MAIN STREET WEST, NUCLEAR RESEARCH BUILDING ANNEX"	HAMILTON	ONTARIO	CANADA	L8S 4K1	
94989		10997	BIOMED PHARMA	DIN OWNER	Y	Y	N			1565 BOUL LIONEL-BOULET	VARENNES	QUEBEC	CANADA	J3X 1P7	
94992		13221	MINT PHARMACEUTICALS INC	DIN OWNER	Y	Y	Y		UNIT 1	1093 MEYERSIDE DRIVE	MISSISSAUGA	ONTARIO	CANADA	L5T 1J6	
94993		13221	MINT PHARMACEUTICALS INC	DIN OWNER	Y	Y	Y		UNIT 1	1093 MEYERSIDE DRIVE	MISSISSAUGA	ONTARIO	CANADA	L5T 1J6	
94995	RAX08	8892	STERIMAX INC	DIN OWNER	Y	Y	Y			2770 PORTLAND DRIVE	OAKVILLE	ONTARIO	CANADA	L6H 6R4	
94996		15018	MDA INC.	DIN OWNER	Y	Y	Y			206-2401 BRISTOL CIRCLE	OAKVILLE	ONTARIO	CANADA	L6H 5S9	
94998	PMS07	3550	PHARMASCIENCE INC	DIN OWNER	Y	Y	Y	N	100	"6111, ROYALMOUNT AVENUE"	MONTREAL	QUEBEC	CANADA	H4P 2T4	
95001		11545	THE BUCKLEY'S COMPANY	DIN OWNER	Y	Y	Y			7333 MISSISSAUGA ROAD	MISSISSAUGA	ONTARIO	CANADA	L5N 6L4	
95011		14632	LAWSON HEALTH RESEARCH INSTITUTE	DIN OWNER	Y	Y	Y			268 GROSVENOR STREET	LONDON	ONTARIO	CANADA	N6A 4V2	
95012		15739	VPI PHARMACEUTICALS INC	DIN OWNER	Y	Y	Y			"16,667 BOUL. HYMUS"	KIRKLAND	QUEBEC	CANADA	H9H 4R9	
95015	TAR08	5241	TARO PHARMACEUTICALS INC	DIN OWNER	Y	Y	N	N		130 EAST DRIVE	BRAMPTON	ONTARIO	CANADA	L6T 1C1	
95016		17040	CARDIOME UK LIMITED	DIN OWNER	Y	Y	Y			"LAKESIDE HOUSE, 1 FURZEGROUND WAY, STOCKLEY PARK"	UXBRIDGE	GREATER LONDON	UNITED KINGDOM	UB11 1BD	
95017		9805	EUROVET ANIMAL HEALTH B.V.	DIN OWNER	Y	N	N			HANDELSWEG 25	BLADEL	NOORD-BRABANT	NETHERLANDS	5531 AE	
95018		11979	AURO PHARMA INC	DIN OWNER	Y	Y	Y			"3700 STEELES AVENUE WEST, SUITE 402"	WOODBRIDGE	ONTARIO	CANADA	L4L 8K8	
95019		11979	AURO PHARMA INC	DIN OWNER	Y	Y	Y			"3700 STEELES AVENUE WEST, SUITE 402"	WOODBRIDGE	ONTARIO	CANADA	L4L 8K8	
95020		11979	AURO PHARMA INC	DIN OWNER	Y	Y	Y			"3700 STEELES AVENUE WEST, SUITE 402"	WOODBRIDGE	ONTARIO	CANADA	L4L 8K8	
95021		11979	AURO PHARMA INC	DIN OWNER	Y	Y	Y			"3700 STEELES AVENUE WEST, SUITE 402"	WOODBRIDGE	ONTARIO	CANADA	L4L 8K8	
95022	LIL08	7005	ELI LILLY CANADA INC	DIN OWNER	Y	Y	Y	N		3650 DANFORTH AVENUE	TORONTO	ONTARIO	CANADA	M1N 2E8	
95023		14318	TEVA CANADA LIMITED	DIN OWNER	Y	Y	N			30 NOVOPHARM COURT	TORONTO	ONTARIO	CANADA	M1B 2K9	
95029	CHU08	3893	CHURCH & DWIGHT CANADA CORP	DIN OWNER	Y	N	N	N		635 SECRETARIAT COURT	MISSISSAUGA	ONTARIO	CANADA	L5S 0A5	
95030		14731	ALTACOMP ENTREPRISES INC	DIN OWNER	Y	Y	Y			10440 WAPITI DRIVE SE	CALGARY	ALBERTA	CANADA	T2J 1J4	
95031		13221	MINT PHARMACEUTICALS INC	DIN OWNER	Y	Y	Y		UNIT 1	1093 MEYERSIDE DRIVE	MISSISSAUGA	ONTARIO	CANADA	L5T 1J6	
95032		17165	WAYMADE PLC	DIN OWNER	Y	N	Y			"SOVEREIGN HOUSE, MILES GRAY ROAD"	BASILDON	ESSEX	UNITED KINGDOM	SS14 3FR	
95045		13985	GENERIC MEDICAL PARTNERS INC	DIN OWNER	Y	Y	Y		SUITE 1200	251 CONSUMERS ROAD	TORONTO	ONTARIO	CANADA	M2J 4R3	
95047	MCL08	4569	MCNEIL CONSUMER HEALTHCARE DIVISION OF JOHNSON & JOHNSON INC	DIN OWNER	Y	Y	Y	N		88 MCNABB STREET	MARKHAM	ONTARIO	CANADA	L3R 5L2	
95050		15908	ADIENNE SA	DIN OWNER	Y	Y	Y			VIA ZURIGO 46	LUGANO	TESSIN	SWITZERLAND	6900	
95051		15908	ADIENNE SA	DIN OWNER	Y	Y	Y			VIA ZURIGO 46	LUGANO	TESSIN	SWITZERLAND	6900	
95052		11656	PENDOPHARM DIVISION OF DE PHARMASCIENCE INC	DIN OWNER	Y	Y	Y		SUITE 100	"6111, AVENUE ROYALMOUNT"	MONTREAL	QUEBEC	CANADA	H4P 2T4	
95055		17109	TELIGENT OU	DIN OWNER	Y	N	N			AKADEEMIA TEE 21/5	TALLINN	HARJU COUNTY	ESTONIA	12618	
95057		16505	GENERIC PARTNERS (CANADA) INC.	DIN OWNER	Y	Y	N			"35 NIXON ROAD, UNIT 10"	CALEDON	ONTARIO	CANADA	L7E 1K1	
95058		16505	GENERIC PARTNERS (CANADA) INC.	DIN OWNER	Y	Y	N			"35 NIXON ROAD, UNIT 10"	CALEDON	ONTARIO	CANADA	L7E 1K1	
95059		16505	GENERIC PARTNERS (CANADA) INC.	DIN OWNER	Y	Y	N			"35 NIXON ROAD, UNIT 10"	CALEDON	ONTARIO	CANADA	L7E 1K1	
95060		16505	GENERIC PARTNERS (CANADA) INC.	DIN OWNER	Y	Y	N			"35 NIXON ROAD, UNIT 10"	CALEDON	ONTARIO	CANADA	L7E 1K1	
95062		14907	MARCAN PHARMACEUTICALS INC	DIN OWNER	Y	N	N		SUITE 4	77 AURIGA DRIVE	OTTAWA	ONTARIO	CANADA	K2E 7Z7	
95063		14907	MARCAN PHARMACEUTICALS INC	DIN OWNER	Y	N	N		SUITE 4	77 AURIGA DRIVE	OTTAWA	ONTARIO	CANADA	K2E 7Z7	
95066		16533	BESINS HEALTHCARE S A	DIN OWNER	Y	N	Y			"287 AVENUE LOUISE, LOUISE CENTRE"	BRUSSELS	BRUSSELS CAPITAL REGION	BELGIUM	1050	
95069		17246	PHARMARIS CANADA INC	DIN OWNER	Y	Y	Y			"8322 130 STREET, SUITE 202B"	SURREY	BRITISH COLUMBIA	CANADA	V3W 8J9	
95071		7555	EURO-PHARM INTERNATIONAL CANADA INC	DIN OWNER	Y	Y	Y	N		9400  BOUL. LANGELIER	MONTREAL	QUEBEC	CANADA	H1P 3H8	
95072		12027	SANDOZ CANADA INCORPORATED	DIN OWNER	Y	Y	Y			145 JULES-LÉGER STREET	BOUCHERVILLE	QUEBEC	CANADA	J4B 7K8	
95073		12027	SANDOZ CANADA INCORPORATED	DIN OWNER	Y	Y	Y			145 JULES-LÉGER STREET	BOUCHERVILLE	QUEBEC	CANADA	J4B 7K8	
95074		12027	SANDOZ CANADA INCORPORATED	DIN OWNER	Y	Y	Y			145 JULES-LÉGER STREET	BOUCHERVILLE	QUEBEC	CANADA	J4B 7K8	
95075		11979	AURO PHARMA INC	DIN OWNER	Y	Y	Y			"3700 STEELES AVENUE WEST, SUITE 402"	WOODBRIDGE	ONTARIO	CANADA	L4L 8K8	
95076		11979	AURO PHARMA INC	DIN OWNER	Y	Y	Y			"3700 STEELES AVENUE WEST, SUITE 402"	WOODBRIDGE	ONTARIO	CANADA	L4L 8K8	
95081	NFG08	4398	INTERVET CANADA CORP	DIN OWNER	Y	Y	Y	N		16750 ROUTE TRANSCANADIENNE	KIRKLAND	QUEBEC	CANADA	H9H 4M7	
95083		17178	CIUSS DE L'ESTRIE - CENTRE HOSPITALIER UNIVERSITAIRE DE SHERBROOKE	DIN OWNER	Y	N	Y			"3001, 12EME AVENUE NORD"	SHERBROOKE	QUEBEC	CANADA	J1H 5N4	
95085		9889	LLOYD'S LABORATORIES INC.	DIN OWNER	Y	Y	Y			613 NEAL DRIVE	PETERBOROUGH	ONTARIO	CANADA	K9J 6X7	
95086	PDL07	4901	PRO DOC LIMITEE	DIN OWNER	Y	Y	N	N		2925 BOULEVARD INDUSTRIEL	LAVAL	QUEBEC	CANADA	H7L 3W9	
95089	HLR07	4328	HOFFMANN-LA ROCHE LIMITED	DIN OWNER	Y	Y	Y	N		7070 MISSISSAUGA ROAD	MISSISSAUGA	ONTARIO	CANADA	L5N 5M8	
95090		13741	PHARMAPAR INC	DIN OWNER	Y	Y	N			"1565 BOUL LIONEL-BOULET	"	VARENNES	QUEBEC	CANADA	J3X 1P7	
95091		13741	PHARMAPAR INC	DIN OWNER	Y	Y	N			"1565 BOUL LIONEL-BOULET	"	VARENNES	QUEBEC	CANADA	J3X 1P7	
95092		13741	PHARMAPAR INC	DIN OWNER	Y	Y	N			"1565 BOUL LIONEL-BOULET	"	VARENNES	QUEBEC	CANADA	J3X 1P7	
95093		7555	EURO-PHARM INTERNATIONAL CANADA INC	DIN OWNER	Y	Y	Y	N		9400  BOUL. LANGELIER	MONTREAL	QUEBEC	CANADA	H1P 3H8	
95094		14765	VERTEX PHARMACEUTICALS (CANADA) INCORPORATED	DIN OWNER	Y	N	Y			"20 BAY STREET, SUITE 1520"	TORONTO	ONTARIO	CANADA	M5J 2N8	
95095		13014	CSL BEHRING CANADA INC	DIN OWNER	Y	N	N		1460	55 METCALFE STREET	OTTAWA	ONTARIO	CANADA	K1P 6L5	
95096		13014	CSL BEHRING CANADA INC	DIN OWNER	Y	N	N		1460	55 METCALFE STREET	OTTAWA	ONTARIO	CANADA	K1P 6L5	
95098		15083	DR REDDYS LABORATORIES LTD	DIN OWNER	Y	N	N			"SURVEY NOS 42,45,46,54 BACHUPALLY, QUTHBULLAPUR"	HYDERBAD	TELANGANA	INDIA	500090	
95102		10225	DR REDDYS LABORATORIES INC	DIN OWNER	Y	Y	Y			107 COLLEGE ROAD EAST	PRINCETON	NEW JERSEY	UNITED STATES	8540	
95103	ODN07	4835	ODAN LABORATORIES LTD	DIN OWNER	Y	Y	Y	N		325 STILLVIEW AVENUE	POINTE-CLAIRE	QUEBEC	CANADA	H9R 2Y6	
95104		17170	INTERCEPT PHARMACEUTICALS INC	DIN OWNER	Y	Y	Y			4760 EASTGATE MALL	SAN DIEGO	CALIFORNIA	UNITED STATES	92121	
95105		17170	INTERCEPT PHARMACEUTICALS INC	DIN OWNER	Y	Y	Y			4760 EASTGATE MALL	SAN DIEGO	CALIFORNIA	UNITED STATES	92121	
95109		15540	LUCAS SPECIALTY PRODUCTS LLC	DIN OWNER	Y	Y	Y			"5655 OPPORTUNITY DR., SUITE 1"	TOLEDO	OHIO	UNITED STATES	43612	6570
95111		15654	RODAN & FIELDS LLC	DIN OWNER	Y	Y	N			"60 SPEAR STREET, SUITE 600"	SAN FRANCISCO	CALIFORNIA	UNITED STATES	94105	
95112		15654	RODAN & FIELDS LLC	DIN OWNER	Y	Y	N			"60 SPEAR STREET, SUITE 600"	SAN FRANCISCO	CALIFORNIA	UNITED STATES	94105	
95117		7428	"SANOFI GENZYME, A DIVISION OF SANOFI-AVENTIS CANADA INC"	DIN OWNER	Y	N	Y	N		"2700 MATHESON BLVD EAST, SUITE 800, WEST TOWER"	MISSISSAUGA	ONTARIO	CANADA	L4W 4V9	
95131	VNA07	4280	VETOQUINOL N A INC	DIN OWNER	Y	Y	Y	N		2000 CHEMIN GEORGES	LAVALTRIE	QUEBEC	CANADA	J5T 3S5	
95134	VNA07	4280	VETOQUINOL N A INC	DIN OWNER	Y	Y	Y	N		2000 CHEMIN GEORGES	LAVALTRIE	QUEBEC	CANADA	J5T 3S5	
95135	VNA07	4280	VETOQUINOL N A INC	DIN OWNER	Y	Y	Y	N		2000 CHEMIN GEORGES	LAVALTRIE	QUEBEC	CANADA	J5T 3S5	
95136		17109	TELIGENT OU	DIN OWNER	Y	N	N			AKADEEMIA TEE 21/5	TALLINN	HARJU COUNTY	ESTONIA	12618	
95144		14774	LONDON DAIRY SUPPLY LTD	DIN OWNER	Y	Y	N			3700 OLD VICTORIA ROAD	LONDON	ONTARIO	CANADA	N6N 1R2	
95145		14774	LONDON DAIRY SUPPLY LTD	DIN OWNER	Y	Y	N			3700 OLD VICTORIA ROAD	LONDON	ONTARIO	CANADA	N6N 1R2	
95153		12031	"HACCO, INC."	DIN OWNER	Y	Y	Y			110 HOPKINS DRIVE	RANDOLPH	WISCONSIN	UNITED STATES	53956-1316	
95160		15112	SANOFI CONSUMER HEALTH INC SANOFI SANTE GRAND PUBLIC INC	DIN OWNER	Y	Y	Y			2905 PLACE LOUIS-R RENAUD	LAVAL	QUEBEC	CANADA	H7V 0A3	
